
ATLAS-M3.elf:     file format elf32-littlearm

Sections:
Idx Name          Size      VMA       LMA       File off  Algn
  0 .isr_vector   00000188  08000000  08000000  00001000  2**0
                  CONTENTS, ALLOC, LOAD, READONLY, DATA
  1 .text         00006c48  08000188  08000188  00001188  2**2
                  CONTENTS, ALLOC, LOAD, READONLY, CODE
  2 .rodata       00000020  08006dd0  08006dd0  00007dd0  2**2
                  CONTENTS, ALLOC, LOAD, READONLY, DATA
  3 .ARM.extab    00000000  08006df0  08006df0  00008014  2**0
                  CONTENTS, READONLY
  4 .ARM          00000008  08006df0  08006df0  00007df0  2**2
                  CONTENTS, ALLOC, LOAD, READONLY, DATA
  5 .preinit_array 00000000  08006df8  08006df8  00008014  2**0
                  CONTENTS, ALLOC, LOAD, DATA
  6 .init_array   00000004  08006df8  08006df8  00007df8  2**2
                  CONTENTS, ALLOC, LOAD, READONLY, DATA
  7 .fini_array   00000004  08006dfc  08006dfc  00007dfc  2**2
                  CONTENTS, ALLOC, LOAD, READONLY, DATA
  8 .data         00000014  20000000  08006e00  00008000  2**2
                  CONTENTS, ALLOC, LOAD, DATA
  9 .ccmram       00000000  10000000  10000000  00008014  2**0
                  CONTENTS
 10 .bss          00002458  20000014  20000014  00008014  2**2
                  ALLOC
 11 ._user_heap_stack 00000604  2000246c  2000246c  00008014  2**0
                  ALLOC
 12 .ARM.attributes 00000030  00000000  00000000  00008014  2**0
                  CONTENTS, READONLY
 13 .debug_info   00014930  00000000  00000000  00008044  2**0
                  CONTENTS, READONLY, DEBUGGING, OCTETS
 14 .debug_abbrev 0000298f  00000000  00000000  0001c974  2**0
                  CONTENTS, READONLY, DEBUGGING, OCTETS
 15 .debug_aranges 00001390  00000000  00000000  0001f308  2**3
                  CONTENTS, READONLY, DEBUGGING, OCTETS
 16 .debug_rnglists 00000f7d  00000000  00000000  00020698  2**0
                  CONTENTS, READONLY, DEBUGGING, OCTETS
 17 .debug_macro  00023c3d  00000000  00000000  00021615  2**0
                  CONTENTS, READONLY, DEBUGGING, OCTETS
 18 .debug_line   0001759c  00000000  00000000  00045252  2**0
                  CONTENTS, READONLY, DEBUGGING, OCTETS
 19 .debug_str    000e1233  00000000  00000000  0005c7ee  2**0
                  CONTENTS, READONLY, DEBUGGING, OCTETS
 20 .comment      00000043  00000000  00000000  0013da21  2**0
                  CONTENTS, READONLY
 21 .debug_frame  00005040  00000000  00000000  0013da64  2**2
                  CONTENTS, READONLY, DEBUGGING, OCTETS
 22 .debug_line_str 0000006e  00000000  00000000  00142aa4  2**0
                  CONTENTS, READONLY, DEBUGGING, OCTETS

Disassembly of section .text:

08000188 <__do_global_dtors_aux>:
 8000188:	b510      	push	{r4, lr}
 800018a:	4c05      	ldr	r4, [pc, #20]	@ (80001a0 <__do_global_dtors_aux+0x18>)
 800018c:	7823      	ldrb	r3, [r4, #0]
 800018e:	b933      	cbnz	r3, 800019e <__do_global_dtors_aux+0x16>
 8000190:	4b04      	ldr	r3, [pc, #16]	@ (80001a4 <__do_global_dtors_aux+0x1c>)
 8000192:	b113      	cbz	r3, 800019a <__do_global_dtors_aux+0x12>
 8000194:	4804      	ldr	r0, [pc, #16]	@ (80001a8 <__do_global_dtors_aux+0x20>)
 8000196:	f3af 8000 	nop.w
 800019a:	2301      	movs	r3, #1
 800019c:	7023      	strb	r3, [r4, #0]
 800019e:	bd10      	pop	{r4, pc}
 80001a0:	20000014 	.word	0x20000014
 80001a4:	00000000 	.word	0x00000000
 80001a8:	08006db8 	.word	0x08006db8

080001ac <frame_dummy>:
 80001ac:	b508      	push	{r3, lr}
 80001ae:	4b03      	ldr	r3, [pc, #12]	@ (80001bc <frame_dummy+0x10>)
 80001b0:	b11b      	cbz	r3, 80001ba <frame_dummy+0xe>
 80001b2:	4903      	ldr	r1, [pc, #12]	@ (80001c0 <frame_dummy+0x14>)
 80001b4:	4803      	ldr	r0, [pc, #12]	@ (80001c4 <frame_dummy+0x18>)
 80001b6:	f3af 8000 	nop.w
 80001ba:	bd08      	pop	{r3, pc}
 80001bc:	00000000 	.word	0x00000000
 80001c0:	20000018 	.word	0x20000018
 80001c4:	08006db8 	.word	0x08006db8

080001c8 <__aeabi_uldivmod>:
 80001c8:	b953      	cbnz	r3, 80001e0 <__aeabi_uldivmod+0x18>
 80001ca:	b94a      	cbnz	r2, 80001e0 <__aeabi_uldivmod+0x18>
 80001cc:	2900      	cmp	r1, #0
 80001ce:	bf08      	it	eq
 80001d0:	2800      	cmpeq	r0, #0
 80001d2:	bf1c      	itt	ne
 80001d4:	f04f 31ff 	movne.w	r1, #4294967295
 80001d8:	f04f 30ff 	movne.w	r0, #4294967295
 80001dc:	f000 b988 	b.w	80004f0 <__aeabi_idiv0>
 80001e0:	f1ad 0c08 	sub.w	ip, sp, #8
 80001e4:	e96d ce04 	strd	ip, lr, [sp, #-16]!
 80001e8:	f000 f806 	bl	80001f8 <__udivmoddi4>
 80001ec:	f8dd e004 	ldr.w	lr, [sp, #4]
 80001f0:	e9dd 2302 	ldrd	r2, r3, [sp, #8]
 80001f4:	b004      	add	sp, #16
 80001f6:	4770      	bx	lr

080001f8 <__udivmoddi4>:
 80001f8:	e92d 47f0 	stmdb	sp!, {r4, r5, r6, r7, r8, r9, sl, lr}
 80001fc:	9d08      	ldr	r5, [sp, #32]
 80001fe:	460f      	mov	r7, r1
 8000200:	4604      	mov	r4, r0
 8000202:	468c      	mov	ip, r1
 8000204:	2b00      	cmp	r3, #0
 8000206:	d148      	bne.n	800029a <__udivmoddi4+0xa2>
 8000208:	428a      	cmp	r2, r1
 800020a:	4616      	mov	r6, r2
 800020c:	d961      	bls.n	80002d2 <__udivmoddi4+0xda>
 800020e:	fab2 f382 	clz	r3, r2
 8000212:	b14b      	cbz	r3, 8000228 <__udivmoddi4+0x30>
 8000214:	f1c3 0220 	rsb	r2, r3, #32
 8000218:	fa01 fc03 	lsl.w	ip, r1, r3
 800021c:	fa20 f202 	lsr.w	r2, r0, r2
 8000220:	409e      	lsls	r6, r3
 8000222:	ea42 0c0c 	orr.w	ip, r2, ip
 8000226:	409c      	lsls	r4, r3
 8000228:	ea4f 4e16 	mov.w	lr, r6, lsr #16
 800022c:	b2b7      	uxth	r7, r6
 800022e:	fbbc f1fe 	udiv	r1, ip, lr
 8000232:	0c22      	lsrs	r2, r4, #16
 8000234:	fb0e cc11 	mls	ip, lr, r1, ip
 8000238:	ea42 420c 	orr.w	r2, r2, ip, lsl #16
 800023c:	fb01 f007 	mul.w	r0, r1, r7
 8000240:	4290      	cmp	r0, r2
 8000242:	d909      	bls.n	8000258 <__udivmoddi4+0x60>
 8000244:	18b2      	adds	r2, r6, r2
 8000246:	f101 3cff 	add.w	ip, r1, #4294967295
 800024a:	f080 80ee 	bcs.w	800042a <__udivmoddi4+0x232>
 800024e:	4290      	cmp	r0, r2
 8000250:	f240 80eb 	bls.w	800042a <__udivmoddi4+0x232>
 8000254:	3902      	subs	r1, #2
 8000256:	4432      	add	r2, r6
 8000258:	1a12      	subs	r2, r2, r0
 800025a:	b2a4      	uxth	r4, r4
 800025c:	fbb2 f0fe 	udiv	r0, r2, lr
 8000260:	fb0e 2210 	mls	r2, lr, r0, r2
 8000264:	ea44 4402 	orr.w	r4, r4, r2, lsl #16
 8000268:	fb00 f707 	mul.w	r7, r0, r7
 800026c:	42a7      	cmp	r7, r4
 800026e:	d909      	bls.n	8000284 <__udivmoddi4+0x8c>
 8000270:	1934      	adds	r4, r6, r4
 8000272:	f100 32ff 	add.w	r2, r0, #4294967295
 8000276:	f080 80da 	bcs.w	800042e <__udivmoddi4+0x236>
 800027a:	42a7      	cmp	r7, r4
 800027c:	f240 80d7 	bls.w	800042e <__udivmoddi4+0x236>
 8000280:	4434      	add	r4, r6
 8000282:	3802      	subs	r0, #2
 8000284:	ea40 4001 	orr.w	r0, r0, r1, lsl #16
 8000288:	1be4      	subs	r4, r4, r7
 800028a:	2100      	movs	r1, #0
 800028c:	b11d      	cbz	r5, 8000296 <__udivmoddi4+0x9e>
 800028e:	40dc      	lsrs	r4, r3
 8000290:	2300      	movs	r3, #0
 8000292:	e9c5 4300 	strd	r4, r3, [r5]
 8000296:	e8bd 87f0 	ldmia.w	sp!, {r4, r5, r6, r7, r8, r9, sl, pc}
 800029a:	428b      	cmp	r3, r1
 800029c:	d906      	bls.n	80002ac <__udivmoddi4+0xb4>
 800029e:	b10d      	cbz	r5, 80002a4 <__udivmoddi4+0xac>
 80002a0:	e9c5 0100 	strd	r0, r1, [r5]
 80002a4:	2100      	movs	r1, #0
 80002a6:	4608      	mov	r0, r1
 80002a8:	e8bd 87f0 	ldmia.w	sp!, {r4, r5, r6, r7, r8, r9, sl, pc}
 80002ac:	fab3 f183 	clz	r1, r3
 80002b0:	2900      	cmp	r1, #0
 80002b2:	d148      	bne.n	8000346 <__udivmoddi4+0x14e>
 80002b4:	42bb      	cmp	r3, r7
 80002b6:	d302      	bcc.n	80002be <__udivmoddi4+0xc6>
 80002b8:	4282      	cmp	r2, r0
 80002ba:	f200 8107 	bhi.w	80004cc <__udivmoddi4+0x2d4>
 80002be:	1a84      	subs	r4, r0, r2
 80002c0:	eb67 0203 	sbc.w	r2, r7, r3
 80002c4:	2001      	movs	r0, #1
 80002c6:	4694      	mov	ip, r2
 80002c8:	2d00      	cmp	r5, #0
 80002ca:	d0e4      	beq.n	8000296 <__udivmoddi4+0x9e>
 80002cc:	e9c5 4c00 	strd	r4, ip, [r5]
 80002d0:	e7e1      	b.n	8000296 <__udivmoddi4+0x9e>
 80002d2:	2a00      	cmp	r2, #0
 80002d4:	f000 8092 	beq.w	80003fc <__udivmoddi4+0x204>
 80002d8:	fab2 f382 	clz	r3, r2
 80002dc:	2b00      	cmp	r3, #0
 80002de:	f040 80a8 	bne.w	8000432 <__udivmoddi4+0x23a>
 80002e2:	1a8a      	subs	r2, r1, r2
 80002e4:	ea4f 4e16 	mov.w	lr, r6, lsr #16
 80002e8:	fa1f fc86 	uxth.w	ip, r6
 80002ec:	2101      	movs	r1, #1
 80002ee:	0c20      	lsrs	r0, r4, #16
 80002f0:	fbb2 f7fe 	udiv	r7, r2, lr
 80002f4:	fb0e 2217 	mls	r2, lr, r7, r2
 80002f8:	ea40 4202 	orr.w	r2, r0, r2, lsl #16
 80002fc:	fb0c f007 	mul.w	r0, ip, r7
 8000300:	4290      	cmp	r0, r2
 8000302:	d907      	bls.n	8000314 <__udivmoddi4+0x11c>
 8000304:	18b2      	adds	r2, r6, r2
 8000306:	f107 38ff 	add.w	r8, r7, #4294967295
 800030a:	d202      	bcs.n	8000312 <__udivmoddi4+0x11a>
 800030c:	4290      	cmp	r0, r2
 800030e:	f200 80e2 	bhi.w	80004d6 <__udivmoddi4+0x2de>
 8000312:	4647      	mov	r7, r8
 8000314:	1a12      	subs	r2, r2, r0
 8000316:	b2a4      	uxth	r4, r4
 8000318:	fbb2 f0fe 	udiv	r0, r2, lr
 800031c:	fb0e 2210 	mls	r2, lr, r0, r2
 8000320:	ea44 4402 	orr.w	r4, r4, r2, lsl #16
 8000324:	fb0c fc00 	mul.w	ip, ip, r0
 8000328:	45a4      	cmp	ip, r4
 800032a:	d907      	bls.n	800033c <__udivmoddi4+0x144>
 800032c:	1934      	adds	r4, r6, r4
 800032e:	f100 32ff 	add.w	r2, r0, #4294967295
 8000332:	d202      	bcs.n	800033a <__udivmoddi4+0x142>
 8000334:	45a4      	cmp	ip, r4
 8000336:	f200 80cb 	bhi.w	80004d0 <__udivmoddi4+0x2d8>
 800033a:	4610      	mov	r0, r2
 800033c:	eba4 040c 	sub.w	r4, r4, ip
 8000340:	ea40 4007 	orr.w	r0, r0, r7, lsl #16
 8000344:	e7a2      	b.n	800028c <__udivmoddi4+0x94>
 8000346:	f1c1 0620 	rsb	r6, r1, #32
 800034a:	408b      	lsls	r3, r1
 800034c:	fa22 fc06 	lsr.w	ip, r2, r6
 8000350:	ea4c 0c03 	orr.w	ip, ip, r3
 8000354:	fa07 f401 	lsl.w	r4, r7, r1
 8000358:	fa20 f306 	lsr.w	r3, r0, r6
 800035c:	40f7      	lsrs	r7, r6
 800035e:	ea4f 491c 	mov.w	r9, ip, lsr #16
 8000362:	4323      	orrs	r3, r4
 8000364:	fa00 f801 	lsl.w	r8, r0, r1
 8000368:	fa1f fe8c 	uxth.w	lr, ip
 800036c:	fbb7 f0f9 	udiv	r0, r7, r9
 8000370:	0c1c      	lsrs	r4, r3, #16
 8000372:	fb09 7710 	mls	r7, r9, r0, r7
 8000376:	ea44 4407 	orr.w	r4, r4, r7, lsl #16
 800037a:	fb00 f70e 	mul.w	r7, r0, lr
 800037e:	42a7      	cmp	r7, r4
 8000380:	fa02 f201 	lsl.w	r2, r2, r1
 8000384:	d90a      	bls.n	800039c <__udivmoddi4+0x1a4>
 8000386:	eb1c 0404 	adds.w	r4, ip, r4
 800038a:	f100 3aff 	add.w	sl, r0, #4294967295
 800038e:	f080 809b 	bcs.w	80004c8 <__udivmoddi4+0x2d0>
 8000392:	42a7      	cmp	r7, r4
 8000394:	f240 8098 	bls.w	80004c8 <__udivmoddi4+0x2d0>
 8000398:	3802      	subs	r0, #2
 800039a:	4464      	add	r4, ip
 800039c:	1be4      	subs	r4, r4, r7
 800039e:	b29f      	uxth	r7, r3
 80003a0:	fbb4 f3f9 	udiv	r3, r4, r9
 80003a4:	fb09 4413 	mls	r4, r9, r3, r4
 80003a8:	ea47 4404 	orr.w	r4, r7, r4, lsl #16
 80003ac:	fb03 fe0e 	mul.w	lr, r3, lr
 80003b0:	45a6      	cmp	lr, r4
 80003b2:	d909      	bls.n	80003c8 <__udivmoddi4+0x1d0>
 80003b4:	eb1c 0404 	adds.w	r4, ip, r4
 80003b8:	f103 37ff 	add.w	r7, r3, #4294967295
 80003bc:	f080 8082 	bcs.w	80004c4 <__udivmoddi4+0x2cc>
 80003c0:	45a6      	cmp	lr, r4
 80003c2:	d97f      	bls.n	80004c4 <__udivmoddi4+0x2cc>
 80003c4:	3b02      	subs	r3, #2
 80003c6:	4464      	add	r4, ip
 80003c8:	ea43 4000 	orr.w	r0, r3, r0, lsl #16
 80003cc:	eba4 040e 	sub.w	r4, r4, lr
 80003d0:	fba0 e702 	umull	lr, r7, r0, r2
 80003d4:	42bc      	cmp	r4, r7
 80003d6:	4673      	mov	r3, lr
 80003d8:	46b9      	mov	r9, r7
 80003da:	d363      	bcc.n	80004a4 <__udivmoddi4+0x2ac>
 80003dc:	d060      	beq.n	80004a0 <__udivmoddi4+0x2a8>
 80003de:	b15d      	cbz	r5, 80003f8 <__udivmoddi4+0x200>
 80003e0:	ebb8 0203 	subs.w	r2, r8, r3
 80003e4:	eb64 0409 	sbc.w	r4, r4, r9
 80003e8:	fa04 f606 	lsl.w	r6, r4, r6
 80003ec:	fa22 f301 	lsr.w	r3, r2, r1
 80003f0:	431e      	orrs	r6, r3
 80003f2:	40cc      	lsrs	r4, r1
 80003f4:	e9c5 6400 	strd	r6, r4, [r5]
 80003f8:	2100      	movs	r1, #0
 80003fa:	e74c      	b.n	8000296 <__udivmoddi4+0x9e>
 80003fc:	0862      	lsrs	r2, r4, #1
 80003fe:	0848      	lsrs	r0, r1, #1
 8000400:	ea42 71c1 	orr.w	r1, r2, r1, lsl #31
 8000404:	0c0b      	lsrs	r3, r1, #16
 8000406:	ea43 4300 	orr.w	r3, r3, r0, lsl #16
 800040a:	b28a      	uxth	r2, r1
 800040c:	ea42 4203 	orr.w	r2, r2, r3, lsl #16
 8000410:	fbb3 f1f6 	udiv	r1, r3, r6
 8000414:	07e4      	lsls	r4, r4, #31
 8000416:	46b4      	mov	ip, r6
 8000418:	4637      	mov	r7, r6
 800041a:	46b6      	mov	lr, r6
 800041c:	231f      	movs	r3, #31
 800041e:	fbb0 f0f6 	udiv	r0, r0, r6
 8000422:	1bd2      	subs	r2, r2, r7
 8000424:	ea41 4100 	orr.w	r1, r1, r0, lsl #16
 8000428:	e761      	b.n	80002ee <__udivmoddi4+0xf6>
 800042a:	4661      	mov	r1, ip
 800042c:	e714      	b.n	8000258 <__udivmoddi4+0x60>
 800042e:	4610      	mov	r0, r2
 8000430:	e728      	b.n	8000284 <__udivmoddi4+0x8c>
 8000432:	f1c3 0120 	rsb	r1, r3, #32
 8000436:	fa20 f201 	lsr.w	r2, r0, r1
 800043a:	409e      	lsls	r6, r3
 800043c:	fa27 f101 	lsr.w	r1, r7, r1
 8000440:	409f      	lsls	r7, r3
 8000442:	433a      	orrs	r2, r7
 8000444:	ea4f 4e16 	mov.w	lr, r6, lsr #16
 8000448:	fa1f fc86 	uxth.w	ip, r6
 800044c:	fbb1 f7fe 	udiv	r7, r1, lr
 8000450:	fb0e 1017 	mls	r0, lr, r7, r1
 8000454:	0c11      	lsrs	r1, r2, #16
 8000456:	ea41 4100 	orr.w	r1, r1, r0, lsl #16
 800045a:	fb07 f80c 	mul.w	r8, r7, ip
 800045e:	4588      	cmp	r8, r1
 8000460:	fa04 f403 	lsl.w	r4, r4, r3
 8000464:	d93a      	bls.n	80004dc <__udivmoddi4+0x2e4>
 8000466:	1871      	adds	r1, r6, r1
 8000468:	f107 30ff 	add.w	r0, r7, #4294967295
 800046c:	d201      	bcs.n	8000472 <__udivmoddi4+0x27a>
 800046e:	4588      	cmp	r8, r1
 8000470:	d81f      	bhi.n	80004b2 <__udivmoddi4+0x2ba>
 8000472:	eba1 0108 	sub.w	r1, r1, r8
 8000476:	fbb1 f8fe 	udiv	r8, r1, lr
 800047a:	fb08 f70c 	mul.w	r7, r8, ip
 800047e:	fb0e 1118 	mls	r1, lr, r8, r1
 8000482:	b292      	uxth	r2, r2
 8000484:	ea42 4201 	orr.w	r2, r2, r1, lsl #16
 8000488:	42ba      	cmp	r2, r7
 800048a:	d22f      	bcs.n	80004ec <__udivmoddi4+0x2f4>
 800048c:	18b2      	adds	r2, r6, r2
 800048e:	f108 31ff 	add.w	r1, r8, #4294967295
 8000492:	d2c6      	bcs.n	8000422 <__udivmoddi4+0x22a>
 8000494:	42ba      	cmp	r2, r7
 8000496:	d2c4      	bcs.n	8000422 <__udivmoddi4+0x22a>
 8000498:	f1a8 0102 	sub.w	r1, r8, #2
 800049c:	4432      	add	r2, r6
 800049e:	e7c0      	b.n	8000422 <__udivmoddi4+0x22a>
 80004a0:	45f0      	cmp	r8, lr
 80004a2:	d29c      	bcs.n	80003de <__udivmoddi4+0x1e6>
 80004a4:	ebbe 0302 	subs.w	r3, lr, r2
 80004a8:	eb67 070c 	sbc.w	r7, r7, ip
 80004ac:	3801      	subs	r0, #1
 80004ae:	46b9      	mov	r9, r7
 80004b0:	e795      	b.n	80003de <__udivmoddi4+0x1e6>
 80004b2:	eba6 0808 	sub.w	r8, r6, r8
 80004b6:	4441      	add	r1, r8
 80004b8:	1eb8      	subs	r0, r7, #2
 80004ba:	fbb1 f8fe 	udiv	r8, r1, lr
 80004be:	fb08 f70c 	mul.w	r7, r8, ip
 80004c2:	e7dc      	b.n	800047e <__udivmoddi4+0x286>
 80004c4:	463b      	mov	r3, r7
 80004c6:	e77f      	b.n	80003c8 <__udivmoddi4+0x1d0>
 80004c8:	4650      	mov	r0, sl
 80004ca:	e767      	b.n	800039c <__udivmoddi4+0x1a4>
 80004cc:	4608      	mov	r0, r1
 80004ce:	e6fb      	b.n	80002c8 <__udivmoddi4+0xd0>
 80004d0:	4434      	add	r4, r6
 80004d2:	3802      	subs	r0, #2
 80004d4:	e732      	b.n	800033c <__udivmoddi4+0x144>
 80004d6:	3f02      	subs	r7, #2
 80004d8:	4432      	add	r2, r6
 80004da:	e71b      	b.n	8000314 <__udivmoddi4+0x11c>
 80004dc:	eba1 0108 	sub.w	r1, r1, r8
 80004e0:	4638      	mov	r0, r7
 80004e2:	fbb1 f8fe 	udiv	r8, r1, lr
 80004e6:	fb08 f70c 	mul.w	r7, r8, ip
 80004ea:	e7c8      	b.n	800047e <__udivmoddi4+0x286>
 80004ec:	4641      	mov	r1, r8
 80004ee:	e798      	b.n	8000422 <__udivmoddi4+0x22a>

080004f0 <__aeabi_idiv0>:
 80004f0:	4770      	bx	lr
 80004f2:	bf00      	nop

080004f4 <main>:
/**
  * @brief  The application entry point.
  * @retval int
  */
int main(void)
{
 80004f4:	b580      	push	{r7, lr}
 80004f6:	b082      	sub	sp, #8
 80004f8:	af00      	add	r7, sp, #0
  /* USER CODE END 1 */

  /* MCU Configuration--------------------------------------------------------*/

  /* Reset of all peripherals, Initializes the Flash interface and the Systick. */
  HAL_Init();
 80004fa:	f001 fd3b 	bl	8001f74 <HAL_Init>
  /* USER CODE BEGIN Init */

  /* USER CODE END Init */

  /* Configure the system clock */
  SystemClock_Config();
 80004fe:	f000 f8a1 	bl	8000644 <SystemClock_Config>
  /* USER CODE BEGIN SysInit */

  /* USER CODE END SysInit */

  /* Initialize all configured peripherals */
  MX_GPIO_Init();
 8000502:	f000 fc7b 	bl	8000dfc <MX_GPIO_Init>
  MX_DMA_Init();
 8000506:	f000 fc2b 	bl	8000d60 <MX_DMA_Init>
  MX_I2C1_Init();
 800050a:	f000 f959 	bl	80007c0 <MX_I2C1_Init>
  MX_TIM5_Init();
 800050e:	f000 fb65 	bl	8000bdc <MX_TIM5_Init>
  MX_UART4_Init();
 8000512:	f000 fbfb 	bl	8000d0c <MX_UART4_Init>
  MX_TIM3_Init();
 8000516:	f000 fa91 	bl	8000a3c <MX_TIM3_Init>
  MX_ADC1_Init();
 800051a:	f000 f8ff 	bl	800071c <MX_ADC1_Init>
  MX_TIM1_Init();
 800051e:	f000 f9e1 	bl	80008e4 <MX_TIM1_Init>
  MX_RTC_Init();
 8000522:	f000 f97b 	bl	800081c <MX_RTC_Init>
  MX_TIM4_Init();
 8000526:	f000 fb0b 	bl	8000b40 <MX_TIM4_Init>
  /* USER CODE BEGIN 2 */

  HAL_ADC_Start_DMA(&hadc1, (uint32_t*)&ADC_buffer, bufferSize);	//Start the ADC and tell the DMA to where to store the data
 800052a:	f44f 5280 	mov.w	r2, #4096	@ 0x1000
 800052e:	493c      	ldr	r1, [pc, #240]	@ (8000620 <main+0x12c>)
 8000530:	483c      	ldr	r0, [pc, #240]	@ (8000624 <main+0x130>)
 8000532:	f001 fdf9 	bl	8002128 <HAL_ADC_Start_DMA>

  HAL_RTCEx_SetWakeUpTimer_IT(&hrtc, 10240, RTC_WAKEUPCLOCK_RTCCLK_DIV16);	//Start the LSE Timer
 8000536:	2200      	movs	r2, #0
 8000538:	f44f 5120 	mov.w	r1, #10240	@ 0x2800
 800053c:	483a      	ldr	r0, [pc, #232]	@ (8000628 <main+0x134>)
 800053e:	f004 ffe9 	bl	8005514 <HAL_RTCEx_SetWakeUpTimer_IT>

  //Start timer 4
  HAL_TIM_Base_Start_IT(&htim4);
 8000542:	483a      	ldr	r0, [pc, #232]	@ (800062c <main+0x138>)
 8000544:	f005 f91c 	bl	8005780 <HAL_TIM_Base_Start_IT>

  //Starts timer for motor driver
  HAL_TIM_PWM_Start(&htim1, TIM_CHANNEL_3);
 8000548:	2108      	movs	r1, #8
 800054a:	4839      	ldr	r0, [pc, #228]	@ (8000630 <main+0x13c>)
 800054c:	f005 f9e2 	bl	8005914 <HAL_TIM_PWM_Start>
  HAL_TIM_PWM_Start(&htim1, TIM_CHANNEL_4);
 8000550:	210c      	movs	r1, #12
 8000552:	4837      	ldr	r0, [pc, #220]	@ (8000630 <main+0x13c>)
 8000554:	f005 f9de 	bl	8005914 <HAL_TIM_PWM_Start>

  //Starts timer for servo
  HAL_TIM_PWM_Start(&htim3, TIM_CHANNEL_3);
 8000558:	2108      	movs	r1, #8
 800055a:	4836      	ldr	r0, [pc, #216]	@ (8000634 <main+0x140>)
 800055c:	f005 f9da 	bl	8005914 <HAL_TIM_PWM_Start>
  HAL_TIM_PWM_Start(&htim3, TIM_CHANNEL_4);
 8000560:	210c      	movs	r1, #12
 8000562:	4834      	ldr	r0, [pc, #208]	@ (8000634 <main+0x140>)
 8000564:	f005 f9d6 	bl	8005914 <HAL_TIM_PWM_Start>


	//disable this when MPU is disconnected because Error_Handler() causes a loop.
  status = MPU6500_Init();	//Initialize MPU6500
 8000568:	f001 fc39 	bl	8001dde <MPU6500_Init>
 800056c:	4603      	mov	r3, r0
 800056e:	461a      	mov	r2, r3
 8000570:	4b31      	ldr	r3, [pc, #196]	@ (8000638 <main+0x144>)
 8000572:	701a      	strb	r2, [r3, #0]
  if(status != HAL_OK){
 8000574:	4b30      	ldr	r3, [pc, #192]	@ (8000638 <main+0x144>)
 8000576:	781b      	ldrb	r3, [r3, #0]
 8000578:	2b00      	cmp	r3, #0
 800057a:	d001      	beq.n	8000580 <main+0x8c>
      Error_Handler();
 800057c:	f000 ff84 	bl	8001488 <Error_Handler>
  }
  status = MPU6500_EnableDataReadyInterrupts();	//Enable Interrupt pin
 8000580:	f001 fc6e 	bl	8001e60 <MPU6500_EnableDataReadyInterrupts>
 8000584:	4603      	mov	r3, r0
 8000586:	461a      	mov	r2, r3
 8000588:	4b2b      	ldr	r3, [pc, #172]	@ (8000638 <main+0x144>)
 800058a:	701a      	strb	r2, [r3, #0]
  if(status != HAL_OK){
 800058c:	4b2a      	ldr	r3, [pc, #168]	@ (8000638 <main+0x144>)
 800058e:	781b      	ldrb	r3, [r3, #0]
 8000590:	2b00      	cmp	r3, #0
 8000592:	d001      	beq.n	8000598 <main+0xa4>
      Error_Handler();
 8000594:	f000 ff78 	bl	8001488 <Error_Handler>
    /* USER CODE END WHILE */

    /* USER CODE BEGIN 3 */


	  for (uint8_t angle = 0; angle <= 180; angle += 10)
 8000598:	2300      	movs	r3, #0
 800059a:	71fb      	strb	r3, [r7, #7]
 800059c:	e015      	b.n	80005ca <main+0xd6>
      {
          setServoAngle(&htim3, TIM_CHANNEL_3, angle);
 800059e:	79fb      	ldrb	r3, [r7, #7]
 80005a0:	461a      	mov	r2, r3
 80005a2:	2108      	movs	r1, #8
 80005a4:	4823      	ldr	r0, [pc, #140]	@ (8000634 <main+0x140>)
 80005a6:	f000 fcd7 	bl	8000f58 <setServoAngle>
          setServoAngle(&htim3, TIM_CHANNEL_4, angle);
 80005aa:	79fb      	ldrb	r3, [r7, #7]
 80005ac:	461a      	mov	r2, r3
 80005ae:	210c      	movs	r1, #12
 80005b0:	4820      	ldr	r0, [pc, #128]	@ (8000634 <main+0x140>)
 80005b2:	f000 fcd1 	bl	8000f58 <setServoAngle>
          Angle = angle;
 80005b6:	79fb      	ldrb	r3, [r7, #7]
 80005b8:	b29a      	uxth	r2, r3
 80005ba:	4b20      	ldr	r3, [pc, #128]	@ (800063c <main+0x148>)
 80005bc:	801a      	strh	r2, [r3, #0]
          HAL_Delay(100);
 80005be:	2064      	movs	r0, #100	@ 0x64
 80005c0:	f001 fd4a 	bl	8002058 <HAL_Delay>
	  for (uint8_t angle = 0; angle <= 180; angle += 10)
 80005c4:	79fb      	ldrb	r3, [r7, #7]
 80005c6:	330a      	adds	r3, #10
 80005c8:	71fb      	strb	r3, [r7, #7]
 80005ca:	79fb      	ldrb	r3, [r7, #7]
 80005cc:	2bb4      	cmp	r3, #180	@ 0xb4
 80005ce:	d9e6      	bls.n	800059e <main+0xaa>
      }

      // Sweep back from 180 to 0 degrees
      for (uint8_t angle = 180; angle > 0; angle -= 10)
 80005d0:	23b4      	movs	r3, #180	@ 0xb4
 80005d2:	71bb      	strb	r3, [r7, #6]
 80005d4:	e015      	b.n	8000602 <main+0x10e>
      {
          setServoAngle(&htim3, TIM_CHANNEL_3, angle);
 80005d6:	79bb      	ldrb	r3, [r7, #6]
 80005d8:	461a      	mov	r2, r3
 80005da:	2108      	movs	r1, #8
 80005dc:	4815      	ldr	r0, [pc, #84]	@ (8000634 <main+0x140>)
 80005de:	f000 fcbb 	bl	8000f58 <setServoAngle>
          setServoAngle(&htim3, TIM_CHANNEL_4, angle);
 80005e2:	79bb      	ldrb	r3, [r7, #6]
 80005e4:	461a      	mov	r2, r3
 80005e6:	210c      	movs	r1, #12
 80005e8:	4812      	ldr	r0, [pc, #72]	@ (8000634 <main+0x140>)
 80005ea:	f000 fcb5 	bl	8000f58 <setServoAngle>
          Angle = angle;
 80005ee:	79bb      	ldrb	r3, [r7, #6]
 80005f0:	b29a      	uxth	r2, r3
 80005f2:	4b12      	ldr	r3, [pc, #72]	@ (800063c <main+0x148>)
 80005f4:	801a      	strh	r2, [r3, #0]
          HAL_Delay(100);
 80005f6:	2064      	movs	r0, #100	@ 0x64
 80005f8:	f001 fd2e 	bl	8002058 <HAL_Delay>
      for (uint8_t angle = 180; angle > 0; angle -= 10)
 80005fc:	79bb      	ldrb	r3, [r7, #6]
 80005fe:	3b0a      	subs	r3, #10
 8000600:	71bb      	strb	r3, [r7, #6]
 8000602:	79bb      	ldrb	r3, [r7, #6]
 8000604:	2b00      	cmp	r3, #0
 8000606:	d1e6      	bne.n	80005d6 <main+0xe2>
      }
      if(mpuStatus == 1){ mpuStatus = 0;  readMPU();  }
 8000608:	4b0d      	ldr	r3, [pc, #52]	@ (8000640 <main+0x14c>)
 800060a:	781b      	ldrb	r3, [r3, #0]
 800060c:	b2db      	uxtb	r3, r3
 800060e:	2b01      	cmp	r3, #1
 8000610:	d1c2      	bne.n	8000598 <main+0xa4>
 8000612:	4b0b      	ldr	r3, [pc, #44]	@ (8000640 <main+0x14c>)
 8000614:	2200      	movs	r2, #0
 8000616:	701a      	strb	r2, [r3, #0]
 8000618:	f000 fcd8 	bl	8000fcc <readMPU>
	  for (uint8_t angle = 0; angle <= 180; angle += 10)
 800061c:	e7bc      	b.n	8000598 <main+0xa4>
 800061e:	bf00      	nop
 8000620:	20000468 	.word	0x20000468
 8000624:	20000030 	.word	0x20000030
 8000628:	2000012c 	.word	0x2000012c
 800062c:	200001dc 	.word	0x200001dc
 8000630:	2000014c 	.word	0x2000014c
 8000634:	20000194 	.word	0x20000194
 8000638:	20000450 	.word	0x20000450
 800063c:	20000464 	.word	0x20000464
 8000640:	20000458 	.word	0x20000458

08000644 <SystemClock_Config>:
/**
  * @brief System Clock Configuration
  * @retval None
  */
void SystemClock_Config(void)
{
 8000644:	b580      	push	{r7, lr}
 8000646:	b094      	sub	sp, #80	@ 0x50
 8000648:	af00      	add	r7, sp, #0
  RCC_OscInitTypeDef RCC_OscInitStruct = {0};
 800064a:	f107 0320 	add.w	r3, r7, #32
 800064e:	2230      	movs	r2, #48	@ 0x30
 8000650:	2100      	movs	r1, #0
 8000652:	4618      	mov	r0, r3
 8000654:	f006 fb84 	bl	8006d60 <memset>
  RCC_ClkInitTypeDef RCC_ClkInitStruct = {0};
 8000658:	f107 030c 	add.w	r3, r7, #12
 800065c:	2200      	movs	r2, #0
 800065e:	601a      	str	r2, [r3, #0]
 8000660:	605a      	str	r2, [r3, #4]
 8000662:	609a      	str	r2, [r3, #8]
 8000664:	60da      	str	r2, [r3, #12]
 8000666:	611a      	str	r2, [r3, #16]

  /** Configure the main internal regulator output voltage
  */
  __HAL_RCC_PWR_CLK_ENABLE();
 8000668:	2300      	movs	r3, #0
 800066a:	60bb      	str	r3, [r7, #8]
 800066c:	4b29      	ldr	r3, [pc, #164]	@ (8000714 <SystemClock_Config+0xd0>)
 800066e:	6c1b      	ldr	r3, [r3, #64]	@ 0x40
 8000670:	4a28      	ldr	r2, [pc, #160]	@ (8000714 <SystemClock_Config+0xd0>)
 8000672:	f043 5380 	orr.w	r3, r3, #268435456	@ 0x10000000
 8000676:	6413      	str	r3, [r2, #64]	@ 0x40
 8000678:	4b26      	ldr	r3, [pc, #152]	@ (8000714 <SystemClock_Config+0xd0>)
 800067a:	6c1b      	ldr	r3, [r3, #64]	@ 0x40
 800067c:	f003 5380 	and.w	r3, r3, #268435456	@ 0x10000000
 8000680:	60bb      	str	r3, [r7, #8]
 8000682:	68bb      	ldr	r3, [r7, #8]
  __HAL_PWR_VOLTAGESCALING_CONFIG(PWR_REGULATOR_VOLTAGE_SCALE1);
 8000684:	2300      	movs	r3, #0
 8000686:	607b      	str	r3, [r7, #4]
 8000688:	4b23      	ldr	r3, [pc, #140]	@ (8000718 <SystemClock_Config+0xd4>)
 800068a:	681b      	ldr	r3, [r3, #0]
 800068c:	4a22      	ldr	r2, [pc, #136]	@ (8000718 <SystemClock_Config+0xd4>)
 800068e:	f443 4380 	orr.w	r3, r3, #16384	@ 0x4000
 8000692:	6013      	str	r3, [r2, #0]
 8000694:	4b20      	ldr	r3, [pc, #128]	@ (8000718 <SystemClock_Config+0xd4>)
 8000696:	681b      	ldr	r3, [r3, #0]
 8000698:	f403 4380 	and.w	r3, r3, #16384	@ 0x4000
 800069c:	607b      	str	r3, [r7, #4]
 800069e:	687b      	ldr	r3, [r7, #4]

  /** Initializes the RCC Oscillators according to the specified parameters
  * in the RCC_OscInitTypeDef structure.
  */
  RCC_OscInitStruct.OscillatorType = RCC_OSCILLATORTYPE_HSE|RCC_OSCILLATORTYPE_LSE;
 80006a0:	2305      	movs	r3, #5
 80006a2:	623b      	str	r3, [r7, #32]
  RCC_OscInitStruct.HSEState = RCC_HSE_ON;
 80006a4:	f44f 3380 	mov.w	r3, #65536	@ 0x10000
 80006a8:	627b      	str	r3, [r7, #36]	@ 0x24
  RCC_OscInitStruct.LSEState = RCC_LSE_ON;
 80006aa:	2301      	movs	r3, #1
 80006ac:	62bb      	str	r3, [r7, #40]	@ 0x28
  RCC_OscInitStruct.PLL.PLLState = RCC_PLL_ON;
 80006ae:	2302      	movs	r3, #2
 80006b0:	63bb      	str	r3, [r7, #56]	@ 0x38
  RCC_OscInitStruct.PLL.PLLSource = RCC_PLLSOURCE_HSE;
 80006b2:	f44f 0380 	mov.w	r3, #4194304	@ 0x400000
 80006b6:	63fb      	str	r3, [r7, #60]	@ 0x3c
  RCC_OscInitStruct.PLL.PLLM = 4;
 80006b8:	2304      	movs	r3, #4
 80006ba:	643b      	str	r3, [r7, #64]	@ 0x40
  RCC_OscInitStruct.PLL.PLLN = 168;
 80006bc:	23a8      	movs	r3, #168	@ 0xa8
 80006be:	647b      	str	r3, [r7, #68]	@ 0x44
  RCC_OscInitStruct.PLL.PLLP = RCC_PLLP_DIV2;
 80006c0:	2302      	movs	r3, #2
 80006c2:	64bb      	str	r3, [r7, #72]	@ 0x48
  RCC_OscInitStruct.PLL.PLLQ = 4;
 80006c4:	2304      	movs	r3, #4
 80006c6:	64fb      	str	r3, [r7, #76]	@ 0x4c
  if (HAL_RCC_OscConfig(&RCC_OscInitStruct) != HAL_OK)
 80006c8:	f107 0320 	add.w	r3, r7, #32
 80006cc:	4618      	mov	r0, r3
 80006ce:	f003 ff67 	bl	80045a0 <HAL_RCC_OscConfig>
 80006d2:	4603      	mov	r3, r0
 80006d4:	2b00      	cmp	r3, #0
 80006d6:	d001      	beq.n	80006dc <SystemClock_Config+0x98>
  {
    Error_Handler();
 80006d8:	f000 fed6 	bl	8001488 <Error_Handler>
  }

  /** Initializes the CPU, AHB and APB buses clocks
  */
  RCC_ClkInitStruct.ClockType = RCC_CLOCKTYPE_HCLK|RCC_CLOCKTYPE_SYSCLK
 80006dc:	230f      	movs	r3, #15
 80006de:	60fb      	str	r3, [r7, #12]
                              |RCC_CLOCKTYPE_PCLK1|RCC_CLOCKTYPE_PCLK2;
  RCC_ClkInitStruct.SYSCLKSource = RCC_SYSCLKSOURCE_PLLCLK;
 80006e0:	2302      	movs	r3, #2
 80006e2:	613b      	str	r3, [r7, #16]
  RCC_ClkInitStruct.AHBCLKDivider = RCC_SYSCLK_DIV1;
 80006e4:	2300      	movs	r3, #0
 80006e6:	617b      	str	r3, [r7, #20]
  RCC_ClkInitStruct.APB1CLKDivider = RCC_HCLK_DIV4;
 80006e8:	f44f 53a0 	mov.w	r3, #5120	@ 0x1400
 80006ec:	61bb      	str	r3, [r7, #24]
  RCC_ClkInitStruct.APB2CLKDivider = RCC_HCLK_DIV2;
 80006ee:	f44f 5380 	mov.w	r3, #4096	@ 0x1000
 80006f2:	61fb      	str	r3, [r7, #28]

  if (HAL_RCC_ClockConfig(&RCC_ClkInitStruct, FLASH_LATENCY_5) != HAL_OK)
 80006f4:	f107 030c 	add.w	r3, r7, #12
 80006f8:	2105      	movs	r1, #5
 80006fa:	4618      	mov	r0, r3
 80006fc:	f004 f9c8 	bl	8004a90 <HAL_RCC_ClockConfig>
 8000700:	4603      	mov	r3, r0
 8000702:	2b00      	cmp	r3, #0
 8000704:	d001      	beq.n	800070a <SystemClock_Config+0xc6>
  {
    Error_Handler();
 8000706:	f000 febf 	bl	8001488 <Error_Handler>
  }
}
 800070a:	bf00      	nop
 800070c:	3750      	adds	r7, #80	@ 0x50
 800070e:	46bd      	mov	sp, r7
 8000710:	bd80      	pop	{r7, pc}
 8000712:	bf00      	nop
 8000714:	40023800 	.word	0x40023800
 8000718:	40007000 	.word	0x40007000

0800071c <MX_ADC1_Init>:
  * @brief ADC1 Initialization Function
  * @param None
  * @retval None
  */
static void MX_ADC1_Init(void)
{
 800071c:	b580      	push	{r7, lr}
 800071e:	b084      	sub	sp, #16
 8000720:	af00      	add	r7, sp, #0

  /* USER CODE BEGIN ADC1_Init 0 */

  /* USER CODE END ADC1_Init 0 */

  ADC_ChannelConfTypeDef sConfig = {0};
 8000722:	463b      	mov	r3, r7
 8000724:	2200      	movs	r2, #0
 8000726:	601a      	str	r2, [r3, #0]
 8000728:	605a      	str	r2, [r3, #4]
 800072a:	609a      	str	r2, [r3, #8]
 800072c:	60da      	str	r2, [r3, #12]

  /* USER CODE END ADC1_Init 1 */

  /** Configure the global features of the ADC (Clock, Resolution, Data Alignment and number of conversion)
  */
  hadc1.Instance = ADC1;
 800072e:	4b21      	ldr	r3, [pc, #132]	@ (80007b4 <MX_ADC1_Init+0x98>)
 8000730:	4a21      	ldr	r2, [pc, #132]	@ (80007b8 <MX_ADC1_Init+0x9c>)
 8000732:	601a      	str	r2, [r3, #0]
  hadc1.Init.ClockPrescaler = ADC_CLOCK_SYNC_PCLK_DIV4;
 8000734:	4b1f      	ldr	r3, [pc, #124]	@ (80007b4 <MX_ADC1_Init+0x98>)
 8000736:	f44f 3280 	mov.w	r2, #65536	@ 0x10000
 800073a:	605a      	str	r2, [r3, #4]
  hadc1.Init.Resolution = ADC_RESOLUTION_12B;
 800073c:	4b1d      	ldr	r3, [pc, #116]	@ (80007b4 <MX_ADC1_Init+0x98>)
 800073e:	2200      	movs	r2, #0
 8000740:	609a      	str	r2, [r3, #8]
  hadc1.Init.ScanConvMode = DISABLE;
 8000742:	4b1c      	ldr	r3, [pc, #112]	@ (80007b4 <MX_ADC1_Init+0x98>)
 8000744:	2200      	movs	r2, #0
 8000746:	611a      	str	r2, [r3, #16]
  hadc1.Init.ContinuousConvMode = ENABLE;
 8000748:	4b1a      	ldr	r3, [pc, #104]	@ (80007b4 <MX_ADC1_Init+0x98>)
 800074a:	2201      	movs	r2, #1
 800074c:	761a      	strb	r2, [r3, #24]
  hadc1.Init.DiscontinuousConvMode = DISABLE;
 800074e:	4b19      	ldr	r3, [pc, #100]	@ (80007b4 <MX_ADC1_Init+0x98>)
 8000750:	2200      	movs	r2, #0
 8000752:	f883 2020 	strb.w	r2, [r3, #32]
  hadc1.Init.ExternalTrigConvEdge = ADC_EXTERNALTRIGCONVEDGE_NONE;
 8000756:	4b17      	ldr	r3, [pc, #92]	@ (80007b4 <MX_ADC1_Init+0x98>)
 8000758:	2200      	movs	r2, #0
 800075a:	62da      	str	r2, [r3, #44]	@ 0x2c
  hadc1.Init.ExternalTrigConv = ADC_SOFTWARE_START;
 800075c:	4b15      	ldr	r3, [pc, #84]	@ (80007b4 <MX_ADC1_Init+0x98>)
 800075e:	4a17      	ldr	r2, [pc, #92]	@ (80007bc <MX_ADC1_Init+0xa0>)
 8000760:	629a      	str	r2, [r3, #40]	@ 0x28
  hadc1.Init.DataAlign = ADC_DATAALIGN_RIGHT;
 8000762:	4b14      	ldr	r3, [pc, #80]	@ (80007b4 <MX_ADC1_Init+0x98>)
 8000764:	2200      	movs	r2, #0
 8000766:	60da      	str	r2, [r3, #12]
  hadc1.Init.NbrOfConversion = 1;
 8000768:	4b12      	ldr	r3, [pc, #72]	@ (80007b4 <MX_ADC1_Init+0x98>)
 800076a:	2201      	movs	r2, #1
 800076c:	61da      	str	r2, [r3, #28]
  hadc1.Init.DMAContinuousRequests = ENABLE;
 800076e:	4b11      	ldr	r3, [pc, #68]	@ (80007b4 <MX_ADC1_Init+0x98>)
 8000770:	2201      	movs	r2, #1
 8000772:	f883 2030 	strb.w	r2, [r3, #48]	@ 0x30
  hadc1.Init.EOCSelection = ADC_EOC_SINGLE_CONV;
 8000776:	4b0f      	ldr	r3, [pc, #60]	@ (80007b4 <MX_ADC1_Init+0x98>)
 8000778:	2201      	movs	r2, #1
 800077a:	615a      	str	r2, [r3, #20]
  if (HAL_ADC_Init(&hadc1) != HAL_OK)
 800077c:	480d      	ldr	r0, [pc, #52]	@ (80007b4 <MX_ADC1_Init+0x98>)
 800077e:	f001 fc8f 	bl	80020a0 <HAL_ADC_Init>
 8000782:	4603      	mov	r3, r0
 8000784:	2b00      	cmp	r3, #0
 8000786:	d001      	beq.n	800078c <MX_ADC1_Init+0x70>
  {
    Error_Handler();
 8000788:	f000 fe7e 	bl	8001488 <Error_Handler>
  }

  /** Configure for the selected ADC regular channel its corresponding rank in the sequencer and its sample time.
  */
  sConfig.Channel = ADC_CHANNEL_6;
 800078c:	2306      	movs	r3, #6
 800078e:	603b      	str	r3, [r7, #0]
  sConfig.Rank = 1;
 8000790:	2301      	movs	r3, #1
 8000792:	607b      	str	r3, [r7, #4]
  sConfig.SamplingTime = ADC_SAMPLETIME_144CYCLES;
 8000794:	2306      	movs	r3, #6
 8000796:	60bb      	str	r3, [r7, #8]
  if (HAL_ADC_ConfigChannel(&hadc1, &sConfig) != HAL_OK)
 8000798:	463b      	mov	r3, r7
 800079a:	4619      	mov	r1, r3
 800079c:	4805      	ldr	r0, [pc, #20]	@ (80007b4 <MX_ADC1_Init+0x98>)
 800079e:	f001 fdeb 	bl	8002378 <HAL_ADC_ConfigChannel>
 80007a2:	4603      	mov	r3, r0
 80007a4:	2b00      	cmp	r3, #0
 80007a6:	d001      	beq.n	80007ac <MX_ADC1_Init+0x90>
  {
    Error_Handler();
 80007a8:	f000 fe6e 	bl	8001488 <Error_Handler>
  }
  /* USER CODE BEGIN ADC1_Init 2 */

  /* USER CODE END ADC1_Init 2 */

}
 80007ac:	bf00      	nop
 80007ae:	3710      	adds	r7, #16
 80007b0:	46bd      	mov	sp, r7
 80007b2:	bd80      	pop	{r7, pc}
 80007b4:	20000030 	.word	0x20000030
 80007b8:	40012000 	.word	0x40012000
 80007bc:	0f000001 	.word	0x0f000001

080007c0 <MX_I2C1_Init>:
  * @brief I2C1 Initialization Function
  * @param None
  * @retval None
  */
static void MX_I2C1_Init(void)
{
 80007c0:	b580      	push	{r7, lr}
 80007c2:	af00      	add	r7, sp, #0
  /* USER CODE END I2C1_Init 0 */

  /* USER CODE BEGIN I2C1_Init 1 */

  /* USER CODE END I2C1_Init 1 */
  hi2c1.Instance = I2C1;
 80007c4:	4b12      	ldr	r3, [pc, #72]	@ (8000810 <MX_I2C1_Init+0x50>)
 80007c6:	4a13      	ldr	r2, [pc, #76]	@ (8000814 <MX_I2C1_Init+0x54>)
 80007c8:	601a      	str	r2, [r3, #0]
  hi2c1.Init.ClockSpeed = 100000;
 80007ca:	4b11      	ldr	r3, [pc, #68]	@ (8000810 <MX_I2C1_Init+0x50>)
 80007cc:	4a12      	ldr	r2, [pc, #72]	@ (8000818 <MX_I2C1_Init+0x58>)
 80007ce:	605a      	str	r2, [r3, #4]
  hi2c1.Init.DutyCycle = I2C_DUTYCYCLE_2;
 80007d0:	4b0f      	ldr	r3, [pc, #60]	@ (8000810 <MX_I2C1_Init+0x50>)
 80007d2:	2200      	movs	r2, #0
 80007d4:	609a      	str	r2, [r3, #8]
  hi2c1.Init.OwnAddress1 = 0;
 80007d6:	4b0e      	ldr	r3, [pc, #56]	@ (8000810 <MX_I2C1_Init+0x50>)
 80007d8:	2200      	movs	r2, #0
 80007da:	60da      	str	r2, [r3, #12]
  hi2c1.Init.AddressingMode = I2C_ADDRESSINGMODE_7BIT;
 80007dc:	4b0c      	ldr	r3, [pc, #48]	@ (8000810 <MX_I2C1_Init+0x50>)
 80007de:	f44f 4280 	mov.w	r2, #16384	@ 0x4000
 80007e2:	611a      	str	r2, [r3, #16]
  hi2c1.Init.DualAddressMode = I2C_DUALADDRESS_DISABLE;
 80007e4:	4b0a      	ldr	r3, [pc, #40]	@ (8000810 <MX_I2C1_Init+0x50>)
 80007e6:	2200      	movs	r2, #0
 80007e8:	615a      	str	r2, [r3, #20]
  hi2c1.Init.OwnAddress2 = 0;
 80007ea:	4b09      	ldr	r3, [pc, #36]	@ (8000810 <MX_I2C1_Init+0x50>)
 80007ec:	2200      	movs	r2, #0
 80007ee:	619a      	str	r2, [r3, #24]
  hi2c1.Init.GeneralCallMode = I2C_GENERALCALL_DISABLE;
 80007f0:	4b07      	ldr	r3, [pc, #28]	@ (8000810 <MX_I2C1_Init+0x50>)
 80007f2:	2200      	movs	r2, #0
 80007f4:	61da      	str	r2, [r3, #28]
  hi2c1.Init.NoStretchMode = I2C_NOSTRETCH_DISABLE;
 80007f6:	4b06      	ldr	r3, [pc, #24]	@ (8000810 <MX_I2C1_Init+0x50>)
 80007f8:	2200      	movs	r2, #0
 80007fa:	621a      	str	r2, [r3, #32]
  if (HAL_I2C_Init(&hi2c1) != HAL_OK)
 80007fc:	4804      	ldr	r0, [pc, #16]	@ (8000810 <MX_I2C1_Init+0x50>)
 80007fe:	f002 feab 	bl	8003558 <HAL_I2C_Init>
 8000802:	4603      	mov	r3, r0
 8000804:	2b00      	cmp	r3, #0
 8000806:	d001      	beq.n	800080c <MX_I2C1_Init+0x4c>
  {
    Error_Handler();
 8000808:	f000 fe3e 	bl	8001488 <Error_Handler>
  }
  /* USER CODE BEGIN I2C1_Init 2 */

  /* USER CODE END I2C1_Init 2 */

}
 800080c:	bf00      	nop
 800080e:	bd80      	pop	{r7, pc}
 8000810:	200000d8 	.word	0x200000d8
 8000814:	40005400 	.word	0x40005400
 8000818:	000186a0 	.word	0x000186a0

0800081c <MX_RTC_Init>:
  * @brief RTC Initialization Function
  * @param None
  * @retval None
  */
static void MX_RTC_Init(void)
{
 800081c:	b580      	push	{r7, lr}
 800081e:	b086      	sub	sp, #24
 8000820:	af00      	add	r7, sp, #0

  /* USER CODE BEGIN RTC_Init 0 */

  /* USER CODE END RTC_Init 0 */

  RTC_TimeTypeDef sTime = {0};
 8000822:	1d3b      	adds	r3, r7, #4
 8000824:	2200      	movs	r2, #0
 8000826:	601a      	str	r2, [r3, #0]
 8000828:	605a      	str	r2, [r3, #4]
 800082a:	609a      	str	r2, [r3, #8]
 800082c:	60da      	str	r2, [r3, #12]
 800082e:	611a      	str	r2, [r3, #16]
  RTC_DateTypeDef sDate = {0};
 8000830:	2300      	movs	r3, #0
 8000832:	603b      	str	r3, [r7, #0]

  /* USER CODE END RTC_Init 1 */

  /** Initialize RTC Only
  */
  hrtc.Instance = RTC;
 8000834:	4b29      	ldr	r3, [pc, #164]	@ (80008dc <MX_RTC_Init+0xc0>)
 8000836:	4a2a      	ldr	r2, [pc, #168]	@ (80008e0 <MX_RTC_Init+0xc4>)
 8000838:	601a      	str	r2, [r3, #0]
  hrtc.Init.HourFormat = RTC_HOURFORMAT_24;
 800083a:	4b28      	ldr	r3, [pc, #160]	@ (80008dc <MX_RTC_Init+0xc0>)
 800083c:	2200      	movs	r2, #0
 800083e:	605a      	str	r2, [r3, #4]
  hrtc.Init.AsynchPrediv = 127;
 8000840:	4b26      	ldr	r3, [pc, #152]	@ (80008dc <MX_RTC_Init+0xc0>)
 8000842:	227f      	movs	r2, #127	@ 0x7f
 8000844:	609a      	str	r2, [r3, #8]
  hrtc.Init.SynchPrediv = 255;
 8000846:	4b25      	ldr	r3, [pc, #148]	@ (80008dc <MX_RTC_Init+0xc0>)
 8000848:	22ff      	movs	r2, #255	@ 0xff
 800084a:	60da      	str	r2, [r3, #12]
  hrtc.Init.OutPut = RTC_OUTPUT_DISABLE;
 800084c:	4b23      	ldr	r3, [pc, #140]	@ (80008dc <MX_RTC_Init+0xc0>)
 800084e:	2200      	movs	r2, #0
 8000850:	611a      	str	r2, [r3, #16]
  hrtc.Init.OutPutPolarity = RTC_OUTPUT_POLARITY_HIGH;
 8000852:	4b22      	ldr	r3, [pc, #136]	@ (80008dc <MX_RTC_Init+0xc0>)
 8000854:	2200      	movs	r2, #0
 8000856:	615a      	str	r2, [r3, #20]
  hrtc.Init.OutPutType = RTC_OUTPUT_TYPE_OPENDRAIN;
 8000858:	4b20      	ldr	r3, [pc, #128]	@ (80008dc <MX_RTC_Init+0xc0>)
 800085a:	2200      	movs	r2, #0
 800085c:	619a      	str	r2, [r3, #24]
  if (HAL_RTC_Init(&hrtc) != HAL_OK)
 800085e:	481f      	ldr	r0, [pc, #124]	@ (80008dc <MX_RTC_Init+0xc0>)
 8000860:	f004 fc18 	bl	8005094 <HAL_RTC_Init>
 8000864:	4603      	mov	r3, r0
 8000866:	2b00      	cmp	r3, #0
 8000868:	d001      	beq.n	800086e <MX_RTC_Init+0x52>
  {
    Error_Handler();
 800086a:	f000 fe0d 	bl	8001488 <Error_Handler>

  /* USER CODE END Check_RTC_BKUP */

  /** Initialize RTC and set the Time and Date
  */
  sTime.Hours = 0x0;
 800086e:	2300      	movs	r3, #0
 8000870:	713b      	strb	r3, [r7, #4]
  sTime.Minutes = 0x0;
 8000872:	2300      	movs	r3, #0
 8000874:	717b      	strb	r3, [r7, #5]
  sTime.Seconds = 0x0;
 8000876:	2300      	movs	r3, #0
 8000878:	71bb      	strb	r3, [r7, #6]
  sTime.DayLightSaving = RTC_DAYLIGHTSAVING_NONE;
 800087a:	2300      	movs	r3, #0
 800087c:	613b      	str	r3, [r7, #16]
  sTime.StoreOperation = RTC_STOREOPERATION_RESET;
 800087e:	2300      	movs	r3, #0
 8000880:	617b      	str	r3, [r7, #20]
  if (HAL_RTC_SetTime(&hrtc, &sTime, RTC_FORMAT_BCD) != HAL_OK)
 8000882:	1d3b      	adds	r3, r7, #4
 8000884:	2201      	movs	r2, #1
 8000886:	4619      	mov	r1, r3
 8000888:	4814      	ldr	r0, [pc, #80]	@ (80008dc <MX_RTC_Init+0xc0>)
 800088a:	f004 fc84 	bl	8005196 <HAL_RTC_SetTime>
 800088e:	4603      	mov	r3, r0
 8000890:	2b00      	cmp	r3, #0
 8000892:	d001      	beq.n	8000898 <MX_RTC_Init+0x7c>
  {
    Error_Handler();
 8000894:	f000 fdf8 	bl	8001488 <Error_Handler>
  }
  sDate.WeekDay = RTC_WEEKDAY_MONDAY;
 8000898:	2301      	movs	r3, #1
 800089a:	703b      	strb	r3, [r7, #0]
  sDate.Month = RTC_MONTH_JANUARY;
 800089c:	2301      	movs	r3, #1
 800089e:	707b      	strb	r3, [r7, #1]
  sDate.Date = 0x1;
 80008a0:	2301      	movs	r3, #1
 80008a2:	70bb      	strb	r3, [r7, #2]
  sDate.Year = 0x0;
 80008a4:	2300      	movs	r3, #0
 80008a6:	70fb      	strb	r3, [r7, #3]

  if (HAL_RTC_SetDate(&hrtc, &sDate, RTC_FORMAT_BCD) != HAL_OK)
 80008a8:	463b      	mov	r3, r7
 80008aa:	2201      	movs	r2, #1
 80008ac:	4619      	mov	r1, r3
 80008ae:	480b      	ldr	r0, [pc, #44]	@ (80008dc <MX_RTC_Init+0xc0>)
 80008b0:	f004 fd0b 	bl	80052ca <HAL_RTC_SetDate>
 80008b4:	4603      	mov	r3, r0
 80008b6:	2b00      	cmp	r3, #0
 80008b8:	d001      	beq.n	80008be <MX_RTC_Init+0xa2>
  {
    Error_Handler();
 80008ba:	f000 fde5 	bl	8001488 <Error_Handler>
  }

  /** Enable the WakeUp
  */
  if (HAL_RTCEx_SetWakeUpTimer_IT(&hrtc, 10240, RTC_WAKEUPCLOCK_RTCCLK_DIV16) != HAL_OK)
 80008be:	2200      	movs	r2, #0
 80008c0:	f44f 5120 	mov.w	r1, #10240	@ 0x2800
 80008c4:	4805      	ldr	r0, [pc, #20]	@ (80008dc <MX_RTC_Init+0xc0>)
 80008c6:	f004 fe25 	bl	8005514 <HAL_RTCEx_SetWakeUpTimer_IT>
 80008ca:	4603      	mov	r3, r0
 80008cc:	2b00      	cmp	r3, #0
 80008ce:	d001      	beq.n	80008d4 <MX_RTC_Init+0xb8>
  {
    Error_Handler();
 80008d0:	f000 fdda 	bl	8001488 <Error_Handler>
  }
  /* USER CODE BEGIN RTC_Init 2 */

  /* USER CODE END RTC_Init 2 */

}
 80008d4:	bf00      	nop
 80008d6:	3718      	adds	r7, #24
 80008d8:	46bd      	mov	sp, r7
 80008da:	bd80      	pop	{r7, pc}
 80008dc:	2000012c 	.word	0x2000012c
 80008e0:	40002800 	.word	0x40002800

080008e4 <MX_TIM1_Init>:
  * @brief TIM1 Initialization Function
  * @param None
  * @retval None
  */
static void MX_TIM1_Init(void)
{
 80008e4:	b580      	push	{r7, lr}
 80008e6:	b096      	sub	sp, #88	@ 0x58
 80008e8:	af00      	add	r7, sp, #0

  /* USER CODE BEGIN TIM1_Init 0 */

  /* USER CODE END TIM1_Init 0 */

  TIM_ClockConfigTypeDef sClockSourceConfig = {0};
 80008ea:	f107 0348 	add.w	r3, r7, #72	@ 0x48
 80008ee:	2200      	movs	r2, #0
 80008f0:	601a      	str	r2, [r3, #0]
 80008f2:	605a      	str	r2, [r3, #4]
 80008f4:	609a      	str	r2, [r3, #8]
 80008f6:	60da      	str	r2, [r3, #12]
  TIM_MasterConfigTypeDef sMasterConfig = {0};
 80008f8:	f107 0340 	add.w	r3, r7, #64	@ 0x40
 80008fc:	2200      	movs	r2, #0
 80008fe:	601a      	str	r2, [r3, #0]
 8000900:	605a      	str	r2, [r3, #4]
  TIM_OC_InitTypeDef sConfigOC = {0};
 8000902:	f107 0324 	add.w	r3, r7, #36	@ 0x24
 8000906:	2200      	movs	r2, #0
 8000908:	601a      	str	r2, [r3, #0]
 800090a:	605a      	str	r2, [r3, #4]
 800090c:	609a      	str	r2, [r3, #8]
 800090e:	60da      	str	r2, [r3, #12]
 8000910:	611a      	str	r2, [r3, #16]
 8000912:	615a      	str	r2, [r3, #20]
 8000914:	619a      	str	r2, [r3, #24]
  TIM_BreakDeadTimeConfigTypeDef sBreakDeadTimeConfig = {0};
 8000916:	1d3b      	adds	r3, r7, #4
 8000918:	2220      	movs	r2, #32
 800091a:	2100      	movs	r1, #0
 800091c:	4618      	mov	r0, r3
 800091e:	f006 fa1f 	bl	8006d60 <memset>

  /* USER CODE BEGIN TIM1_Init 1 */

  /* USER CODE END TIM1_Init 1 */
  htim1.Instance = TIM1;
 8000922:	4b44      	ldr	r3, [pc, #272]	@ (8000a34 <MX_TIM1_Init+0x150>)
 8000924:	4a44      	ldr	r2, [pc, #272]	@ (8000a38 <MX_TIM1_Init+0x154>)
 8000926:	601a      	str	r2, [r3, #0]
  htim1.Init.Prescaler = 0;
 8000928:	4b42      	ldr	r3, [pc, #264]	@ (8000a34 <MX_TIM1_Init+0x150>)
 800092a:	2200      	movs	r2, #0
 800092c:	605a      	str	r2, [r3, #4]
  htim1.Init.CounterMode = TIM_COUNTERMODE_UP;
 800092e:	4b41      	ldr	r3, [pc, #260]	@ (8000a34 <MX_TIM1_Init+0x150>)
 8000930:	2200      	movs	r2, #0
 8000932:	609a      	str	r2, [r3, #8]
  htim1.Init.Period = 8399;
 8000934:	4b3f      	ldr	r3, [pc, #252]	@ (8000a34 <MX_TIM1_Init+0x150>)
 8000936:	f242 02cf 	movw	r2, #8399	@ 0x20cf
 800093a:	60da      	str	r2, [r3, #12]
  htim1.Init.ClockDivision = TIM_CLOCKDIVISION_DIV1;
 800093c:	4b3d      	ldr	r3, [pc, #244]	@ (8000a34 <MX_TIM1_Init+0x150>)
 800093e:	2200      	movs	r2, #0
 8000940:	611a      	str	r2, [r3, #16]
  htim1.Init.RepetitionCounter = 0;
 8000942:	4b3c      	ldr	r3, [pc, #240]	@ (8000a34 <MX_TIM1_Init+0x150>)
 8000944:	2200      	movs	r2, #0
 8000946:	615a      	str	r2, [r3, #20]
  htim1.Init.AutoReloadPreload = TIM_AUTORELOAD_PRELOAD_DISABLE;
 8000948:	4b3a      	ldr	r3, [pc, #232]	@ (8000a34 <MX_TIM1_Init+0x150>)
 800094a:	2200      	movs	r2, #0
 800094c:	619a      	str	r2, [r3, #24]
  if (HAL_TIM_Base_Init(&htim1) != HAL_OK)
 800094e:	4839      	ldr	r0, [pc, #228]	@ (8000a34 <MX_TIM1_Init+0x150>)
 8000950:	f004 fec6 	bl	80056e0 <HAL_TIM_Base_Init>
 8000954:	4603      	mov	r3, r0
 8000956:	2b00      	cmp	r3, #0
 8000958:	d001      	beq.n	800095e <MX_TIM1_Init+0x7a>
  {
    Error_Handler();
 800095a:	f000 fd95 	bl	8001488 <Error_Handler>
  }
  sClockSourceConfig.ClockSource = TIM_CLOCKSOURCE_INTERNAL;
 800095e:	f44f 5380 	mov.w	r3, #4096	@ 0x1000
 8000962:	64bb      	str	r3, [r7, #72]	@ 0x48
  if (HAL_TIM_ConfigClockSource(&htim1, &sClockSourceConfig) != HAL_OK)
 8000964:	f107 0348 	add.w	r3, r7, #72	@ 0x48
 8000968:	4619      	mov	r1, r3
 800096a:	4832      	ldr	r0, [pc, #200]	@ (8000a34 <MX_TIM1_Init+0x150>)
 800096c:	f005 fa4c 	bl	8005e08 <HAL_TIM_ConfigClockSource>
 8000970:	4603      	mov	r3, r0
 8000972:	2b00      	cmp	r3, #0
 8000974:	d001      	beq.n	800097a <MX_TIM1_Init+0x96>
  {
    Error_Handler();
 8000976:	f000 fd87 	bl	8001488 <Error_Handler>
  }
  if (HAL_TIM_PWM_Init(&htim1) != HAL_OK)
 800097a:	482e      	ldr	r0, [pc, #184]	@ (8000a34 <MX_TIM1_Init+0x150>)
 800097c:	f004 ff70 	bl	8005860 <HAL_TIM_PWM_Init>
 8000980:	4603      	mov	r3, r0
 8000982:	2b00      	cmp	r3, #0
 8000984:	d001      	beq.n	800098a <MX_TIM1_Init+0xa6>
  {
    Error_Handler();
 8000986:	f000 fd7f 	bl	8001488 <Error_Handler>
  }
  sMasterConfig.MasterOutputTrigger = TIM_TRGO_RESET;
 800098a:	2300      	movs	r3, #0
 800098c:	643b      	str	r3, [r7, #64]	@ 0x40
  sMasterConfig.MasterSlaveMode = TIM_MASTERSLAVEMODE_DISABLE;
 800098e:	2300      	movs	r3, #0
 8000990:	647b      	str	r3, [r7, #68]	@ 0x44
  if (HAL_TIMEx_MasterConfigSynchronization(&htim1, &sMasterConfig) != HAL_OK)
 8000992:	f107 0340 	add.w	r3, r7, #64	@ 0x40
 8000996:	4619      	mov	r1, r3
 8000998:	4826      	ldr	r0, [pc, #152]	@ (8000a34 <MX_TIM1_Init+0x150>)
 800099a:	f005 fe3b 	bl	8006614 <HAL_TIMEx_MasterConfigSynchronization>
 800099e:	4603      	mov	r3, r0
 80009a0:	2b00      	cmp	r3, #0
 80009a2:	d001      	beq.n	80009a8 <MX_TIM1_Init+0xc4>
  {
    Error_Handler();
 80009a4:	f000 fd70 	bl	8001488 <Error_Handler>
  }
  sConfigOC.OCMode = TIM_OCMODE_PWM1;
 80009a8:	2360      	movs	r3, #96	@ 0x60
 80009aa:	627b      	str	r3, [r7, #36]	@ 0x24
  sConfigOC.Pulse = 0;
 80009ac:	2300      	movs	r3, #0
 80009ae:	62bb      	str	r3, [r7, #40]	@ 0x28
  sConfigOC.OCPolarity = TIM_OCPOLARITY_HIGH;
 80009b0:	2300      	movs	r3, #0
 80009b2:	62fb      	str	r3, [r7, #44]	@ 0x2c
  sConfigOC.OCNPolarity = TIM_OCNPOLARITY_HIGH;
 80009b4:	2300      	movs	r3, #0
 80009b6:	633b      	str	r3, [r7, #48]	@ 0x30
  sConfigOC.OCFastMode = TIM_OCFAST_DISABLE;
 80009b8:	2300      	movs	r3, #0
 80009ba:	637b      	str	r3, [r7, #52]	@ 0x34
  sConfigOC.OCIdleState = TIM_OCIDLESTATE_RESET;
 80009bc:	2300      	movs	r3, #0
 80009be:	63bb      	str	r3, [r7, #56]	@ 0x38
  sConfigOC.OCNIdleState = TIM_OCNIDLESTATE_RESET;
 80009c0:	2300      	movs	r3, #0
 80009c2:	63fb      	str	r3, [r7, #60]	@ 0x3c
  if (HAL_TIM_PWM_ConfigChannel(&htim1, &sConfigOC, TIM_CHANNEL_3) != HAL_OK)
 80009c4:	f107 0324 	add.w	r3, r7, #36	@ 0x24
 80009c8:	2208      	movs	r2, #8
 80009ca:	4619      	mov	r1, r3
 80009cc:	4819      	ldr	r0, [pc, #100]	@ (8000a34 <MX_TIM1_Init+0x150>)
 80009ce:	f005 f959 	bl	8005c84 <HAL_TIM_PWM_ConfigChannel>
 80009d2:	4603      	mov	r3, r0
 80009d4:	2b00      	cmp	r3, #0
 80009d6:	d001      	beq.n	80009dc <MX_TIM1_Init+0xf8>
  {
    Error_Handler();
 80009d8:	f000 fd56 	bl	8001488 <Error_Handler>
  }
  if (HAL_TIM_PWM_ConfigChannel(&htim1, &sConfigOC, TIM_CHANNEL_4) != HAL_OK)
 80009dc:	f107 0324 	add.w	r3, r7, #36	@ 0x24
 80009e0:	220c      	movs	r2, #12
 80009e2:	4619      	mov	r1, r3
 80009e4:	4813      	ldr	r0, [pc, #76]	@ (8000a34 <MX_TIM1_Init+0x150>)
 80009e6:	f005 f94d 	bl	8005c84 <HAL_TIM_PWM_ConfigChannel>
 80009ea:	4603      	mov	r3, r0
 80009ec:	2b00      	cmp	r3, #0
 80009ee:	d001      	beq.n	80009f4 <MX_TIM1_Init+0x110>
  {
    Error_Handler();
 80009f0:	f000 fd4a 	bl	8001488 <Error_Handler>
  }
  sBreakDeadTimeConfig.OffStateRunMode = TIM_OSSR_DISABLE;
 80009f4:	2300      	movs	r3, #0
 80009f6:	607b      	str	r3, [r7, #4]
  sBreakDeadTimeConfig.OffStateIDLEMode = TIM_OSSI_DISABLE;
 80009f8:	2300      	movs	r3, #0
 80009fa:	60bb      	str	r3, [r7, #8]
  sBreakDeadTimeConfig.LockLevel = TIM_LOCKLEVEL_OFF;
 80009fc:	2300      	movs	r3, #0
 80009fe:	60fb      	str	r3, [r7, #12]
  sBreakDeadTimeConfig.DeadTime = 0;
 8000a00:	2300      	movs	r3, #0
 8000a02:	613b      	str	r3, [r7, #16]
  sBreakDeadTimeConfig.BreakState = TIM_BREAK_DISABLE;
 8000a04:	2300      	movs	r3, #0
 8000a06:	617b      	str	r3, [r7, #20]
  sBreakDeadTimeConfig.BreakPolarity = TIM_BREAKPOLARITY_HIGH;
 8000a08:	f44f 5300 	mov.w	r3, #8192	@ 0x2000
 8000a0c:	61bb      	str	r3, [r7, #24]
  sBreakDeadTimeConfig.AutomaticOutput = TIM_AUTOMATICOUTPUT_DISABLE;
 8000a0e:	2300      	movs	r3, #0
 8000a10:	623b      	str	r3, [r7, #32]
  if (HAL_TIMEx_ConfigBreakDeadTime(&htim1, &sBreakDeadTimeConfig) != HAL_OK)
 8000a12:	1d3b      	adds	r3, r7, #4
 8000a14:	4619      	mov	r1, r3
 8000a16:	4807      	ldr	r0, [pc, #28]	@ (8000a34 <MX_TIM1_Init+0x150>)
 8000a18:	f005 fe78 	bl	800670c <HAL_TIMEx_ConfigBreakDeadTime>
 8000a1c:	4603      	mov	r3, r0
 8000a1e:	2b00      	cmp	r3, #0
 8000a20:	d001      	beq.n	8000a26 <MX_TIM1_Init+0x142>
  {
    Error_Handler();
 8000a22:	f000 fd31 	bl	8001488 <Error_Handler>
  }
  /* USER CODE BEGIN TIM1_Init 2 */

  /* USER CODE END TIM1_Init 2 */
  HAL_TIM_MspPostInit(&htim1);
 8000a26:	4803      	ldr	r0, [pc, #12]	@ (8000a34 <MX_TIM1_Init+0x150>)
 8000a28:	f000 ff94 	bl	8001954 <HAL_TIM_MspPostInit>

}
 8000a2c:	bf00      	nop
 8000a2e:	3758      	adds	r7, #88	@ 0x58
 8000a30:	46bd      	mov	sp, r7
 8000a32:	bd80      	pop	{r7, pc}
 8000a34:	2000014c 	.word	0x2000014c
 8000a38:	40010000 	.word	0x40010000

08000a3c <MX_TIM3_Init>:
  * @brief TIM3 Initialization Function
  * @param None
  * @retval None
  */
static void MX_TIM3_Init(void)
{
 8000a3c:	b580      	push	{r7, lr}
 8000a3e:	b08e      	sub	sp, #56	@ 0x38
 8000a40:	af00      	add	r7, sp, #0

  /* USER CODE BEGIN TIM3_Init 0 */

  /* USER CODE END TIM3_Init 0 */

  TIM_ClockConfigTypeDef sClockSourceConfig = {0};
 8000a42:	f107 0328 	add.w	r3, r7, #40	@ 0x28
 8000a46:	2200      	movs	r2, #0
 8000a48:	601a      	str	r2, [r3, #0]
 8000a4a:	605a      	str	r2, [r3, #4]
 8000a4c:	609a      	str	r2, [r3, #8]
 8000a4e:	60da      	str	r2, [r3, #12]
  TIM_MasterConfigTypeDef sMasterConfig = {0};
 8000a50:	f107 0320 	add.w	r3, r7, #32
 8000a54:	2200      	movs	r2, #0
 8000a56:	601a      	str	r2, [r3, #0]
 8000a58:	605a      	str	r2, [r3, #4]
  TIM_OC_InitTypeDef sConfigOC = {0};
 8000a5a:	1d3b      	adds	r3, r7, #4
 8000a5c:	2200      	movs	r2, #0
 8000a5e:	601a      	str	r2, [r3, #0]
 8000a60:	605a      	str	r2, [r3, #4]
 8000a62:	609a      	str	r2, [r3, #8]
 8000a64:	60da      	str	r2, [r3, #12]
 8000a66:	611a      	str	r2, [r3, #16]
 8000a68:	615a      	str	r2, [r3, #20]
 8000a6a:	619a      	str	r2, [r3, #24]

  /* USER CODE BEGIN TIM3_Init 1 */

  /* USER CODE END TIM3_Init 1 */
  htim3.Instance = TIM3;
 8000a6c:	4b32      	ldr	r3, [pc, #200]	@ (8000b38 <MX_TIM3_Init+0xfc>)
 8000a6e:	4a33      	ldr	r2, [pc, #204]	@ (8000b3c <MX_TIM3_Init+0x100>)
 8000a70:	601a      	str	r2, [r3, #0]
  htim3.Init.Prescaler = 168-1;
 8000a72:	4b31      	ldr	r3, [pc, #196]	@ (8000b38 <MX_TIM3_Init+0xfc>)
 8000a74:	22a7      	movs	r2, #167	@ 0xa7
 8000a76:	605a      	str	r2, [r3, #4]
  htim3.Init.CounterMode = TIM_COUNTERMODE_UP;
 8000a78:	4b2f      	ldr	r3, [pc, #188]	@ (8000b38 <MX_TIM3_Init+0xfc>)
 8000a7a:	2200      	movs	r2, #0
 8000a7c:	609a      	str	r2, [r3, #8]
  htim3.Init.Period = 20000-1;
 8000a7e:	4b2e      	ldr	r3, [pc, #184]	@ (8000b38 <MX_TIM3_Init+0xfc>)
 8000a80:	f644 621f 	movw	r2, #19999	@ 0x4e1f
 8000a84:	60da      	str	r2, [r3, #12]
  htim3.Init.ClockDivision = TIM_CLOCKDIVISION_DIV1;
 8000a86:	4b2c      	ldr	r3, [pc, #176]	@ (8000b38 <MX_TIM3_Init+0xfc>)
 8000a88:	2200      	movs	r2, #0
 8000a8a:	611a      	str	r2, [r3, #16]
  htim3.Init.AutoReloadPreload = TIM_AUTORELOAD_PRELOAD_DISABLE;
 8000a8c:	4b2a      	ldr	r3, [pc, #168]	@ (8000b38 <MX_TIM3_Init+0xfc>)
 8000a8e:	2200      	movs	r2, #0
 8000a90:	619a      	str	r2, [r3, #24]
  if (HAL_TIM_Base_Init(&htim3) != HAL_OK)
 8000a92:	4829      	ldr	r0, [pc, #164]	@ (8000b38 <MX_TIM3_Init+0xfc>)
 8000a94:	f004 fe24 	bl	80056e0 <HAL_TIM_Base_Init>
 8000a98:	4603      	mov	r3, r0
 8000a9a:	2b00      	cmp	r3, #0
 8000a9c:	d001      	beq.n	8000aa2 <MX_TIM3_Init+0x66>
  {
    Error_Handler();
 8000a9e:	f000 fcf3 	bl	8001488 <Error_Handler>
  }
  sClockSourceConfig.ClockSource = TIM_CLOCKSOURCE_INTERNAL;
 8000aa2:	f44f 5380 	mov.w	r3, #4096	@ 0x1000
 8000aa6:	62bb      	str	r3, [r7, #40]	@ 0x28
  if (HAL_TIM_ConfigClockSource(&htim3, &sClockSourceConfig) != HAL_OK)
 8000aa8:	f107 0328 	add.w	r3, r7, #40	@ 0x28
 8000aac:	4619      	mov	r1, r3
 8000aae:	4822      	ldr	r0, [pc, #136]	@ (8000b38 <MX_TIM3_Init+0xfc>)
 8000ab0:	f005 f9aa 	bl	8005e08 <HAL_TIM_ConfigClockSource>
 8000ab4:	4603      	mov	r3, r0
 8000ab6:	2b00      	cmp	r3, #0
 8000ab8:	d001      	beq.n	8000abe <MX_TIM3_Init+0x82>
  {
    Error_Handler();
 8000aba:	f000 fce5 	bl	8001488 <Error_Handler>
  }
  if (HAL_TIM_PWM_Init(&htim3) != HAL_OK)
 8000abe:	481e      	ldr	r0, [pc, #120]	@ (8000b38 <MX_TIM3_Init+0xfc>)
 8000ac0:	f004 fece 	bl	8005860 <HAL_TIM_PWM_Init>
 8000ac4:	4603      	mov	r3, r0
 8000ac6:	2b00      	cmp	r3, #0
 8000ac8:	d001      	beq.n	8000ace <MX_TIM3_Init+0x92>
  {
    Error_Handler();
 8000aca:	f000 fcdd 	bl	8001488 <Error_Handler>
  }
  sMasterConfig.MasterOutputTrigger = TIM_TRGO_RESET;
 8000ace:	2300      	movs	r3, #0
 8000ad0:	623b      	str	r3, [r7, #32]
  sMasterConfig.MasterSlaveMode = TIM_MASTERSLAVEMODE_DISABLE;
 8000ad2:	2300      	movs	r3, #0
 8000ad4:	627b      	str	r3, [r7, #36]	@ 0x24
  if (HAL_TIMEx_MasterConfigSynchronization(&htim3, &sMasterConfig) != HAL_OK)
 8000ad6:	f107 0320 	add.w	r3, r7, #32
 8000ada:	4619      	mov	r1, r3
 8000adc:	4816      	ldr	r0, [pc, #88]	@ (8000b38 <MX_TIM3_Init+0xfc>)
 8000ade:	f005 fd99 	bl	8006614 <HAL_TIMEx_MasterConfigSynchronization>
 8000ae2:	4603      	mov	r3, r0
 8000ae4:	2b00      	cmp	r3, #0
 8000ae6:	d001      	beq.n	8000aec <MX_TIM3_Init+0xb0>
  {
    Error_Handler();
 8000ae8:	f000 fcce 	bl	8001488 <Error_Handler>
  }
  sConfigOC.OCMode = TIM_OCMODE_PWM1;
 8000aec:	2360      	movs	r3, #96	@ 0x60
 8000aee:	607b      	str	r3, [r7, #4]
  sConfigOC.Pulse = 0;
 8000af0:	2300      	movs	r3, #0
 8000af2:	60bb      	str	r3, [r7, #8]
  sConfigOC.OCPolarity = TIM_OCPOLARITY_HIGH;
 8000af4:	2300      	movs	r3, #0
 8000af6:	60fb      	str	r3, [r7, #12]
  sConfigOC.OCFastMode = TIM_OCFAST_DISABLE;
 8000af8:	2300      	movs	r3, #0
 8000afa:	617b      	str	r3, [r7, #20]
  if (HAL_TIM_PWM_ConfigChannel(&htim3, &sConfigOC, TIM_CHANNEL_3) != HAL_OK)
 8000afc:	1d3b      	adds	r3, r7, #4
 8000afe:	2208      	movs	r2, #8
 8000b00:	4619      	mov	r1, r3
 8000b02:	480d      	ldr	r0, [pc, #52]	@ (8000b38 <MX_TIM3_Init+0xfc>)
 8000b04:	f005 f8be 	bl	8005c84 <HAL_TIM_PWM_ConfigChannel>
 8000b08:	4603      	mov	r3, r0
 8000b0a:	2b00      	cmp	r3, #0
 8000b0c:	d001      	beq.n	8000b12 <MX_TIM3_Init+0xd6>
  {
    Error_Handler();
 8000b0e:	f000 fcbb 	bl	8001488 <Error_Handler>
  }
  if (HAL_TIM_PWM_ConfigChannel(&htim3, &sConfigOC, TIM_CHANNEL_4) != HAL_OK)
 8000b12:	1d3b      	adds	r3, r7, #4
 8000b14:	220c      	movs	r2, #12
 8000b16:	4619      	mov	r1, r3
 8000b18:	4807      	ldr	r0, [pc, #28]	@ (8000b38 <MX_TIM3_Init+0xfc>)
 8000b1a:	f005 f8b3 	bl	8005c84 <HAL_TIM_PWM_ConfigChannel>
 8000b1e:	4603      	mov	r3, r0
 8000b20:	2b00      	cmp	r3, #0
 8000b22:	d001      	beq.n	8000b28 <MX_TIM3_Init+0xec>
  {
    Error_Handler();
 8000b24:	f000 fcb0 	bl	8001488 <Error_Handler>
  }
  /* USER CODE BEGIN TIM3_Init 2 */

  /* USER CODE END TIM3_Init 2 */
  HAL_TIM_MspPostInit(&htim3);
 8000b28:	4803      	ldr	r0, [pc, #12]	@ (8000b38 <MX_TIM3_Init+0xfc>)
 8000b2a:	f000 ff13 	bl	8001954 <HAL_TIM_MspPostInit>

}
 8000b2e:	bf00      	nop
 8000b30:	3738      	adds	r7, #56	@ 0x38
 8000b32:	46bd      	mov	sp, r7
 8000b34:	bd80      	pop	{r7, pc}
 8000b36:	bf00      	nop
 8000b38:	20000194 	.word	0x20000194
 8000b3c:	40000400 	.word	0x40000400

08000b40 <MX_TIM4_Init>:
  * @brief TIM4 Initialization Function
  * @param None
  * @retval None
  */
static void MX_TIM4_Init(void)
{
 8000b40:	b580      	push	{r7, lr}
 8000b42:	b086      	sub	sp, #24
 8000b44:	af00      	add	r7, sp, #0

  /* USER CODE BEGIN TIM4_Init 0 */

  /* USER CODE END TIM4_Init 0 */

  TIM_ClockConfigTypeDef sClockSourceConfig = {0};
 8000b46:	f107 0308 	add.w	r3, r7, #8
 8000b4a:	2200      	movs	r2, #0
 8000b4c:	601a      	str	r2, [r3, #0]
 8000b4e:	605a      	str	r2, [r3, #4]
 8000b50:	609a      	str	r2, [r3, #8]
 8000b52:	60da      	str	r2, [r3, #12]
  TIM_MasterConfigTypeDef sMasterConfig = {0};
 8000b54:	463b      	mov	r3, r7
 8000b56:	2200      	movs	r2, #0
 8000b58:	601a      	str	r2, [r3, #0]
 8000b5a:	605a      	str	r2, [r3, #4]

  /* USER CODE BEGIN TIM4_Init 1 */

  /* USER CODE END TIM4_Init 1 */
  htim4.Instance = TIM4;
 8000b5c:	4b1d      	ldr	r3, [pc, #116]	@ (8000bd4 <MX_TIM4_Init+0x94>)
 8000b5e:	4a1e      	ldr	r2, [pc, #120]	@ (8000bd8 <MX_TIM4_Init+0x98>)
 8000b60:	601a      	str	r2, [r3, #0]
  htim4.Init.Prescaler = 168-1;
 8000b62:	4b1c      	ldr	r3, [pc, #112]	@ (8000bd4 <MX_TIM4_Init+0x94>)
 8000b64:	22a7      	movs	r2, #167	@ 0xa7
 8000b66:	605a      	str	r2, [r3, #4]
  htim4.Init.CounterMode = TIM_COUNTERMODE_UP;
 8000b68:	4b1a      	ldr	r3, [pc, #104]	@ (8000bd4 <MX_TIM4_Init+0x94>)
 8000b6a:	2200      	movs	r2, #0
 8000b6c:	609a      	str	r2, [r3, #8]
  htim4.Init.Period = 5000;
 8000b6e:	4b19      	ldr	r3, [pc, #100]	@ (8000bd4 <MX_TIM4_Init+0x94>)
 8000b70:	f241 3288 	movw	r2, #5000	@ 0x1388
 8000b74:	60da      	str	r2, [r3, #12]
  htim4.Init.ClockDivision = TIM_CLOCKDIVISION_DIV1;
 8000b76:	4b17      	ldr	r3, [pc, #92]	@ (8000bd4 <MX_TIM4_Init+0x94>)
 8000b78:	2200      	movs	r2, #0
 8000b7a:	611a      	str	r2, [r3, #16]
  htim4.Init.AutoReloadPreload = TIM_AUTORELOAD_PRELOAD_DISABLE;
 8000b7c:	4b15      	ldr	r3, [pc, #84]	@ (8000bd4 <MX_TIM4_Init+0x94>)
 8000b7e:	2200      	movs	r2, #0
 8000b80:	619a      	str	r2, [r3, #24]
  if (HAL_TIM_Base_Init(&htim4) != HAL_OK)
 8000b82:	4814      	ldr	r0, [pc, #80]	@ (8000bd4 <MX_TIM4_Init+0x94>)
 8000b84:	f004 fdac 	bl	80056e0 <HAL_TIM_Base_Init>
 8000b88:	4603      	mov	r3, r0
 8000b8a:	2b00      	cmp	r3, #0
 8000b8c:	d001      	beq.n	8000b92 <MX_TIM4_Init+0x52>
  {
    Error_Handler();
 8000b8e:	f000 fc7b 	bl	8001488 <Error_Handler>
  }
  sClockSourceConfig.ClockSource = TIM_CLOCKSOURCE_INTERNAL;
 8000b92:	f44f 5380 	mov.w	r3, #4096	@ 0x1000
 8000b96:	60bb      	str	r3, [r7, #8]
  if (HAL_TIM_ConfigClockSource(&htim4, &sClockSourceConfig) != HAL_OK)
 8000b98:	f107 0308 	add.w	r3, r7, #8
 8000b9c:	4619      	mov	r1, r3
 8000b9e:	480d      	ldr	r0, [pc, #52]	@ (8000bd4 <MX_TIM4_Init+0x94>)
 8000ba0:	f005 f932 	bl	8005e08 <HAL_TIM_ConfigClockSource>
 8000ba4:	4603      	mov	r3, r0
 8000ba6:	2b00      	cmp	r3, #0
 8000ba8:	d001      	beq.n	8000bae <MX_TIM4_Init+0x6e>
  {
    Error_Handler();
 8000baa:	f000 fc6d 	bl	8001488 <Error_Handler>
  }
  sMasterConfig.MasterOutputTrigger = TIM_TRGO_RESET;
 8000bae:	2300      	movs	r3, #0
 8000bb0:	603b      	str	r3, [r7, #0]
  sMasterConfig.MasterSlaveMode = TIM_MASTERSLAVEMODE_DISABLE;
 8000bb2:	2300      	movs	r3, #0
 8000bb4:	607b      	str	r3, [r7, #4]
  if (HAL_TIMEx_MasterConfigSynchronization(&htim4, &sMasterConfig) != HAL_OK)
 8000bb6:	463b      	mov	r3, r7
 8000bb8:	4619      	mov	r1, r3
 8000bba:	4806      	ldr	r0, [pc, #24]	@ (8000bd4 <MX_TIM4_Init+0x94>)
 8000bbc:	f005 fd2a 	bl	8006614 <HAL_TIMEx_MasterConfigSynchronization>
 8000bc0:	4603      	mov	r3, r0
 8000bc2:	2b00      	cmp	r3, #0
 8000bc4:	d001      	beq.n	8000bca <MX_TIM4_Init+0x8a>
  {
    Error_Handler();
 8000bc6:	f000 fc5f 	bl	8001488 <Error_Handler>
  }
  /* USER CODE BEGIN TIM4_Init 2 */

  /* USER CODE END TIM4_Init 2 */

}
 8000bca:	bf00      	nop
 8000bcc:	3718      	adds	r7, #24
 8000bce:	46bd      	mov	sp, r7
 8000bd0:	bd80      	pop	{r7, pc}
 8000bd2:	bf00      	nop
 8000bd4:	200001dc 	.word	0x200001dc
 8000bd8:	40000800 	.word	0x40000800

08000bdc <MX_TIM5_Init>:
  * @brief TIM5 Initialization Function
  * @param None
  * @retval None
  */
static void MX_TIM5_Init(void)
{
 8000bdc:	b580      	push	{r7, lr}
 8000bde:	b08e      	sub	sp, #56	@ 0x38
 8000be0:	af00      	add	r7, sp, #0

  /* USER CODE BEGIN TIM5_Init 0 */

  /* USER CODE END TIM5_Init 0 */

  TIM_ClockConfigTypeDef sClockSourceConfig = {0};
 8000be2:	f107 0328 	add.w	r3, r7, #40	@ 0x28
 8000be6:	2200      	movs	r2, #0
 8000be8:	601a      	str	r2, [r3, #0]
 8000bea:	605a      	str	r2, [r3, #4]
 8000bec:	609a      	str	r2, [r3, #8]
 8000bee:	60da      	str	r2, [r3, #12]
  TIM_MasterConfigTypeDef sMasterConfig = {0};
 8000bf0:	f107 0320 	add.w	r3, r7, #32
 8000bf4:	2200      	movs	r2, #0
 8000bf6:	601a      	str	r2, [r3, #0]
 8000bf8:	605a      	str	r2, [r3, #4]
  TIM_OC_InitTypeDef sConfigOC = {0};
 8000bfa:	1d3b      	adds	r3, r7, #4
 8000bfc:	2200      	movs	r2, #0
 8000bfe:	601a      	str	r2, [r3, #0]
 8000c00:	605a      	str	r2, [r3, #4]
 8000c02:	609a      	str	r2, [r3, #8]
 8000c04:	60da      	str	r2, [r3, #12]
 8000c06:	611a      	str	r2, [r3, #16]
 8000c08:	615a      	str	r2, [r3, #20]
 8000c0a:	619a      	str	r2, [r3, #24]

  /* USER CODE BEGIN TIM5_Init 1 */

  /* USER CODE END TIM5_Init 1 */
  htim5.Instance = TIM5;
 8000c0c:	4b3d      	ldr	r3, [pc, #244]	@ (8000d04 <MX_TIM5_Init+0x128>)
 8000c0e:	4a3e      	ldr	r2, [pc, #248]	@ (8000d08 <MX_TIM5_Init+0x12c>)
 8000c10:	601a      	str	r2, [r3, #0]
  htim5.Init.Prescaler = 168-1;
 8000c12:	4b3c      	ldr	r3, [pc, #240]	@ (8000d04 <MX_TIM5_Init+0x128>)
 8000c14:	22a7      	movs	r2, #167	@ 0xa7
 8000c16:	605a      	str	r2, [r3, #4]
  htim5.Init.CounterMode = TIM_COUNTERMODE_UP;
 8000c18:	4b3a      	ldr	r3, [pc, #232]	@ (8000d04 <MX_TIM5_Init+0x128>)
 8000c1a:	2200      	movs	r2, #0
 8000c1c:	609a      	str	r2, [r3, #8]
  htim5.Init.Period = 4294967295;
 8000c1e:	4b39      	ldr	r3, [pc, #228]	@ (8000d04 <MX_TIM5_Init+0x128>)
 8000c20:	f04f 32ff 	mov.w	r2, #4294967295
 8000c24:	60da      	str	r2, [r3, #12]
  htim5.Init.ClockDivision = TIM_CLOCKDIVISION_DIV1;
 8000c26:	4b37      	ldr	r3, [pc, #220]	@ (8000d04 <MX_TIM5_Init+0x128>)
 8000c28:	2200      	movs	r2, #0
 8000c2a:	611a      	str	r2, [r3, #16]
  htim5.Init.AutoReloadPreload = TIM_AUTORELOAD_PRELOAD_DISABLE;
 8000c2c:	4b35      	ldr	r3, [pc, #212]	@ (8000d04 <MX_TIM5_Init+0x128>)
 8000c2e:	2200      	movs	r2, #0
 8000c30:	619a      	str	r2, [r3, #24]
  if (HAL_TIM_Base_Init(&htim5) != HAL_OK)
 8000c32:	4834      	ldr	r0, [pc, #208]	@ (8000d04 <MX_TIM5_Init+0x128>)
 8000c34:	f004 fd54 	bl	80056e0 <HAL_TIM_Base_Init>
 8000c38:	4603      	mov	r3, r0
 8000c3a:	2b00      	cmp	r3, #0
 8000c3c:	d001      	beq.n	8000c42 <MX_TIM5_Init+0x66>
  {
    Error_Handler();
 8000c3e:	f000 fc23 	bl	8001488 <Error_Handler>
  }
  sClockSourceConfig.ClockSource = TIM_CLOCKSOURCE_INTERNAL;
 8000c42:	f44f 5380 	mov.w	r3, #4096	@ 0x1000
 8000c46:	62bb      	str	r3, [r7, #40]	@ 0x28
  if (HAL_TIM_ConfigClockSource(&htim5, &sClockSourceConfig) != HAL_OK)
 8000c48:	f107 0328 	add.w	r3, r7, #40	@ 0x28
 8000c4c:	4619      	mov	r1, r3
 8000c4e:	482d      	ldr	r0, [pc, #180]	@ (8000d04 <MX_TIM5_Init+0x128>)
 8000c50:	f005 f8da 	bl	8005e08 <HAL_TIM_ConfigClockSource>
 8000c54:	4603      	mov	r3, r0
 8000c56:	2b00      	cmp	r3, #0
 8000c58:	d001      	beq.n	8000c5e <MX_TIM5_Init+0x82>
  {
    Error_Handler();
 8000c5a:	f000 fc15 	bl	8001488 <Error_Handler>
  }
  if (HAL_TIM_PWM_Init(&htim5) != HAL_OK)
 8000c5e:	4829      	ldr	r0, [pc, #164]	@ (8000d04 <MX_TIM5_Init+0x128>)
 8000c60:	f004 fdfe 	bl	8005860 <HAL_TIM_PWM_Init>
 8000c64:	4603      	mov	r3, r0
 8000c66:	2b00      	cmp	r3, #0
 8000c68:	d001      	beq.n	8000c6e <MX_TIM5_Init+0x92>
  {
    Error_Handler();
 8000c6a:	f000 fc0d 	bl	8001488 <Error_Handler>
  }
  sMasterConfig.MasterOutputTrigger = TIM_TRGO_RESET;
 8000c6e:	2300      	movs	r3, #0
 8000c70:	623b      	str	r3, [r7, #32]
  sMasterConfig.MasterSlaveMode = TIM_MASTERSLAVEMODE_DISABLE;
 8000c72:	2300      	movs	r3, #0
 8000c74:	627b      	str	r3, [r7, #36]	@ 0x24
  if (HAL_TIMEx_MasterConfigSynchronization(&htim5, &sMasterConfig) != HAL_OK)
 8000c76:	f107 0320 	add.w	r3, r7, #32
 8000c7a:	4619      	mov	r1, r3
 8000c7c:	4821      	ldr	r0, [pc, #132]	@ (8000d04 <MX_TIM5_Init+0x128>)
 8000c7e:	f005 fcc9 	bl	8006614 <HAL_TIMEx_MasterConfigSynchronization>
 8000c82:	4603      	mov	r3, r0
 8000c84:	2b00      	cmp	r3, #0
 8000c86:	d001      	beq.n	8000c8c <MX_TIM5_Init+0xb0>
  {
    Error_Handler();
 8000c88:	f000 fbfe 	bl	8001488 <Error_Handler>
  }
  sConfigOC.OCMode = TIM_OCMODE_PWM1;
 8000c8c:	2360      	movs	r3, #96	@ 0x60
 8000c8e:	607b      	str	r3, [r7, #4]
  sConfigOC.Pulse = 0;
 8000c90:	2300      	movs	r3, #0
 8000c92:	60bb      	str	r3, [r7, #8]
  sConfigOC.OCPolarity = TIM_OCPOLARITY_HIGH;
 8000c94:	2300      	movs	r3, #0
 8000c96:	60fb      	str	r3, [r7, #12]
  sConfigOC.OCFastMode = TIM_OCFAST_DISABLE;
 8000c98:	2300      	movs	r3, #0
 8000c9a:	617b      	str	r3, [r7, #20]
  if (HAL_TIM_PWM_ConfigChannel(&htim5, &sConfigOC, TIM_CHANNEL_1) != HAL_OK)
 8000c9c:	1d3b      	adds	r3, r7, #4
 8000c9e:	2200      	movs	r2, #0
 8000ca0:	4619      	mov	r1, r3
 8000ca2:	4818      	ldr	r0, [pc, #96]	@ (8000d04 <MX_TIM5_Init+0x128>)
 8000ca4:	f004 ffee 	bl	8005c84 <HAL_TIM_PWM_ConfigChannel>
 8000ca8:	4603      	mov	r3, r0
 8000caa:	2b00      	cmp	r3, #0
 8000cac:	d001      	beq.n	8000cb2 <MX_TIM5_Init+0xd6>
  {
    Error_Handler();
 8000cae:	f000 fbeb 	bl	8001488 <Error_Handler>
  }
  if (HAL_TIM_PWM_ConfigChannel(&htim5, &sConfigOC, TIM_CHANNEL_2) != HAL_OK)
 8000cb2:	1d3b      	adds	r3, r7, #4
 8000cb4:	2204      	movs	r2, #4
 8000cb6:	4619      	mov	r1, r3
 8000cb8:	4812      	ldr	r0, [pc, #72]	@ (8000d04 <MX_TIM5_Init+0x128>)
 8000cba:	f004 ffe3 	bl	8005c84 <HAL_TIM_PWM_ConfigChannel>
 8000cbe:	4603      	mov	r3, r0
 8000cc0:	2b00      	cmp	r3, #0
 8000cc2:	d001      	beq.n	8000cc8 <MX_TIM5_Init+0xec>
  {
    Error_Handler();
 8000cc4:	f000 fbe0 	bl	8001488 <Error_Handler>
  }
  if (HAL_TIM_PWM_ConfigChannel(&htim5, &sConfigOC, TIM_CHANNEL_3) != HAL_OK)
 8000cc8:	1d3b      	adds	r3, r7, #4
 8000cca:	2208      	movs	r2, #8
 8000ccc:	4619      	mov	r1, r3
 8000cce:	480d      	ldr	r0, [pc, #52]	@ (8000d04 <MX_TIM5_Init+0x128>)
 8000cd0:	f004 ffd8 	bl	8005c84 <HAL_TIM_PWM_ConfigChannel>
 8000cd4:	4603      	mov	r3, r0
 8000cd6:	2b00      	cmp	r3, #0
 8000cd8:	d001      	beq.n	8000cde <MX_TIM5_Init+0x102>
  {
    Error_Handler();
 8000cda:	f000 fbd5 	bl	8001488 <Error_Handler>
  }
  if (HAL_TIM_PWM_ConfigChannel(&htim5, &sConfigOC, TIM_CHANNEL_4) != HAL_OK)
 8000cde:	1d3b      	adds	r3, r7, #4
 8000ce0:	220c      	movs	r2, #12
 8000ce2:	4619      	mov	r1, r3
 8000ce4:	4807      	ldr	r0, [pc, #28]	@ (8000d04 <MX_TIM5_Init+0x128>)
 8000ce6:	f004 ffcd 	bl	8005c84 <HAL_TIM_PWM_ConfigChannel>
 8000cea:	4603      	mov	r3, r0
 8000cec:	2b00      	cmp	r3, #0
 8000cee:	d001      	beq.n	8000cf4 <MX_TIM5_Init+0x118>
  {
    Error_Handler();
 8000cf0:	f000 fbca 	bl	8001488 <Error_Handler>
  }
  /* USER CODE BEGIN TIM5_Init 2 */

  /* USER CODE END TIM5_Init 2 */
  HAL_TIM_MspPostInit(&htim5);
 8000cf4:	4803      	ldr	r0, [pc, #12]	@ (8000d04 <MX_TIM5_Init+0x128>)
 8000cf6:	f000 fe2d 	bl	8001954 <HAL_TIM_MspPostInit>

}
 8000cfa:	bf00      	nop
 8000cfc:	3738      	adds	r7, #56	@ 0x38
 8000cfe:	46bd      	mov	sp, r7
 8000d00:	bd80      	pop	{r7, pc}
 8000d02:	bf00      	nop
 8000d04:	20000224 	.word	0x20000224
 8000d08:	40000c00 	.word	0x40000c00

08000d0c <MX_UART4_Init>:
  * @brief UART4 Initialization Function
  * @param None
  * @retval None
  */
static void MX_UART4_Init(void)
{
 8000d0c:	b580      	push	{r7, lr}
 8000d0e:	af00      	add	r7, sp, #0
  /* USER CODE END UART4_Init 0 */

  /* USER CODE BEGIN UART4_Init 1 */

  /* USER CODE END UART4_Init 1 */
  huart4.Instance = UART4;
 8000d10:	4b11      	ldr	r3, [pc, #68]	@ (8000d58 <MX_UART4_Init+0x4c>)
 8000d12:	4a12      	ldr	r2, [pc, #72]	@ (8000d5c <MX_UART4_Init+0x50>)
 8000d14:	601a      	str	r2, [r3, #0]
  huart4.Init.BaudRate = 115200;
 8000d16:	4b10      	ldr	r3, [pc, #64]	@ (8000d58 <MX_UART4_Init+0x4c>)
 8000d18:	f44f 32e1 	mov.w	r2, #115200	@ 0x1c200
 8000d1c:	605a      	str	r2, [r3, #4]
  huart4.Init.WordLength = UART_WORDLENGTH_8B;
 8000d1e:	4b0e      	ldr	r3, [pc, #56]	@ (8000d58 <MX_UART4_Init+0x4c>)
 8000d20:	2200      	movs	r2, #0
 8000d22:	609a      	str	r2, [r3, #8]
  huart4.Init.StopBits = UART_STOPBITS_1;
 8000d24:	4b0c      	ldr	r3, [pc, #48]	@ (8000d58 <MX_UART4_Init+0x4c>)
 8000d26:	2200      	movs	r2, #0
 8000d28:	60da      	str	r2, [r3, #12]
  huart4.Init.Parity = UART_PARITY_NONE;
 8000d2a:	4b0b      	ldr	r3, [pc, #44]	@ (8000d58 <MX_UART4_Init+0x4c>)
 8000d2c:	2200      	movs	r2, #0
 8000d2e:	611a      	str	r2, [r3, #16]
  huart4.Init.Mode = UART_MODE_TX_RX;
 8000d30:	4b09      	ldr	r3, [pc, #36]	@ (8000d58 <MX_UART4_Init+0x4c>)
 8000d32:	220c      	movs	r2, #12
 8000d34:	615a      	str	r2, [r3, #20]
  huart4.Init.HwFlowCtl = UART_HWCONTROL_NONE;
 8000d36:	4b08      	ldr	r3, [pc, #32]	@ (8000d58 <MX_UART4_Init+0x4c>)
 8000d38:	2200      	movs	r2, #0
 8000d3a:	619a      	str	r2, [r3, #24]
  huart4.Init.OverSampling = UART_OVERSAMPLING_16;
 8000d3c:	4b06      	ldr	r3, [pc, #24]	@ (8000d58 <MX_UART4_Init+0x4c>)
 8000d3e:	2200      	movs	r2, #0
 8000d40:	61da      	str	r2, [r3, #28]
  if (HAL_UART_Init(&huart4) != HAL_OK)
 8000d42:	4805      	ldr	r0, [pc, #20]	@ (8000d58 <MX_UART4_Init+0x4c>)
 8000d44:	f005 fd48 	bl	80067d8 <HAL_UART_Init>
 8000d48:	4603      	mov	r3, r0
 8000d4a:	2b00      	cmp	r3, #0
 8000d4c:	d001      	beq.n	8000d52 <MX_UART4_Init+0x46>
  {
    Error_Handler();
 8000d4e:	f000 fb9b 	bl	8001488 <Error_Handler>
  }
  /* USER CODE BEGIN UART4_Init 2 */

  /* USER CODE END UART4_Init 2 */

}
 8000d52:	bf00      	nop
 8000d54:	bd80      	pop	{r7, pc}
 8000d56:	bf00      	nop
 8000d58:	200003ec 	.word	0x200003ec
 8000d5c:	40004c00 	.word	0x40004c00

08000d60 <MX_DMA_Init>:

/**
  * Enable DMA controller clock
  */
static void MX_DMA_Init(void)
{
 8000d60:	b580      	push	{r7, lr}
 8000d62:	b082      	sub	sp, #8
 8000d64:	af00      	add	r7, sp, #0

  /* DMA controller clock enable */
  __HAL_RCC_DMA1_CLK_ENABLE();
 8000d66:	2300      	movs	r3, #0
 8000d68:	607b      	str	r3, [r7, #4]
 8000d6a:	4b23      	ldr	r3, [pc, #140]	@ (8000df8 <MX_DMA_Init+0x98>)
 8000d6c:	6b1b      	ldr	r3, [r3, #48]	@ 0x30
 8000d6e:	4a22      	ldr	r2, [pc, #136]	@ (8000df8 <MX_DMA_Init+0x98>)
 8000d70:	f443 1300 	orr.w	r3, r3, #2097152	@ 0x200000
 8000d74:	6313      	str	r3, [r2, #48]	@ 0x30
 8000d76:	4b20      	ldr	r3, [pc, #128]	@ (8000df8 <MX_DMA_Init+0x98>)
 8000d78:	6b1b      	ldr	r3, [r3, #48]	@ 0x30
 8000d7a:	f403 1300 	and.w	r3, r3, #2097152	@ 0x200000
 8000d7e:	607b      	str	r3, [r7, #4]
 8000d80:	687b      	ldr	r3, [r7, #4]
  __HAL_RCC_DMA2_CLK_ENABLE();
 8000d82:	2300      	movs	r3, #0
 8000d84:	603b      	str	r3, [r7, #0]
 8000d86:	4b1c      	ldr	r3, [pc, #112]	@ (8000df8 <MX_DMA_Init+0x98>)
 8000d88:	6b1b      	ldr	r3, [r3, #48]	@ 0x30
 8000d8a:	4a1b      	ldr	r2, [pc, #108]	@ (8000df8 <MX_DMA_Init+0x98>)
 8000d8c:	f443 0380 	orr.w	r3, r3, #4194304	@ 0x400000
 8000d90:	6313      	str	r3, [r2, #48]	@ 0x30
 8000d92:	4b19      	ldr	r3, [pc, #100]	@ (8000df8 <MX_DMA_Init+0x98>)
 8000d94:	6b1b      	ldr	r3, [r3, #48]	@ 0x30
 8000d96:	f403 0380 	and.w	r3, r3, #4194304	@ 0x400000
 8000d9a:	603b      	str	r3, [r7, #0]
 8000d9c:	683b      	ldr	r3, [r7, #0]

  /* DMA interrupt init */
  /* DMA1_Stream0_IRQn interrupt configuration */
  HAL_NVIC_SetPriority(DMA1_Stream0_IRQn, 0, 0);
 8000d9e:	2200      	movs	r2, #0
 8000da0:	2100      	movs	r1, #0
 8000da2:	200b      	movs	r0, #11
 8000da4:	f001 fe63 	bl	8002a6e <HAL_NVIC_SetPriority>
  HAL_NVIC_EnableIRQ(DMA1_Stream0_IRQn);
 8000da8:	200b      	movs	r0, #11
 8000daa:	f001 fe7c 	bl	8002aa6 <HAL_NVIC_EnableIRQ>
  /* DMA1_Stream1_IRQn interrupt configuration */
  HAL_NVIC_SetPriority(DMA1_Stream1_IRQn, 0, 0);
 8000dae:	2200      	movs	r2, #0
 8000db0:	2100      	movs	r1, #0
 8000db2:	200c      	movs	r0, #12
 8000db4:	f001 fe5b 	bl	8002a6e <HAL_NVIC_SetPriority>
  HAL_NVIC_EnableIRQ(DMA1_Stream1_IRQn);
 8000db8:	200c      	movs	r0, #12
 8000dba:	f001 fe74 	bl	8002aa6 <HAL_NVIC_EnableIRQ>
  /* DMA1_Stream2_IRQn interrupt configuration */
  HAL_NVIC_SetPriority(DMA1_Stream2_IRQn, 0, 0);
 8000dbe:	2200      	movs	r2, #0
 8000dc0:	2100      	movs	r1, #0
 8000dc2:	200d      	movs	r0, #13
 8000dc4:	f001 fe53 	bl	8002a6e <HAL_NVIC_SetPriority>
  HAL_NVIC_EnableIRQ(DMA1_Stream2_IRQn);
 8000dc8:	200d      	movs	r0, #13
 8000dca:	f001 fe6c 	bl	8002aa6 <HAL_NVIC_EnableIRQ>
  /* DMA1_Stream4_IRQn interrupt configuration */
  HAL_NVIC_SetPriority(DMA1_Stream4_IRQn, 0, 0);
 8000dce:	2200      	movs	r2, #0
 8000dd0:	2100      	movs	r1, #0
 8000dd2:	200f      	movs	r0, #15
 8000dd4:	f001 fe4b 	bl	8002a6e <HAL_NVIC_SetPriority>
  HAL_NVIC_EnableIRQ(DMA1_Stream4_IRQn);
 8000dd8:	200f      	movs	r0, #15
 8000dda:	f001 fe64 	bl	8002aa6 <HAL_NVIC_EnableIRQ>
  /* DMA2_Stream0_IRQn interrupt configuration */
  HAL_NVIC_SetPriority(DMA2_Stream0_IRQn, 0, 0);
 8000dde:	2200      	movs	r2, #0
 8000de0:	2100      	movs	r1, #0
 8000de2:	2038      	movs	r0, #56	@ 0x38
 8000de4:	f001 fe43 	bl	8002a6e <HAL_NVIC_SetPriority>
  HAL_NVIC_EnableIRQ(DMA2_Stream0_IRQn);
 8000de8:	2038      	movs	r0, #56	@ 0x38
 8000dea:	f001 fe5c 	bl	8002aa6 <HAL_NVIC_EnableIRQ>

}
 8000dee:	bf00      	nop
 8000df0:	3708      	adds	r7, #8
 8000df2:	46bd      	mov	sp, r7
 8000df4:	bd80      	pop	{r7, pc}
 8000df6:	bf00      	nop
 8000df8:	40023800 	.word	0x40023800

08000dfc <MX_GPIO_Init>:
  * @brief GPIO Initialization Function
  * @param None
  * @retval None
  */
static void MX_GPIO_Init(void)
{
 8000dfc:	b580      	push	{r7, lr}
 8000dfe:	b08a      	sub	sp, #40	@ 0x28
 8000e00:	af00      	add	r7, sp, #0
  GPIO_InitTypeDef GPIO_InitStruct = {0};
 8000e02:	f107 0314 	add.w	r3, r7, #20
 8000e06:	2200      	movs	r2, #0
 8000e08:	601a      	str	r2, [r3, #0]
 8000e0a:	605a      	str	r2, [r3, #4]
 8000e0c:	609a      	str	r2, [r3, #8]
 8000e0e:	60da      	str	r2, [r3, #12]
 8000e10:	611a      	str	r2, [r3, #16]
  /* USER CODE BEGIN MX_GPIO_Init_1 */

  /* USER CODE END MX_GPIO_Init_1 */

  /* GPIO Ports Clock Enable */
  __HAL_RCC_GPIOC_CLK_ENABLE();
 8000e12:	2300      	movs	r3, #0
 8000e14:	613b      	str	r3, [r7, #16]
 8000e16:	4b4c      	ldr	r3, [pc, #304]	@ (8000f48 <MX_GPIO_Init+0x14c>)
 8000e18:	6b1b      	ldr	r3, [r3, #48]	@ 0x30
 8000e1a:	4a4b      	ldr	r2, [pc, #300]	@ (8000f48 <MX_GPIO_Init+0x14c>)
 8000e1c:	f043 0304 	orr.w	r3, r3, #4
 8000e20:	6313      	str	r3, [r2, #48]	@ 0x30
 8000e22:	4b49      	ldr	r3, [pc, #292]	@ (8000f48 <MX_GPIO_Init+0x14c>)
 8000e24:	6b1b      	ldr	r3, [r3, #48]	@ 0x30
 8000e26:	f003 0304 	and.w	r3, r3, #4
 8000e2a:	613b      	str	r3, [r7, #16]
 8000e2c:	693b      	ldr	r3, [r7, #16]
  __HAL_RCC_GPIOH_CLK_ENABLE();
 8000e2e:	2300      	movs	r3, #0
 8000e30:	60fb      	str	r3, [r7, #12]
 8000e32:	4b45      	ldr	r3, [pc, #276]	@ (8000f48 <MX_GPIO_Init+0x14c>)
 8000e34:	6b1b      	ldr	r3, [r3, #48]	@ 0x30
 8000e36:	4a44      	ldr	r2, [pc, #272]	@ (8000f48 <MX_GPIO_Init+0x14c>)
 8000e38:	f043 0380 	orr.w	r3, r3, #128	@ 0x80
 8000e3c:	6313      	str	r3, [r2, #48]	@ 0x30
 8000e3e:	4b42      	ldr	r3, [pc, #264]	@ (8000f48 <MX_GPIO_Init+0x14c>)
 8000e40:	6b1b      	ldr	r3, [r3, #48]	@ 0x30
 8000e42:	f003 0380 	and.w	r3, r3, #128	@ 0x80
 8000e46:	60fb      	str	r3, [r7, #12]
 8000e48:	68fb      	ldr	r3, [r7, #12]
  __HAL_RCC_GPIOA_CLK_ENABLE();
 8000e4a:	2300      	movs	r3, #0
 8000e4c:	60bb      	str	r3, [r7, #8]
 8000e4e:	4b3e      	ldr	r3, [pc, #248]	@ (8000f48 <MX_GPIO_Init+0x14c>)
 8000e50:	6b1b      	ldr	r3, [r3, #48]	@ 0x30
 8000e52:	4a3d      	ldr	r2, [pc, #244]	@ (8000f48 <MX_GPIO_Init+0x14c>)
 8000e54:	f043 0301 	orr.w	r3, r3, #1
 8000e58:	6313      	str	r3, [r2, #48]	@ 0x30
 8000e5a:	4b3b      	ldr	r3, [pc, #236]	@ (8000f48 <MX_GPIO_Init+0x14c>)
 8000e5c:	6b1b      	ldr	r3, [r3, #48]	@ 0x30
 8000e5e:	f003 0301 	and.w	r3, r3, #1
 8000e62:	60bb      	str	r3, [r7, #8]
 8000e64:	68bb      	ldr	r3, [r7, #8]
  __HAL_RCC_GPIOB_CLK_ENABLE();
 8000e66:	2300      	movs	r3, #0
 8000e68:	607b      	str	r3, [r7, #4]
 8000e6a:	4b37      	ldr	r3, [pc, #220]	@ (8000f48 <MX_GPIO_Init+0x14c>)
 8000e6c:	6b1b      	ldr	r3, [r3, #48]	@ 0x30
 8000e6e:	4a36      	ldr	r2, [pc, #216]	@ (8000f48 <MX_GPIO_Init+0x14c>)
 8000e70:	f043 0302 	orr.w	r3, r3, #2
 8000e74:	6313      	str	r3, [r2, #48]	@ 0x30
 8000e76:	4b34      	ldr	r3, [pc, #208]	@ (8000f48 <MX_GPIO_Init+0x14c>)
 8000e78:	6b1b      	ldr	r3, [r3, #48]	@ 0x30
 8000e7a:	f003 0302 	and.w	r3, r3, #2
 8000e7e:	607b      	str	r3, [r7, #4]
 8000e80:	687b      	ldr	r3, [r7, #4]
  __HAL_RCC_GPIOE_CLK_ENABLE();
 8000e82:	2300      	movs	r3, #0
 8000e84:	603b      	str	r3, [r7, #0]
 8000e86:	4b30      	ldr	r3, [pc, #192]	@ (8000f48 <MX_GPIO_Init+0x14c>)
 8000e88:	6b1b      	ldr	r3, [r3, #48]	@ 0x30
 8000e8a:	4a2f      	ldr	r2, [pc, #188]	@ (8000f48 <MX_GPIO_Init+0x14c>)
 8000e8c:	f043 0310 	orr.w	r3, r3, #16
 8000e90:	6313      	str	r3, [r2, #48]	@ 0x30
 8000e92:	4b2d      	ldr	r3, [pc, #180]	@ (8000f48 <MX_GPIO_Init+0x14c>)
 8000e94:	6b1b      	ldr	r3, [r3, #48]	@ 0x30
 8000e96:	f003 0310 	and.w	r3, r3, #16
 8000e9a:	603b      	str	r3, [r7, #0]
 8000e9c:	683b      	ldr	r3, [r7, #0]

  /*Configure GPIO pin Output Level */
  HAL_GPIO_WritePin(GPIOA, GPIO_PIN_7, GPIO_PIN_RESET);
 8000e9e:	2200      	movs	r2, #0
 8000ea0:	2180      	movs	r1, #128	@ 0x80
 8000ea2:	482a      	ldr	r0, [pc, #168]	@ (8000f4c <MX_GPIO_Init+0x150>)
 8000ea4:	f002 fb26 	bl	80034f4 <HAL_GPIO_WritePin>

  /*Configure GPIO pin Output Level */
  HAL_GPIO_WritePin(GPIOE, GPIO_PIN_9|GPIO_PIN_11, GPIO_PIN_RESET);
 8000ea8:	2200      	movs	r2, #0
 8000eaa:	f44f 6120 	mov.w	r1, #2560	@ 0xa00
 8000eae:	4828      	ldr	r0, [pc, #160]	@ (8000f50 <MX_GPIO_Init+0x154>)
 8000eb0:	f002 fb20 	bl	80034f4 <HAL_GPIO_WritePin>

  /*Configure GPIO pin Output Level */
  HAL_GPIO_WritePin(GPIOC, GPIO_PIN_6, GPIO_PIN_RESET);
 8000eb4:	2200      	movs	r2, #0
 8000eb6:	2140      	movs	r1, #64	@ 0x40
 8000eb8:	4826      	ldr	r0, [pc, #152]	@ (8000f54 <MX_GPIO_Init+0x158>)
 8000eba:	f002 fb1b 	bl	80034f4 <HAL_GPIO_WritePin>

  /*Configure GPIO pin : PA7 */
  GPIO_InitStruct.Pin = GPIO_PIN_7;
 8000ebe:	2380      	movs	r3, #128	@ 0x80
 8000ec0:	617b      	str	r3, [r7, #20]
  GPIO_InitStruct.Mode = GPIO_MODE_OUTPUT_PP;
 8000ec2:	2301      	movs	r3, #1
 8000ec4:	61bb      	str	r3, [r7, #24]
  GPIO_InitStruct.Pull = GPIO_NOPULL;
 8000ec6:	2300      	movs	r3, #0
 8000ec8:	61fb      	str	r3, [r7, #28]
  GPIO_InitStruct.Speed = GPIO_SPEED_FREQ_LOW;
 8000eca:	2300      	movs	r3, #0
 8000ecc:	623b      	str	r3, [r7, #32]
  HAL_GPIO_Init(GPIOA, &GPIO_InitStruct);
 8000ece:	f107 0314 	add.w	r3, r7, #20
 8000ed2:	4619      	mov	r1, r3
 8000ed4:	481d      	ldr	r0, [pc, #116]	@ (8000f4c <MX_GPIO_Init+0x150>)
 8000ed6:	f002 f971 	bl	80031bc <HAL_GPIO_Init>

  /*Configure GPIO pin : PE8 */
  GPIO_InitStruct.Pin = GPIO_PIN_8;
 8000eda:	f44f 7380 	mov.w	r3, #256	@ 0x100
 8000ede:	617b      	str	r3, [r7, #20]
  GPIO_InitStruct.Mode = GPIO_MODE_IT_RISING;
 8000ee0:	f44f 1388 	mov.w	r3, #1114112	@ 0x110000
 8000ee4:	61bb      	str	r3, [r7, #24]
  GPIO_InitStruct.Pull = GPIO_NOPULL;
 8000ee6:	2300      	movs	r3, #0
 8000ee8:	61fb      	str	r3, [r7, #28]
  HAL_GPIO_Init(GPIOE, &GPIO_InitStruct);
 8000eea:	f107 0314 	add.w	r3, r7, #20
 8000eee:	4619      	mov	r1, r3
 8000ef0:	4817      	ldr	r0, [pc, #92]	@ (8000f50 <MX_GPIO_Init+0x154>)
 8000ef2:	f002 f963 	bl	80031bc <HAL_GPIO_Init>

  /*Configure GPIO pins : PE9 PE11 */
  GPIO_InitStruct.Pin = GPIO_PIN_9|GPIO_PIN_11;
 8000ef6:	f44f 6320 	mov.w	r3, #2560	@ 0xa00
 8000efa:	617b      	str	r3, [r7, #20]
  GPIO_InitStruct.Mode = GPIO_MODE_OUTPUT_PP;
 8000efc:	2301      	movs	r3, #1
 8000efe:	61bb      	str	r3, [r7, #24]
  GPIO_InitStruct.Pull = GPIO_NOPULL;
 8000f00:	2300      	movs	r3, #0
 8000f02:	61fb      	str	r3, [r7, #28]
  GPIO_InitStruct.Speed = GPIO_SPEED_FREQ_LOW;
 8000f04:	2300      	movs	r3, #0
 8000f06:	623b      	str	r3, [r7, #32]
  HAL_GPIO_Init(GPIOE, &GPIO_InitStruct);
 8000f08:	f107 0314 	add.w	r3, r7, #20
 8000f0c:	4619      	mov	r1, r3
 8000f0e:	4810      	ldr	r0, [pc, #64]	@ (8000f50 <MX_GPIO_Init+0x154>)
 8000f10:	f002 f954 	bl	80031bc <HAL_GPIO_Init>

  /*Configure GPIO pin : PC6 */
  GPIO_InitStruct.Pin = GPIO_PIN_6;
 8000f14:	2340      	movs	r3, #64	@ 0x40
 8000f16:	617b      	str	r3, [r7, #20]
  GPIO_InitStruct.Mode = GPIO_MODE_OUTPUT_PP;
 8000f18:	2301      	movs	r3, #1
 8000f1a:	61bb      	str	r3, [r7, #24]
  GPIO_InitStruct.Pull = GPIO_NOPULL;
 8000f1c:	2300      	movs	r3, #0
 8000f1e:	61fb      	str	r3, [r7, #28]
  GPIO_InitStruct.Speed = GPIO_SPEED_FREQ_LOW;
 8000f20:	2300      	movs	r3, #0
 8000f22:	623b      	str	r3, [r7, #32]
  HAL_GPIO_Init(GPIOC, &GPIO_InitStruct);
 8000f24:	f107 0314 	add.w	r3, r7, #20
 8000f28:	4619      	mov	r1, r3
 8000f2a:	480a      	ldr	r0, [pc, #40]	@ (8000f54 <MX_GPIO_Init+0x158>)
 8000f2c:	f002 f946 	bl	80031bc <HAL_GPIO_Init>

  /* EXTI interrupt init*/
  HAL_NVIC_SetPriority(EXTI9_5_IRQn, 0, 0);
 8000f30:	2200      	movs	r2, #0
 8000f32:	2100      	movs	r1, #0
 8000f34:	2017      	movs	r0, #23
 8000f36:	f001 fd9a 	bl	8002a6e <HAL_NVIC_SetPriority>
  HAL_NVIC_EnableIRQ(EXTI9_5_IRQn);
 8000f3a:	2017      	movs	r0, #23
 8000f3c:	f001 fdb3 	bl	8002aa6 <HAL_NVIC_EnableIRQ>

  /* USER CODE BEGIN MX_GPIO_Init_2 */

  /* USER CODE END MX_GPIO_Init_2 */
}
 8000f40:	bf00      	nop
 8000f42:	3728      	adds	r7, #40	@ 0x28
 8000f44:	46bd      	mov	sp, r7
 8000f46:	bd80      	pop	{r7, pc}
 8000f48:	40023800 	.word	0x40023800
 8000f4c:	40020000 	.word	0x40020000
 8000f50:	40021000 	.word	0x40021000
 8000f54:	40020800 	.word	0x40020800

08000f58 <setServoAngle>:

/* USER CODE BEGIN 4 */

void setServoAngle(TIM_HandleTypeDef *htim, uint32_t channel, uint8_t angle){
 8000f58:	b480      	push	{r7}
 8000f5a:	b087      	sub	sp, #28
 8000f5c:	af00      	add	r7, sp, #0
 8000f5e:	60f8      	str	r0, [r7, #12]
 8000f60:	60b9      	str	r1, [r7, #8]
 8000f62:	4613      	mov	r3, r2
 8000f64:	71fb      	strb	r3, [r7, #7]
	 *Minimum Counts =  300uS/1uS	  = 300		//0   deg
	 *Maximum Counts =  1,300uS/1uS	  = 1300	//180 deg
	*/

	//Map angle (0-180) via linear interpolation
	uint32_t pulse_length = 300 + (angle * (1300-300)/180);
 8000f66:	79fb      	ldrb	r3, [r7, #7]
 8000f68:	f44f 727a 	mov.w	r2, #1000	@ 0x3e8
 8000f6c:	fb02 f303 	mul.w	r3, r2, r3
 8000f70:	4a15      	ldr	r2, [pc, #84]	@ (8000fc8 <setServoAngle+0x70>)
 8000f72:	fb82 1203 	smull	r1, r2, r2, r3
 8000f76:	441a      	add	r2, r3
 8000f78:	11d2      	asrs	r2, r2, #7
 8000f7a:	17db      	asrs	r3, r3, #31
 8000f7c:	1ad3      	subs	r3, r2, r3
 8000f7e:	f503 7396 	add.w	r3, r3, #300	@ 0x12c
 8000f82:	617b      	str	r3, [r7, #20]

	__HAL_TIM_SET_COMPARE(htim,channel,pulse_length);	//write duty cycle to PWM
 8000f84:	68bb      	ldr	r3, [r7, #8]
 8000f86:	2b00      	cmp	r3, #0
 8000f88:	d104      	bne.n	8000f94 <setServoAngle+0x3c>
 8000f8a:	68fb      	ldr	r3, [r7, #12]
 8000f8c:	681b      	ldr	r3, [r3, #0]
 8000f8e:	697a      	ldr	r2, [r7, #20]
 8000f90:	635a      	str	r2, [r3, #52]	@ 0x34
}
 8000f92:	e013      	b.n	8000fbc <setServoAngle+0x64>
	__HAL_TIM_SET_COMPARE(htim,channel,pulse_length);	//write duty cycle to PWM
 8000f94:	68bb      	ldr	r3, [r7, #8]
 8000f96:	2b04      	cmp	r3, #4
 8000f98:	d104      	bne.n	8000fa4 <setServoAngle+0x4c>
 8000f9a:	68fb      	ldr	r3, [r7, #12]
 8000f9c:	681a      	ldr	r2, [r3, #0]
 8000f9e:	697b      	ldr	r3, [r7, #20]
 8000fa0:	6393      	str	r3, [r2, #56]	@ 0x38
}
 8000fa2:	e00b      	b.n	8000fbc <setServoAngle+0x64>
	__HAL_TIM_SET_COMPARE(htim,channel,pulse_length);	//write duty cycle to PWM
 8000fa4:	68bb      	ldr	r3, [r7, #8]
 8000fa6:	2b08      	cmp	r3, #8
 8000fa8:	d104      	bne.n	8000fb4 <setServoAngle+0x5c>
 8000faa:	68fb      	ldr	r3, [r7, #12]
 8000fac:	681a      	ldr	r2, [r3, #0]
 8000fae:	697b      	ldr	r3, [r7, #20]
 8000fb0:	63d3      	str	r3, [r2, #60]	@ 0x3c
}
 8000fb2:	e003      	b.n	8000fbc <setServoAngle+0x64>
	__HAL_TIM_SET_COMPARE(htim,channel,pulse_length);	//write duty cycle to PWM
 8000fb4:	68fb      	ldr	r3, [r7, #12]
 8000fb6:	681a      	ldr	r2, [r3, #0]
 8000fb8:	697b      	ldr	r3, [r7, #20]
 8000fba:	6413      	str	r3, [r2, #64]	@ 0x40
}
 8000fbc:	bf00      	nop
 8000fbe:	371c      	adds	r7, #28
 8000fc0:	46bd      	mov	sp, r7
 8000fc2:	f85d 7b04 	ldr.w	r7, [sp], #4
 8000fc6:	4770      	bx	lr
 8000fc8:	b60b60b7 	.word	0xb60b60b7

08000fcc <readMPU>:

void readMPU(){
 8000fcc:	b580      	push	{r7, lr}
 8000fce:	b088      	sub	sp, #32
 8000fd0:	af04      	add	r7, sp, #16
	uint8_t int_status;
	int16_t accel_x, accel_y, accel_z;
	int16_t gyro_x, gyro_y, gyro_z;

	//Acknowledge that the INP pin was received.
	HAL_I2C_Mem_Read(&hi2c1, (0x68 << 1), 0x3A, I2C_MEMADD_SIZE_8BIT, &int_status, 1, 100);
 8000fd2:	2364      	movs	r3, #100	@ 0x64
 8000fd4:	9302      	str	r3, [sp, #8]
 8000fd6:	2301      	movs	r3, #1
 8000fd8:	9301      	str	r3, [sp, #4]
 8000fda:	f107 030f 	add.w	r3, r7, #15
 8000fde:	9300      	str	r3, [sp, #0]
 8000fe0:	2301      	movs	r3, #1
 8000fe2:	223a      	movs	r2, #58	@ 0x3a
 8000fe4:	21d0      	movs	r1, #208	@ 0xd0
 8000fe6:	483c      	ldr	r0, [pc, #240]	@ (80010d8 <readMPU+0x10c>)
 8000fe8:	f002 fcf4 	bl	80039d4 <HAL_I2C_Mem_Read>

	// Read raw sensor data
	status = MPU6500_ReadAccel(&accel_x, &accel_y, &accel_z);
 8000fec:	f107 0208 	add.w	r2, r7, #8
 8000ff0:	f107 010a 	add.w	r1, r7, #10
 8000ff4:	f107 030c 	add.w	r3, r7, #12
 8000ff8:	4618      	mov	r0, r3
 8000ffa:	f000 ff3b 	bl	8001e74 <MPU6500_ReadAccel>
 8000ffe:	4603      	mov	r3, r0
 8001000:	461a      	mov	r2, r3
 8001002:	4b36      	ldr	r3, [pc, #216]	@ (80010dc <readMPU+0x110>)
 8001004:	701a      	strb	r2, [r3, #0]
	if(status != HAL_OK){ Error_Handler();	}
 8001006:	4b35      	ldr	r3, [pc, #212]	@ (80010dc <readMPU+0x110>)
 8001008:	781b      	ldrb	r3, [r3, #0]
 800100a:	2b00      	cmp	r3, #0
 800100c:	d001      	beq.n	8001012 <readMPU+0x46>
 800100e:	f000 fa3b 	bl	8001488 <Error_Handler>

	status = MPU6500_ReadGyro(&gyro_x, &gyro_y, &gyro_z);
 8001012:	1cba      	adds	r2, r7, #2
 8001014:	1d39      	adds	r1, r7, #4
 8001016:	1dbb      	adds	r3, r7, #6
 8001018:	4618      	mov	r0, r3
 800101a:	f000 ff6b 	bl	8001ef4 <MPU6500_ReadGyro>
 800101e:	4603      	mov	r3, r0
 8001020:	461a      	mov	r2, r3
 8001022:	4b2e      	ldr	r3, [pc, #184]	@ (80010dc <readMPU+0x110>)
 8001024:	701a      	strb	r2, [r3, #0]
	if(status != HAL_OK){ Error_Handler();	}
 8001026:	4b2d      	ldr	r3, [pc, #180]	@ (80010dc <readMPU+0x110>)
 8001028:	781b      	ldrb	r3, [r3, #0]
 800102a:	2b00      	cmp	r3, #0
 800102c:	d001      	beq.n	8001032 <readMPU+0x66>
 800102e:	f000 fa2b 	bl	8001488 <Error_Handler>

	// Convert raw data to physical units
	// For ±8g range: 1g = 4096 LSB
	MPU_Data.aX = accel_x / 4096.0f;
 8001032:	f9b7 300c 	ldrsh.w	r3, [r7, #12]
 8001036:	ee07 3a90 	vmov	s15, r3
 800103a:	eeb8 7ae7 	vcvt.f32.s32	s14, s15
 800103e:	eddf 6a28 	vldr	s13, [pc, #160]	@ 80010e0 <readMPU+0x114>
 8001042:	eec7 7a26 	vdiv.f32	s15, s14, s13
 8001046:	4b27      	ldr	r3, [pc, #156]	@ (80010e4 <readMPU+0x118>)
 8001048:	edc3 7a00 	vstr	s15, [r3]
	MPU_Data.aY = accel_y / 4096.0f;
 800104c:	f9b7 300a 	ldrsh.w	r3, [r7, #10]
 8001050:	ee07 3a90 	vmov	s15, r3
 8001054:	eeb8 7ae7 	vcvt.f32.s32	s14, s15
 8001058:	eddf 6a21 	vldr	s13, [pc, #132]	@ 80010e0 <readMPU+0x114>
 800105c:	eec7 7a26 	vdiv.f32	s15, s14, s13
 8001060:	4b20      	ldr	r3, [pc, #128]	@ (80010e4 <readMPU+0x118>)
 8001062:	edc3 7a01 	vstr	s15, [r3, #4]
	MPU_Data.aZ = accel_z / 4096.0f;
 8001066:	f9b7 3008 	ldrsh.w	r3, [r7, #8]
 800106a:	ee07 3a90 	vmov	s15, r3
 800106e:	eeb8 7ae7 	vcvt.f32.s32	s14, s15
 8001072:	eddf 6a1b 	vldr	s13, [pc, #108]	@ 80010e0 <readMPU+0x114>
 8001076:	eec7 7a26 	vdiv.f32	s15, s14, s13
 800107a:	4b1a      	ldr	r3, [pc, #104]	@ (80010e4 <readMPU+0x118>)
 800107c:	edc3 7a02 	vstr	s15, [r3, #8]

	// For ±2000°/s range: 1°/s = 16.4 LSB
	// In  degrees per second
	MPU_Data.gX = gyro_x / 16.4f;
 8001080:	f9b7 3006 	ldrsh.w	r3, [r7, #6]
 8001084:	ee07 3a90 	vmov	s15, r3
 8001088:	eeb8 7ae7 	vcvt.f32.s32	s14, s15
 800108c:	eddf 6a16 	vldr	s13, [pc, #88]	@ 80010e8 <readMPU+0x11c>
 8001090:	eec7 7a26 	vdiv.f32	s15, s14, s13
 8001094:	4b13      	ldr	r3, [pc, #76]	@ (80010e4 <readMPU+0x118>)
 8001096:	edc3 7a03 	vstr	s15, [r3, #12]
	MPU_Data.gY = gyro_y / 16.4f;
 800109a:	f9b7 3004 	ldrsh.w	r3, [r7, #4]
 800109e:	ee07 3a90 	vmov	s15, r3
 80010a2:	eeb8 7ae7 	vcvt.f32.s32	s14, s15
 80010a6:	eddf 6a10 	vldr	s13, [pc, #64]	@ 80010e8 <readMPU+0x11c>
 80010aa:	eec7 7a26 	vdiv.f32	s15, s14, s13
 80010ae:	4b0d      	ldr	r3, [pc, #52]	@ (80010e4 <readMPU+0x118>)
 80010b0:	edc3 7a04 	vstr	s15, [r3, #16]
	MPU_Data.gZ = gyro_z / 16.4f;
 80010b4:	f9b7 3002 	ldrsh.w	r3, [r7, #2]
 80010b8:	ee07 3a90 	vmov	s15, r3
 80010bc:	eeb8 7ae7 	vcvt.f32.s32	s14, s15
 80010c0:	eddf 6a09 	vldr	s13, [pc, #36]	@ 80010e8 <readMPU+0x11c>
 80010c4:	eec7 7a26 	vdiv.f32	s15, s14, s13
 80010c8:	4b06      	ldr	r3, [pc, #24]	@ (80010e4 <readMPU+0x118>)
 80010ca:	edc3 7a05 	vstr	s15, [r3, #20]

}
 80010ce:	bf00      	nop
 80010d0:	3710      	adds	r7, #16
 80010d2:	46bd      	mov	sp, r7
 80010d4:	bd80      	pop	{r7, pc}
 80010d6:	bf00      	nop
 80010d8:	200000d8 	.word	0x200000d8
 80010dc:	20000450 	.word	0x20000450
 80010e0:	45800000 	.word	0x45800000
 80010e4:	20000434 	.word	0x20000434
 80010e8:	41833333 	.word	0x41833333

080010ec <readBattery>:

void readBattery(){//Converts ADC to battery percentage
 80010ec:	b480      	push	{r7}
 80010ee:	b085      	sub	sp, #20
 80010f0:	af00      	add	r7, sp, #0
	float maxVoltage = 3.029508;	//Max voltage of the Voltage divider
 80010f2:	4b22      	ldr	r3, [pc, #136]	@ (800117c <readBattery+0x90>)
 80010f4:	60fb      	str	r3, [r7, #12]
	float minVoltage = 2.163934;
 80010f6:	4b22      	ldr	r3, [pc, #136]	@ (8001180 <readBattery+0x94>)
 80010f8:	60bb      	str	r3, [r7, #8]

	//This can change depending on the ADC reading of the Voltage Divider
	uint16_t maxADC = 4095;
 80010fa:	f640 73ff 	movw	r3, #4095	@ 0xfff
 80010fe:	80fb      	strh	r3, [r7, #6]
	uint16_t minADC = 0;
 8001100:	2300      	movs	r3, #0
 8001102:	80bb      	strh	r3, [r7, #4]

	//linear Interpolation to convert ADC to Voltage reading
	float readingVoltage = ( ((float) (ADC_reading - minADC) * (maxVoltage - minVoltage) ) / (maxADC - minADC) ) + minVoltage;
 8001104:	4b1f      	ldr	r3, [pc, #124]	@ (8001184 <readBattery+0x98>)
 8001106:	881b      	ldrh	r3, [r3, #0]
 8001108:	b29b      	uxth	r3, r3
 800110a:	461a      	mov	r2, r3
 800110c:	88bb      	ldrh	r3, [r7, #4]
 800110e:	1ad3      	subs	r3, r2, r3
 8001110:	ee07 3a90 	vmov	s15, r3
 8001114:	eeb8 7ae7 	vcvt.f32.s32	s14, s15
 8001118:	edd7 6a03 	vldr	s13, [r7, #12]
 800111c:	edd7 7a02 	vldr	s15, [r7, #8]
 8001120:	ee76 7ae7 	vsub.f32	s15, s13, s15
 8001124:	ee67 6a27 	vmul.f32	s13, s14, s15
 8001128:	88fa      	ldrh	r2, [r7, #6]
 800112a:	88bb      	ldrh	r3, [r7, #4]
 800112c:	1ad3      	subs	r3, r2, r3
 800112e:	ee07 3a90 	vmov	s15, r3
 8001132:	eeb8 7ae7 	vcvt.f32.s32	s14, s15
 8001136:	eec6 7a87 	vdiv.f32	s15, s13, s14
 800113a:	ed97 7a02 	vldr	s14, [r7, #8]
 800113e:	ee77 7a27 	vadd.f32	s15, s14, s15
 8001142:	edc7 7a00 	vstr	s15, [r7]

	//Convert to battery percentage
	batPercentage = ( (readingVoltage - minVoltage) * 100 ) / (maxVoltage - minVoltage);
 8001146:	ed97 7a00 	vldr	s14, [r7]
 800114a:	edd7 7a02 	vldr	s15, [r7, #8]
 800114e:	ee77 7a67 	vsub.f32	s15, s14, s15
 8001152:	ed9f 7a0d 	vldr	s14, [pc, #52]	@ 8001188 <readBattery+0x9c>
 8001156:	ee67 6a87 	vmul.f32	s13, s15, s14
 800115a:	ed97 7a03 	vldr	s14, [r7, #12]
 800115e:	edd7 7a02 	vldr	s15, [r7, #8]
 8001162:	ee37 7a67 	vsub.f32	s14, s14, s15
 8001166:	eec6 7a87 	vdiv.f32	s15, s13, s14
 800116a:	4b08      	ldr	r3, [pc, #32]	@ (800118c <readBattery+0xa0>)
 800116c:	edc3 7a00 	vstr	s15, [r3]

}
 8001170:	bf00      	nop
 8001172:	3714      	adds	r7, #20
 8001174:	46bd      	mov	sp, r7
 8001176:	f85d 7b04 	ldr.w	r7, [sp], #4
 800117a:	4770      	bx	lr
 800117c:	4041e376 	.word	0x4041e376
 8001180:	400a7de5 	.word	0x400a7de5
 8001184:	2000045a 	.word	0x2000045a
 8001188:	42c80000 	.word	0x42c80000
 800118c:	20000454 	.word	0x20000454

08001190 <UGV_setSpeed>:

void UGV_setSpeed(TIM_HandleTypeDef *htim, uint32_t channel,uint16_t motor, uint16_t *velocityTick){
 8001190:	b480      	push	{r7}
 8001192:	b089      	sub	sp, #36	@ 0x24
 8001194:	af00      	add	r7, sp, #0
 8001196:	60f8      	str	r0, [r7, #12]
 8001198:	60b9      	str	r1, [r7, #8]
 800119a:	603b      	str	r3, [r7, #0]
 800119c:	4613      	mov	r3, r2
 800119e:	80fb      	strh	r3, [r7, #6]

	uint16_t V_target = (motor/rangeJoystick) * maxUGV_Tick;
 80011a0:	4b36      	ldr	r3, [pc, #216]	@ (800127c <UGV_setSpeed+0xec>)
 80011a2:	881b      	ldrh	r3, [r3, #0]
 80011a4:	88fa      	ldrh	r2, [r7, #6]
 80011a6:	fbb2 f3f3 	udiv	r3, r2, r3
 80011aa:	b29b      	uxth	r3, r3
 80011ac:	461a      	mov	r2, r3
 80011ae:	0152      	lsls	r2, r2, #5
 80011b0:	1ad2      	subs	r2, r2, r3
 80011b2:	00d2      	lsls	r2, r2, #3
 80011b4:	1ad2      	subs	r2, r2, r3
 80011b6:	4611      	mov	r1, r2
 80011b8:	0108      	lsls	r0, r1, #4
 80011ba:	4611      	mov	r1, r2
 80011bc:	4602      	mov	r2, r0
 80011be:	440a      	add	r2, r1
 80011c0:	0052      	lsls	r2, r2, #1
 80011c2:	4413      	add	r3, r2
 80011c4:	83fb      	strh	r3, [r7, #30]

	float dt = 0.005f; // 5ms. This is how fast the speed changes
 80011c6:	4b2e      	ldr	r3, [pc, #184]	@ (8001280 <UGV_setSpeed+0xf0>)
 80011c8:	61bb      	str	r3, [r7, #24]

	float error = V_target - *velocityTick;
 80011ca:	8bfb      	ldrh	r3, [r7, #30]
 80011cc:	683a      	ldr	r2, [r7, #0]
 80011ce:	8812      	ldrh	r2, [r2, #0]
 80011d0:	1a9b      	subs	r3, r3, r2
 80011d2:	ee07 3a90 	vmov	s15, r3
 80011d6:	eef8 7ae7 	vcvt.f32.s32	s15, s15
 80011da:	edc7 7a05 	vstr	s15, [r7, #20]

	//UGV_k = 30.0f -> determines how fast the correction changes

	float acceleration = UGV_k * error;
 80011de:	4b29      	ldr	r3, [pc, #164]	@ (8001284 <UGV_setSpeed+0xf4>)
 80011e0:	edd3 7a00 	vldr	s15, [r3]
 80011e4:	ed97 7a05 	vldr	s14, [r7, #20]
 80011e8:	ee67 7a27 	vmul.f32	s15, s14, s15
 80011ec:	edc7 7a04 	vstr	s15, [r7, #16]

	*velocityTick += acceleration * dt;
 80011f0:	683b      	ldr	r3, [r7, #0]
 80011f2:	881b      	ldrh	r3, [r3, #0]
 80011f4:	ee07 3a90 	vmov	s15, r3
 80011f8:	eeb8 7ae7 	vcvt.f32.s32	s14, s15
 80011fc:	edd7 6a04 	vldr	s13, [r7, #16]
 8001200:	edd7 7a06 	vldr	s15, [r7, #24]
 8001204:	ee66 7aa7 	vmul.f32	s15, s13, s15
 8001208:	ee77 7a27 	vadd.f32	s15, s14, s15
 800120c:	eefc 7ae7 	vcvt.u32.f32	s15, s15
 8001210:	ee17 3a90 	vmov	r3, s15
 8001214:	b29a      	uxth	r2, r3
 8001216:	683b      	ldr	r3, [r7, #0]
 8001218:	801a      	strh	r2, [r3, #0]

	if (*velocityTick <=1) *velocityTick = 1;
 800121a:	683b      	ldr	r3, [r7, #0]
 800121c:	881b      	ldrh	r3, [r3, #0]
 800121e:	2b01      	cmp	r3, #1
 8001220:	d802      	bhi.n	8001228 <UGV_setSpeed+0x98>
 8001222:	683b      	ldr	r3, [r7, #0]
 8001224:	2201      	movs	r2, #1
 8001226:	801a      	strh	r2, [r3, #0]
	__HAL_TIM_SET_COMPARE(htim,channel, *velocityTick);	//write duty cycle to PWM
 8001228:	68bb      	ldr	r3, [r7, #8]
 800122a:	2b00      	cmp	r3, #0
 800122c:	d105      	bne.n	800123a <UGV_setSpeed+0xaa>
 800122e:	683b      	ldr	r3, [r7, #0]
 8001230:	881a      	ldrh	r2, [r3, #0]
 8001232:	68fb      	ldr	r3, [r7, #12]
 8001234:	681b      	ldr	r3, [r3, #0]
 8001236:	635a      	str	r2, [r3, #52]	@ 0x34
}
 8001238:	e019      	b.n	800126e <UGV_setSpeed+0xde>
	__HAL_TIM_SET_COMPARE(htim,channel, *velocityTick);	//write duty cycle to PWM
 800123a:	68bb      	ldr	r3, [r7, #8]
 800123c:	2b04      	cmp	r3, #4
 800123e:	d106      	bne.n	800124e <UGV_setSpeed+0xbe>
 8001240:	683b      	ldr	r3, [r7, #0]
 8001242:	8819      	ldrh	r1, [r3, #0]
 8001244:	68fb      	ldr	r3, [r7, #12]
 8001246:	681a      	ldr	r2, [r3, #0]
 8001248:	460b      	mov	r3, r1
 800124a:	6393      	str	r3, [r2, #56]	@ 0x38
}
 800124c:	e00f      	b.n	800126e <UGV_setSpeed+0xde>
	__HAL_TIM_SET_COMPARE(htim,channel, *velocityTick);	//write duty cycle to PWM
 800124e:	68bb      	ldr	r3, [r7, #8]
 8001250:	2b08      	cmp	r3, #8
 8001252:	d106      	bne.n	8001262 <UGV_setSpeed+0xd2>
 8001254:	683b      	ldr	r3, [r7, #0]
 8001256:	8819      	ldrh	r1, [r3, #0]
 8001258:	68fb      	ldr	r3, [r7, #12]
 800125a:	681a      	ldr	r2, [r3, #0]
 800125c:	460b      	mov	r3, r1
 800125e:	63d3      	str	r3, [r2, #60]	@ 0x3c
}
 8001260:	e005      	b.n	800126e <UGV_setSpeed+0xde>
	__HAL_TIM_SET_COMPARE(htim,channel, *velocityTick);	//write duty cycle to PWM
 8001262:	683b      	ldr	r3, [r7, #0]
 8001264:	8819      	ldrh	r1, [r3, #0]
 8001266:	68fb      	ldr	r3, [r7, #12]
 8001268:	681a      	ldr	r2, [r3, #0]
 800126a:	460b      	mov	r3, r1
 800126c:	6413      	str	r3, [r2, #64]	@ 0x40
}
 800126e:	bf00      	nop
 8001270:	3724      	adds	r7, #36	@ 0x24
 8001272:	46bd      	mov	sp, r7
 8001274:	f85d 7b04 	ldr.w	r7, [sp], #4
 8001278:	4770      	bx	lr
 800127a:	bf00      	nop
 800127c:	20000000 	.word	0x20000000
 8001280:	3ba3d70a 	.word	0x3ba3d70a
 8001284:	20000004 	.word	0x20000004

08001288 <UGV_setDirection>:

void UGV_setDirection(GPIO_TypeDef* Port_A, uint16_t Pin_A, GPIO_TypeDef* Port_B, uint16_t Pin_B, int16_t *motor)
{
 8001288:	b580      	push	{r7, lr}
 800128a:	b084      	sub	sp, #16
 800128c:	af00      	add	r7, sp, #0
 800128e:	60f8      	str	r0, [r7, #12]
 8001290:	607a      	str	r2, [r7, #4]
 8001292:	461a      	mov	r2, r3
 8001294:	460b      	mov	r3, r1
 8001296:	817b      	strh	r3, [r7, #10]
 8001298:	4613      	mov	r3, r2
 800129a:	813b      	strh	r3, [r7, #8]
    if (*motor > 0) {
 800129c:	69bb      	ldr	r3, [r7, #24]
 800129e:	f9b3 3000 	ldrsh.w	r3, [r3]
 80012a2:	2b00      	cmp	r3, #0
 80012a4:	dd0c      	ble.n	80012c0 <UGV_setDirection+0x38>
        HAL_GPIO_WritePin(Port_A, Pin_A, GPIO_PIN_SET);
 80012a6:	897b      	ldrh	r3, [r7, #10]
 80012a8:	2201      	movs	r2, #1
 80012aa:	4619      	mov	r1, r3
 80012ac:	68f8      	ldr	r0, [r7, #12]
 80012ae:	f002 f921 	bl	80034f4 <HAL_GPIO_WritePin>
        HAL_GPIO_WritePin(Port_B, Pin_B, GPIO_PIN_RESET);
 80012b2:	893b      	ldrh	r3, [r7, #8]
 80012b4:	2200      	movs	r2, #0
 80012b6:	4619      	mov	r1, r3
 80012b8:	6878      	ldr	r0, [r7, #4]
 80012ba:	f002 f91b 	bl	80034f4 <HAL_GPIO_WritePin>
 80012be:	e01d      	b.n	80012fc <UGV_setDirection+0x74>

    } else if (*motor < 0) {
 80012c0:	69bb      	ldr	r3, [r7, #24]
 80012c2:	f9b3 3000 	ldrsh.w	r3, [r3]
 80012c6:	2b00      	cmp	r3, #0
 80012c8:	da0c      	bge.n	80012e4 <UGV_setDirection+0x5c>
        HAL_GPIO_WritePin(Port_A, Pin_A, GPIO_PIN_RESET);
 80012ca:	897b      	ldrh	r3, [r7, #10]
 80012cc:	2200      	movs	r2, #0
 80012ce:	4619      	mov	r1, r3
 80012d0:	68f8      	ldr	r0, [r7, #12]
 80012d2:	f002 f90f 	bl	80034f4 <HAL_GPIO_WritePin>
        HAL_GPIO_WritePin(Port_B, Pin_B, GPIO_PIN_SET);
 80012d6:	893b      	ldrh	r3, [r7, #8]
 80012d8:	2201      	movs	r2, #1
 80012da:	4619      	mov	r1, r3
 80012dc:	6878      	ldr	r0, [r7, #4]
 80012de:	f002 f909 	bl	80034f4 <HAL_GPIO_WritePin>
 80012e2:	e00b      	b.n	80012fc <UGV_setDirection+0x74>
    } else {
        HAL_GPIO_WritePin(Port_A, Pin_A, GPIO_PIN_RESET);
 80012e4:	897b      	ldrh	r3, [r7, #10]
 80012e6:	2200      	movs	r2, #0
 80012e8:	4619      	mov	r1, r3
 80012ea:	68f8      	ldr	r0, [r7, #12]
 80012ec:	f002 f902 	bl	80034f4 <HAL_GPIO_WritePin>
        HAL_GPIO_WritePin(Port_B, Pin_B, GPIO_PIN_RESET);
 80012f0:	893b      	ldrh	r3, [r7, #8]
 80012f2:	2200      	movs	r2, #0
 80012f4:	4619      	mov	r1, r3
 80012f6:	6878      	ldr	r0, [r7, #4]
 80012f8:	f002 f8fc 	bl	80034f4 <HAL_GPIO_WritePin>
    }

    // Absolute the value
    if (*motor < 0)*motor = -(*motor);
 80012fc:	69bb      	ldr	r3, [r7, #24]
 80012fe:	f9b3 3000 	ldrsh.w	r3, [r3]
 8001302:	2b00      	cmp	r3, #0
 8001304:	da08      	bge.n	8001318 <UGV_setDirection+0x90>
 8001306:	69bb      	ldr	r3, [r7, #24]
 8001308:	f9b3 3000 	ldrsh.w	r3, [r3]
 800130c:	b29b      	uxth	r3, r3
 800130e:	425b      	negs	r3, r3
 8001310:	b29b      	uxth	r3, r3
 8001312:	b21a      	sxth	r2, r3
 8001314:	69bb      	ldr	r3, [r7, #24]
 8001316:	801a      	strh	r2, [r3, #0]

    //Clip the value to rangeJoystick
    if (*motor > rangeJoystick) *motor = rangeJoystick;
 8001318:	69bb      	ldr	r3, [r7, #24]
 800131a:	f9b3 3000 	ldrsh.w	r3, [r3]
 800131e:	461a      	mov	r2, r3
 8001320:	4b06      	ldr	r3, [pc, #24]	@ (800133c <UGV_setDirection+0xb4>)
 8001322:	881b      	ldrh	r3, [r3, #0]
 8001324:	429a      	cmp	r2, r3
 8001326:	dd04      	ble.n	8001332 <UGV_setDirection+0xaa>
 8001328:	4b04      	ldr	r3, [pc, #16]	@ (800133c <UGV_setDirection+0xb4>)
 800132a:	881b      	ldrh	r3, [r3, #0]
 800132c:	b21a      	sxth	r2, r3
 800132e:	69bb      	ldr	r3, [r7, #24]
 8001330:	801a      	strh	r2, [r3, #0]

}
 8001332:	bf00      	nop
 8001334:	3710      	adds	r7, #16
 8001336:	46bd      	mov	sp, r7
 8001338:	bd80      	pop	{r7, pc}
 800133a:	bf00      	nop
 800133c:	20000000 	.word	0x20000000

08001340 <HAL_TIM_PeriodElapsedCallback>:


//--------------------------------------------- ISR Functions---------------------------------
void HAL_TIM_PeriodElapsedCallback(TIM_HandleTypeDef *htim){	// Gets called whenever there is an overflow on any timer
 8001340:	b580      	push	{r7, lr}
 8001342:	b084      	sub	sp, #16
 8001344:	af02      	add	r7, sp, #8
 8001346:	6078      	str	r0, [r7, #4]
    if (htim->Instance == TIM4){	//Checks if timer overflow is Timer 4
 8001348:	687b      	ldr	r3, [r7, #4]
 800134a:	681b      	ldr	r3, [r3, #0]
 800134c:	4a22      	ldr	r2, [pc, #136]	@ (80013d8 <HAL_TIM_PeriodElapsedCallback+0x98>)
 800134e:	4293      	cmp	r3, r2
 8001350:	d13d      	bne.n	80013ce <HAL_TIM_PeriodElapsedCallback+0x8e>
       //ISR every 5ms
    	leftMotor = UGV_Controls.Jy + UGV_Controls.Jx;
 8001352:	4b22      	ldr	r3, [pc, #136]	@ (80013dc <HAL_TIM_PeriodElapsedCallback+0x9c>)
 8001354:	f9b3 3002 	ldrsh.w	r3, [r3, #2]
 8001358:	b29a      	uxth	r2, r3
 800135a:	4b20      	ldr	r3, [pc, #128]	@ (80013dc <HAL_TIM_PeriodElapsedCallback+0x9c>)
 800135c:	f9b3 3000 	ldrsh.w	r3, [r3]
 8001360:	b29b      	uxth	r3, r3
 8001362:	4413      	add	r3, r2
 8001364:	b29b      	uxth	r3, r3
 8001366:	b21a      	sxth	r2, r3
 8001368:	4b1d      	ldr	r3, [pc, #116]	@ (80013e0 <HAL_TIM_PeriodElapsedCallback+0xa0>)
 800136a:	801a      	strh	r2, [r3, #0]
    	rightMotor = UGV_Controls.Jy - UGV_Controls.Jx;
 800136c:	4b1b      	ldr	r3, [pc, #108]	@ (80013dc <HAL_TIM_PeriodElapsedCallback+0x9c>)
 800136e:	f9b3 3002 	ldrsh.w	r3, [r3, #2]
 8001372:	b29a      	uxth	r2, r3
 8001374:	4b19      	ldr	r3, [pc, #100]	@ (80013dc <HAL_TIM_PeriodElapsedCallback+0x9c>)
 8001376:	f9b3 3000 	ldrsh.w	r3, [r3]
 800137a:	b29b      	uxth	r3, r3
 800137c:	1ad3      	subs	r3, r2, r3
 800137e:	b29b      	uxth	r3, r3
 8001380:	b21a      	sxth	r2, r3
 8001382:	4b18      	ldr	r3, [pc, #96]	@ (80013e4 <HAL_TIM_PeriodElapsedCallback+0xa4>)
 8001384:	801a      	strh	r2, [r3, #0]

    	UGV_setDirection(GPIOC, GPIO_PIN_6, GPIOA, GPIO_PIN_7, &leftMotor);
 8001386:	4b16      	ldr	r3, [pc, #88]	@ (80013e0 <HAL_TIM_PeriodElapsedCallback+0xa0>)
 8001388:	9300      	str	r3, [sp, #0]
 800138a:	2380      	movs	r3, #128	@ 0x80
 800138c:	4a16      	ldr	r2, [pc, #88]	@ (80013e8 <HAL_TIM_PeriodElapsedCallback+0xa8>)
 800138e:	2140      	movs	r1, #64	@ 0x40
 8001390:	4816      	ldr	r0, [pc, #88]	@ (80013ec <HAL_TIM_PeriodElapsedCallback+0xac>)
 8001392:	f7ff ff79 	bl	8001288 <UGV_setDirection>
    	UGV_setDirection(GPIOE, GPIO_PIN_11, GPIOE, GPIO_PIN_9, &rightMotor);
 8001396:	4b13      	ldr	r3, [pc, #76]	@ (80013e4 <HAL_TIM_PeriodElapsedCallback+0xa4>)
 8001398:	9300      	str	r3, [sp, #0]
 800139a:	f44f 7300 	mov.w	r3, #512	@ 0x200
 800139e:	4a14      	ldr	r2, [pc, #80]	@ (80013f0 <HAL_TIM_PeriodElapsedCallback+0xb0>)
 80013a0:	f44f 6100 	mov.w	r1, #2048	@ 0x800
 80013a4:	4812      	ldr	r0, [pc, #72]	@ (80013f0 <HAL_TIM_PeriodElapsedCallback+0xb0>)
 80013a6:	f7ff ff6f 	bl	8001288 <UGV_setDirection>

    	UGV_setSpeed(&htim1, TIM_CHANNEL_3, leftMotor, &Left_velocityTick);
 80013aa:	4b0d      	ldr	r3, [pc, #52]	@ (80013e0 <HAL_TIM_PeriodElapsedCallback+0xa0>)
 80013ac:	f9b3 3000 	ldrsh.w	r3, [r3]
 80013b0:	b29a      	uxth	r2, r3
 80013b2:	4b10      	ldr	r3, [pc, #64]	@ (80013f4 <HAL_TIM_PeriodElapsedCallback+0xb4>)
 80013b4:	2108      	movs	r1, #8
 80013b6:	4810      	ldr	r0, [pc, #64]	@ (80013f8 <HAL_TIM_PeriodElapsedCallback+0xb8>)
 80013b8:	f7ff feea 	bl	8001190 <UGV_setSpeed>
    	UGV_setSpeed(&htim1, TIM_CHANNEL_4, rightMotor, &Right_velocityTick);
 80013bc:	4b09      	ldr	r3, [pc, #36]	@ (80013e4 <HAL_TIM_PeriodElapsedCallback+0xa4>)
 80013be:	f9b3 3000 	ldrsh.w	r3, [r3]
 80013c2:	b29a      	uxth	r2, r3
 80013c4:	4b0d      	ldr	r3, [pc, #52]	@ (80013fc <HAL_TIM_PeriodElapsedCallback+0xbc>)
 80013c6:	210c      	movs	r1, #12
 80013c8:	480b      	ldr	r0, [pc, #44]	@ (80013f8 <HAL_TIM_PeriodElapsedCallback+0xb8>)
 80013ca:	f7ff fee1 	bl	8001190 <UGV_setSpeed>

    }
}
 80013ce:	bf00      	nop
 80013d0:	3708      	adds	r7, #8
 80013d2:	46bd      	mov	sp, r7
 80013d4:	bd80      	pop	{r7, pc}
 80013d6:	bf00      	nop
 80013d8:	40000800 	.word	0x40000800
 80013dc:	2000044c 	.word	0x2000044c
 80013e0:	2000045c 	.word	0x2000045c
 80013e4:	2000045e 	.word	0x2000045e
 80013e8:	40020000 	.word	0x40020000
 80013ec:	40020800 	.word	0x40020800
 80013f0:	40021000 	.word	0x40021000
 80013f4:	20000462 	.word	0x20000462
 80013f8:	2000014c 	.word	0x2000014c
 80013fc:	20000460 	.word	0x20000460

08001400 <HAL_RTCEx_WakeUpTimerEventCallback>:

void HAL_RTCEx_WakeUpTimerEventCallback(RTC_HandleTypeDef *hrtc){	//LSE Timer ISR
 8001400:	b580      	push	{r7, lr}
 8001402:	b082      	sub	sp, #8
 8001404:	af00      	add	r7, sp, #0
 8001406:	6078      	str	r0, [r7, #4]
	readBattery();
 8001408:	f7ff fe70 	bl	80010ec <readBattery>

}
 800140c:	bf00      	nop
 800140e:	3708      	adds	r7, #8
 8001410:	46bd      	mov	sp, r7
 8001412:	bd80      	pop	{r7, pc}

08001414 <HAL_ADC_ConvCpltCallback>:

void HAL_ADC_ConvCpltCallback(ADC_HandleTypeDef* hadc) {	// Called when ADC buffer is completely filled}
 8001414:	b480      	push	{r7}
 8001416:	b085      	sub	sp, #20
 8001418:	af00      	add	r7, sp, #0
 800141a:	6078      	str	r0, [r7, #4]
 *
 * Make sure that an ISR is always below 50% time than the interrupt
 */

	uint32_t sum;
	for (uint16_t i = 0; i <= 4095; i ++)
 800141c:	2300      	movs	r3, #0
 800141e:	817b      	strh	r3, [r7, #10]
 8001420:	e00a      	b.n	8001438 <HAL_ADC_ConvCpltCallback+0x24>
	      {
		sum += ADC_buffer[i];
 8001422:	897b      	ldrh	r3, [r7, #10]
 8001424:	4a0c      	ldr	r2, [pc, #48]	@ (8001458 <HAL_ADC_ConvCpltCallback+0x44>)
 8001426:	f832 3013 	ldrh.w	r3, [r2, r3, lsl #1]
 800142a:	461a      	mov	r2, r3
 800142c:	68fb      	ldr	r3, [r7, #12]
 800142e:	4413      	add	r3, r2
 8001430:	60fb      	str	r3, [r7, #12]
	for (uint16_t i = 0; i <= 4095; i ++)
 8001432:	897b      	ldrh	r3, [r7, #10]
 8001434:	3301      	adds	r3, #1
 8001436:	817b      	strh	r3, [r7, #10]
 8001438:	897b      	ldrh	r3, [r7, #10]
 800143a:	f5b3 5f80 	cmp.w	r3, #4096	@ 0x1000
 800143e:	d3f0      	bcc.n	8001422 <HAL_ADC_ConvCpltCallback+0xe>
	      }
	ADC_reading = sum/4096;
 8001440:	68fb      	ldr	r3, [r7, #12]
 8001442:	0b1b      	lsrs	r3, r3, #12
 8001444:	b29a      	uxth	r2, r3
 8001446:	4b05      	ldr	r3, [pc, #20]	@ (800145c <HAL_ADC_ConvCpltCallback+0x48>)
 8001448:	801a      	strh	r2, [r3, #0]
}
 800144a:	bf00      	nop
 800144c:	3714      	adds	r7, #20
 800144e:	46bd      	mov	sp, r7
 8001450:	f85d 7b04 	ldr.w	r7, [sp], #4
 8001454:	4770      	bx	lr
 8001456:	bf00      	nop
 8001458:	20000468 	.word	0x20000468
 800145c:	2000045a 	.word	0x2000045a

08001460 <HAL_GPIO_EXTI_Callback>:

void HAL_GPIO_EXTI_Callback(uint16_t GPIO_Pin){	//EXTI ISR
 8001460:	b480      	push	{r7}
 8001462:	b083      	sub	sp, #12
 8001464:	af00      	add	r7, sp, #0
 8001466:	4603      	mov	r3, r0
 8001468:	80fb      	strh	r3, [r7, #6]
	if(GPIO_Pin == GPIO_PIN_8){
 800146a:	88fb      	ldrh	r3, [r7, #6]
 800146c:	f5b3 7f80 	cmp.w	r3, #256	@ 0x100
 8001470:	d102      	bne.n	8001478 <HAL_GPIO_EXTI_Callback+0x18>
		mpuStatus = 1;	//Set to a volatile variable instead of reading MPU directly to prevent a blocking
 8001472:	4b04      	ldr	r3, [pc, #16]	@ (8001484 <HAL_GPIO_EXTI_Callback+0x24>)
 8001474:	2201      	movs	r2, #1
 8001476:	701a      	strb	r2, [r3, #0]
	}
}
 8001478:	bf00      	nop
 800147a:	370c      	adds	r7, #12
 800147c:	46bd      	mov	sp, r7
 800147e:	f85d 7b04 	ldr.w	r7, [sp], #4
 8001482:	4770      	bx	lr
 8001484:	20000458 	.word	0x20000458

08001488 <Error_Handler>:
/**
  * @brief  This function is executed in case of error occurrence.
  * @retval None
  */
void Error_Handler(void)
{
 8001488:	b480      	push	{r7}
 800148a:	af00      	add	r7, sp, #0
  \details Disables IRQ interrupts by setting special-purpose register PRIMASK.
           Can only be executed in Privileged modes.
 */
__STATIC_FORCEINLINE void __disable_irq(void)
{
  __ASM volatile ("cpsid i" : : : "memory");
 800148c:	b672      	cpsid	i
}
 800148e:	bf00      	nop
  /* USER CODE BEGIN Error_Handler_Debug */
  /* User can add his own implementation to report the HAL error return state */
  __disable_irq();
  while (1)
 8001490:	bf00      	nop
 8001492:	e7fd      	b.n	8001490 <Error_Handler+0x8>

08001494 <HAL_MspInit>:
void HAL_TIM_MspPostInit(TIM_HandleTypeDef *htim);
                                                            /**
  * Initializes the Global MSP.
  */
void HAL_MspInit(void)
{
 8001494:	b480      	push	{r7}
 8001496:	b083      	sub	sp, #12
 8001498:	af00      	add	r7, sp, #0

  /* USER CODE BEGIN MspInit 0 */

  /* USER CODE END MspInit 0 */

  __HAL_RCC_SYSCFG_CLK_ENABLE();
 800149a:	2300      	movs	r3, #0
 800149c:	607b      	str	r3, [r7, #4]
 800149e:	4b10      	ldr	r3, [pc, #64]	@ (80014e0 <HAL_MspInit+0x4c>)
 80014a0:	6c5b      	ldr	r3, [r3, #68]	@ 0x44
 80014a2:	4a0f      	ldr	r2, [pc, #60]	@ (80014e0 <HAL_MspInit+0x4c>)
 80014a4:	f443 4380 	orr.w	r3, r3, #16384	@ 0x4000
 80014a8:	6453      	str	r3, [r2, #68]	@ 0x44
 80014aa:	4b0d      	ldr	r3, [pc, #52]	@ (80014e0 <HAL_MspInit+0x4c>)
 80014ac:	6c5b      	ldr	r3, [r3, #68]	@ 0x44
 80014ae:	f403 4380 	and.w	r3, r3, #16384	@ 0x4000
 80014b2:	607b      	str	r3, [r7, #4]
 80014b4:	687b      	ldr	r3, [r7, #4]
  __HAL_RCC_PWR_CLK_ENABLE();
 80014b6:	2300      	movs	r3, #0
 80014b8:	603b      	str	r3, [r7, #0]
 80014ba:	4b09      	ldr	r3, [pc, #36]	@ (80014e0 <HAL_MspInit+0x4c>)
 80014bc:	6c1b      	ldr	r3, [r3, #64]	@ 0x40
 80014be:	4a08      	ldr	r2, [pc, #32]	@ (80014e0 <HAL_MspInit+0x4c>)
 80014c0:	f043 5380 	orr.w	r3, r3, #268435456	@ 0x10000000
 80014c4:	6413      	str	r3, [r2, #64]	@ 0x40
 80014c6:	4b06      	ldr	r3, [pc, #24]	@ (80014e0 <HAL_MspInit+0x4c>)
 80014c8:	6c1b      	ldr	r3, [r3, #64]	@ 0x40
 80014ca:	f003 5380 	and.w	r3, r3, #268435456	@ 0x10000000
 80014ce:	603b      	str	r3, [r7, #0]
 80014d0:	683b      	ldr	r3, [r7, #0]
  /* System interrupt init*/

  /* USER CODE BEGIN MspInit 1 */

  /* USER CODE END MspInit 1 */
}
 80014d2:	bf00      	nop
 80014d4:	370c      	adds	r7, #12
 80014d6:	46bd      	mov	sp, r7
 80014d8:	f85d 7b04 	ldr.w	r7, [sp], #4
 80014dc:	4770      	bx	lr
 80014de:	bf00      	nop
 80014e0:	40023800 	.word	0x40023800

080014e4 <HAL_ADC_MspInit>:
  * This function configures the hardware resources used in this example
  * @param hadc: ADC handle pointer
  * @retval None
  */
void HAL_ADC_MspInit(ADC_HandleTypeDef* hadc)
{
 80014e4:	b580      	push	{r7, lr}
 80014e6:	b08a      	sub	sp, #40	@ 0x28
 80014e8:	af00      	add	r7, sp, #0
 80014ea:	6078      	str	r0, [r7, #4]
  GPIO_InitTypeDef GPIO_InitStruct = {0};
 80014ec:	f107 0314 	add.w	r3, r7, #20
 80014f0:	2200      	movs	r2, #0
 80014f2:	601a      	str	r2, [r3, #0]
 80014f4:	605a      	str	r2, [r3, #4]
 80014f6:	609a      	str	r2, [r3, #8]
 80014f8:	60da      	str	r2, [r3, #12]
 80014fa:	611a      	str	r2, [r3, #16]
  if(hadc->Instance==ADC1)
 80014fc:	687b      	ldr	r3, [r7, #4]
 80014fe:	681b      	ldr	r3, [r3, #0]
 8001500:	4a2f      	ldr	r2, [pc, #188]	@ (80015c0 <HAL_ADC_MspInit+0xdc>)
 8001502:	4293      	cmp	r3, r2
 8001504:	d157      	bne.n	80015b6 <HAL_ADC_MspInit+0xd2>
  {
    /* USER CODE BEGIN ADC1_MspInit 0 */

    /* USER CODE END ADC1_MspInit 0 */
    /* Peripheral clock enable */
    __HAL_RCC_ADC1_CLK_ENABLE();
 8001506:	2300      	movs	r3, #0
 8001508:	613b      	str	r3, [r7, #16]
 800150a:	4b2e      	ldr	r3, [pc, #184]	@ (80015c4 <HAL_ADC_MspInit+0xe0>)
 800150c:	6c5b      	ldr	r3, [r3, #68]	@ 0x44
 800150e:	4a2d      	ldr	r2, [pc, #180]	@ (80015c4 <HAL_ADC_MspInit+0xe0>)
 8001510:	f443 7380 	orr.w	r3, r3, #256	@ 0x100
 8001514:	6453      	str	r3, [r2, #68]	@ 0x44
 8001516:	4b2b      	ldr	r3, [pc, #172]	@ (80015c4 <HAL_ADC_MspInit+0xe0>)
 8001518:	6c5b      	ldr	r3, [r3, #68]	@ 0x44
 800151a:	f403 7380 	and.w	r3, r3, #256	@ 0x100
 800151e:	613b      	str	r3, [r7, #16]
 8001520:	693b      	ldr	r3, [r7, #16]

    __HAL_RCC_GPIOA_CLK_ENABLE();
 8001522:	2300      	movs	r3, #0
 8001524:	60fb      	str	r3, [r7, #12]
 8001526:	4b27      	ldr	r3, [pc, #156]	@ (80015c4 <HAL_ADC_MspInit+0xe0>)
 8001528:	6b1b      	ldr	r3, [r3, #48]	@ 0x30
 800152a:	4a26      	ldr	r2, [pc, #152]	@ (80015c4 <HAL_ADC_MspInit+0xe0>)
 800152c:	f043 0301 	orr.w	r3, r3, #1
 8001530:	6313      	str	r3, [r2, #48]	@ 0x30
 8001532:	4b24      	ldr	r3, [pc, #144]	@ (80015c4 <HAL_ADC_MspInit+0xe0>)
 8001534:	6b1b      	ldr	r3, [r3, #48]	@ 0x30
 8001536:	f003 0301 	and.w	r3, r3, #1
 800153a:	60fb      	str	r3, [r7, #12]
 800153c:	68fb      	ldr	r3, [r7, #12]
    /**ADC1 GPIO Configuration
    PA6     ------> ADC1_IN6
    */
    GPIO_InitStruct.Pin = GPIO_PIN_6;
 800153e:	2340      	movs	r3, #64	@ 0x40
 8001540:	617b      	str	r3, [r7, #20]
    GPIO_InitStruct.Mode = GPIO_MODE_ANALOG;
 8001542:	2303      	movs	r3, #3
 8001544:	61bb      	str	r3, [r7, #24]
    GPIO_InitStruct.Pull = GPIO_NOPULL;
 8001546:	2300      	movs	r3, #0
 8001548:	61fb      	str	r3, [r7, #28]
    HAL_GPIO_Init(GPIOA, &GPIO_InitStruct);
 800154a:	f107 0314 	add.w	r3, r7, #20
 800154e:	4619      	mov	r1, r3
 8001550:	481d      	ldr	r0, [pc, #116]	@ (80015c8 <HAL_ADC_MspInit+0xe4>)
 8001552:	f001 fe33 	bl	80031bc <HAL_GPIO_Init>

    /* ADC1 DMA Init */
    /* ADC1 Init */
    hdma_adc1.Instance = DMA2_Stream0;
 8001556:	4b1d      	ldr	r3, [pc, #116]	@ (80015cc <HAL_ADC_MspInit+0xe8>)
 8001558:	4a1d      	ldr	r2, [pc, #116]	@ (80015d0 <HAL_ADC_MspInit+0xec>)
 800155a:	601a      	str	r2, [r3, #0]
    hdma_adc1.Init.Channel = DMA_CHANNEL_0;
 800155c:	4b1b      	ldr	r3, [pc, #108]	@ (80015cc <HAL_ADC_MspInit+0xe8>)
 800155e:	2200      	movs	r2, #0
 8001560:	605a      	str	r2, [r3, #4]
    hdma_adc1.Init.Direction = DMA_PERIPH_TO_MEMORY;
 8001562:	4b1a      	ldr	r3, [pc, #104]	@ (80015cc <HAL_ADC_MspInit+0xe8>)
 8001564:	2200      	movs	r2, #0
 8001566:	609a      	str	r2, [r3, #8]
    hdma_adc1.Init.PeriphInc = DMA_PINC_DISABLE;
 8001568:	4b18      	ldr	r3, [pc, #96]	@ (80015cc <HAL_ADC_MspInit+0xe8>)
 800156a:	2200      	movs	r2, #0
 800156c:	60da      	str	r2, [r3, #12]
    hdma_adc1.Init.MemInc = DMA_MINC_ENABLE;
 800156e:	4b17      	ldr	r3, [pc, #92]	@ (80015cc <HAL_ADC_MspInit+0xe8>)
 8001570:	f44f 6280 	mov.w	r2, #1024	@ 0x400
 8001574:	611a      	str	r2, [r3, #16]
    hdma_adc1.Init.PeriphDataAlignment = DMA_PDATAALIGN_HALFWORD;
 8001576:	4b15      	ldr	r3, [pc, #84]	@ (80015cc <HAL_ADC_MspInit+0xe8>)
 8001578:	f44f 6200 	mov.w	r2, #2048	@ 0x800
 800157c:	615a      	str	r2, [r3, #20]
    hdma_adc1.Init.MemDataAlignment = DMA_MDATAALIGN_HALFWORD;
 800157e:	4b13      	ldr	r3, [pc, #76]	@ (80015cc <HAL_ADC_MspInit+0xe8>)
 8001580:	f44f 5200 	mov.w	r2, #8192	@ 0x2000
 8001584:	619a      	str	r2, [r3, #24]
    hdma_adc1.Init.Mode = DMA_CIRCULAR;
 8001586:	4b11      	ldr	r3, [pc, #68]	@ (80015cc <HAL_ADC_MspInit+0xe8>)
 8001588:	f44f 7280 	mov.w	r2, #256	@ 0x100
 800158c:	61da      	str	r2, [r3, #28]
    hdma_adc1.Init.Priority = DMA_PRIORITY_LOW;
 800158e:	4b0f      	ldr	r3, [pc, #60]	@ (80015cc <HAL_ADC_MspInit+0xe8>)
 8001590:	2200      	movs	r2, #0
 8001592:	621a      	str	r2, [r3, #32]
    hdma_adc1.Init.FIFOMode = DMA_FIFOMODE_DISABLE;
 8001594:	4b0d      	ldr	r3, [pc, #52]	@ (80015cc <HAL_ADC_MspInit+0xe8>)
 8001596:	2200      	movs	r2, #0
 8001598:	625a      	str	r2, [r3, #36]	@ 0x24
    if (HAL_DMA_Init(&hdma_adc1) != HAL_OK)
 800159a:	480c      	ldr	r0, [pc, #48]	@ (80015cc <HAL_ADC_MspInit+0xe8>)
 800159c:	f001 fa9e 	bl	8002adc <HAL_DMA_Init>
 80015a0:	4603      	mov	r3, r0
 80015a2:	2b00      	cmp	r3, #0
 80015a4:	d001      	beq.n	80015aa <HAL_ADC_MspInit+0xc6>
    {
      Error_Handler();
 80015a6:	f7ff ff6f 	bl	8001488 <Error_Handler>
    }

    __HAL_LINKDMA(hadc,DMA_Handle,hdma_adc1);
 80015aa:	687b      	ldr	r3, [r7, #4]
 80015ac:	4a07      	ldr	r2, [pc, #28]	@ (80015cc <HAL_ADC_MspInit+0xe8>)
 80015ae:	639a      	str	r2, [r3, #56]	@ 0x38
 80015b0:	4a06      	ldr	r2, [pc, #24]	@ (80015cc <HAL_ADC_MspInit+0xe8>)
 80015b2:	687b      	ldr	r3, [r7, #4]
 80015b4:	6393      	str	r3, [r2, #56]	@ 0x38

    /* USER CODE END ADC1_MspInit 1 */

  }

}
 80015b6:	bf00      	nop
 80015b8:	3728      	adds	r7, #40	@ 0x28
 80015ba:	46bd      	mov	sp, r7
 80015bc:	bd80      	pop	{r7, pc}
 80015be:	bf00      	nop
 80015c0:	40012000 	.word	0x40012000
 80015c4:	40023800 	.word	0x40023800
 80015c8:	40020000 	.word	0x40020000
 80015cc:	20000078 	.word	0x20000078
 80015d0:	40026410 	.word	0x40026410

080015d4 <HAL_I2C_MspInit>:
  * This function configures the hardware resources used in this example
  * @param hi2c: I2C handle pointer
  * @retval None
  */
void HAL_I2C_MspInit(I2C_HandleTypeDef* hi2c)
{
 80015d4:	b580      	push	{r7, lr}
 80015d6:	b08a      	sub	sp, #40	@ 0x28
 80015d8:	af00      	add	r7, sp, #0
 80015da:	6078      	str	r0, [r7, #4]
  GPIO_InitTypeDef GPIO_InitStruct = {0};
 80015dc:	f107 0314 	add.w	r3, r7, #20
 80015e0:	2200      	movs	r2, #0
 80015e2:	601a      	str	r2, [r3, #0]
 80015e4:	605a      	str	r2, [r3, #4]
 80015e6:	609a      	str	r2, [r3, #8]
 80015e8:	60da      	str	r2, [r3, #12]
 80015ea:	611a      	str	r2, [r3, #16]
  if(hi2c->Instance==I2C1)
 80015ec:	687b      	ldr	r3, [r7, #4]
 80015ee:	681b      	ldr	r3, [r3, #0]
 80015f0:	4a19      	ldr	r2, [pc, #100]	@ (8001658 <HAL_I2C_MspInit+0x84>)
 80015f2:	4293      	cmp	r3, r2
 80015f4:	d12b      	bne.n	800164e <HAL_I2C_MspInit+0x7a>
  {
    /* USER CODE BEGIN I2C1_MspInit 0 */

    /* USER CODE END I2C1_MspInit 0 */

    __HAL_RCC_GPIOB_CLK_ENABLE();
 80015f6:	2300      	movs	r3, #0
 80015f8:	613b      	str	r3, [r7, #16]
 80015fa:	4b18      	ldr	r3, [pc, #96]	@ (800165c <HAL_I2C_MspInit+0x88>)
 80015fc:	6b1b      	ldr	r3, [r3, #48]	@ 0x30
 80015fe:	4a17      	ldr	r2, [pc, #92]	@ (800165c <HAL_I2C_MspInit+0x88>)
 8001600:	f043 0302 	orr.w	r3, r3, #2
 8001604:	6313      	str	r3, [r2, #48]	@ 0x30
 8001606:	4b15      	ldr	r3, [pc, #84]	@ (800165c <HAL_I2C_MspInit+0x88>)
 8001608:	6b1b      	ldr	r3, [r3, #48]	@ 0x30
 800160a:	f003 0302 	and.w	r3, r3, #2
 800160e:	613b      	str	r3, [r7, #16]
 8001610:	693b      	ldr	r3, [r7, #16]
    /**I2C1 GPIO Configuration
    PB6     ------> I2C1_SCL
    PB7     ------> I2C1_SDA
    */
    GPIO_InitStruct.Pin = GPIO_PIN_6|GPIO_PIN_7;
 8001612:	23c0      	movs	r3, #192	@ 0xc0
 8001614:	617b      	str	r3, [r7, #20]
    GPIO_InitStruct.Mode = GPIO_MODE_AF_OD;
 8001616:	2312      	movs	r3, #18
 8001618:	61bb      	str	r3, [r7, #24]
    GPIO_InitStruct.Pull = GPIO_NOPULL;
 800161a:	2300      	movs	r3, #0
 800161c:	61fb      	str	r3, [r7, #28]
    GPIO_InitStruct.Speed = GPIO_SPEED_FREQ_VERY_HIGH;
 800161e:	2303      	movs	r3, #3
 8001620:	623b      	str	r3, [r7, #32]
    GPIO_InitStruct.Alternate = GPIO_AF4_I2C1;
 8001622:	2304      	movs	r3, #4
 8001624:	627b      	str	r3, [r7, #36]	@ 0x24
    HAL_GPIO_Init(GPIOB, &GPIO_InitStruct);
 8001626:	f107 0314 	add.w	r3, r7, #20
 800162a:	4619      	mov	r1, r3
 800162c:	480c      	ldr	r0, [pc, #48]	@ (8001660 <HAL_I2C_MspInit+0x8c>)
 800162e:	f001 fdc5 	bl	80031bc <HAL_GPIO_Init>

    /* Peripheral clock enable */
    __HAL_RCC_I2C1_CLK_ENABLE();
 8001632:	2300      	movs	r3, #0
 8001634:	60fb      	str	r3, [r7, #12]
 8001636:	4b09      	ldr	r3, [pc, #36]	@ (800165c <HAL_I2C_MspInit+0x88>)
 8001638:	6c1b      	ldr	r3, [r3, #64]	@ 0x40
 800163a:	4a08      	ldr	r2, [pc, #32]	@ (800165c <HAL_I2C_MspInit+0x88>)
 800163c:	f443 1300 	orr.w	r3, r3, #2097152	@ 0x200000
 8001640:	6413      	str	r3, [r2, #64]	@ 0x40
 8001642:	4b06      	ldr	r3, [pc, #24]	@ (800165c <HAL_I2C_MspInit+0x88>)
 8001644:	6c1b      	ldr	r3, [r3, #64]	@ 0x40
 8001646:	f403 1300 	and.w	r3, r3, #2097152	@ 0x200000
 800164a:	60fb      	str	r3, [r7, #12]
 800164c:	68fb      	ldr	r3, [r7, #12]

    /* USER CODE END I2C1_MspInit 1 */

  }

}
 800164e:	bf00      	nop
 8001650:	3728      	adds	r7, #40	@ 0x28
 8001652:	46bd      	mov	sp, r7
 8001654:	bd80      	pop	{r7, pc}
 8001656:	bf00      	nop
 8001658:	40005400 	.word	0x40005400
 800165c:	40023800 	.word	0x40023800
 8001660:	40020400 	.word	0x40020400

08001664 <HAL_RTC_MspInit>:
  * This function configures the hardware resources used in this example
  * @param hrtc: RTC handle pointer
  * @retval None
  */
void HAL_RTC_MspInit(RTC_HandleTypeDef* hrtc)
{
 8001664:	b580      	push	{r7, lr}
 8001666:	b086      	sub	sp, #24
 8001668:	af00      	add	r7, sp, #0
 800166a:	6078      	str	r0, [r7, #4]
  RCC_PeriphCLKInitTypeDef PeriphClkInitStruct = {0};
 800166c:	f107 0308 	add.w	r3, r7, #8
 8001670:	2200      	movs	r2, #0
 8001672:	601a      	str	r2, [r3, #0]
 8001674:	605a      	str	r2, [r3, #4]
 8001676:	609a      	str	r2, [r3, #8]
 8001678:	60da      	str	r2, [r3, #12]
  if(hrtc->Instance==RTC)
 800167a:	687b      	ldr	r3, [r7, #4]
 800167c:	681b      	ldr	r3, [r3, #0]
 800167e:	4a10      	ldr	r2, [pc, #64]	@ (80016c0 <HAL_RTC_MspInit+0x5c>)
 8001680:	4293      	cmp	r3, r2
 8001682:	d119      	bne.n	80016b8 <HAL_RTC_MspInit+0x54>

    /* USER CODE END RTC_MspInit 0 */

  /** Initializes the peripherals clock
  */
    PeriphClkInitStruct.PeriphClockSelection = RCC_PERIPHCLK_RTC;
 8001684:	2302      	movs	r3, #2
 8001686:	60bb      	str	r3, [r7, #8]
    PeriphClkInitStruct.RTCClockSelection = RCC_RTCCLKSOURCE_LSE;
 8001688:	f44f 7380 	mov.w	r3, #256	@ 0x100
 800168c:	617b      	str	r3, [r7, #20]
    if (HAL_RCCEx_PeriphCLKConfig(&PeriphClkInitStruct) != HAL_OK)
 800168e:	f107 0308 	add.w	r3, r7, #8
 8001692:	4618      	mov	r0, r3
 8001694:	f003 fc1c 	bl	8004ed0 <HAL_RCCEx_PeriphCLKConfig>
 8001698:	4603      	mov	r3, r0
 800169a:	2b00      	cmp	r3, #0
 800169c:	d001      	beq.n	80016a2 <HAL_RTC_MspInit+0x3e>
    {
      Error_Handler();
 800169e:	f7ff fef3 	bl	8001488 <Error_Handler>
    }

    /* Peripheral clock enable */
    __HAL_RCC_RTC_ENABLE();
 80016a2:	4b08      	ldr	r3, [pc, #32]	@ (80016c4 <HAL_RTC_MspInit+0x60>)
 80016a4:	2201      	movs	r2, #1
 80016a6:	601a      	str	r2, [r3, #0]
    /* RTC interrupt Init */
    HAL_NVIC_SetPriority(RTC_WKUP_IRQn, 0, 0);
 80016a8:	2200      	movs	r2, #0
 80016aa:	2100      	movs	r1, #0
 80016ac:	2003      	movs	r0, #3
 80016ae:	f001 f9de 	bl	8002a6e <HAL_NVIC_SetPriority>
    HAL_NVIC_EnableIRQ(RTC_WKUP_IRQn);
 80016b2:	2003      	movs	r0, #3
 80016b4:	f001 f9f7 	bl	8002aa6 <HAL_NVIC_EnableIRQ>

    /* USER CODE END RTC_MspInit 1 */

  }

}
 80016b8:	bf00      	nop
 80016ba:	3718      	adds	r7, #24
 80016bc:	46bd      	mov	sp, r7
 80016be:	bd80      	pop	{r7, pc}
 80016c0:	40002800 	.word	0x40002800
 80016c4:	42470e3c 	.word	0x42470e3c

080016c8 <HAL_TIM_Base_MspInit>:
  * This function configures the hardware resources used in this example
  * @param htim_base: TIM_Base handle pointer
  * @retval None
  */
void HAL_TIM_Base_MspInit(TIM_HandleTypeDef* htim_base)
{
 80016c8:	b580      	push	{r7, lr}
 80016ca:	b086      	sub	sp, #24
 80016cc:	af00      	add	r7, sp, #0
 80016ce:	6078      	str	r0, [r7, #4]
  if(htim_base->Instance==TIM1)
 80016d0:	687b      	ldr	r3, [r7, #4]
 80016d2:	681b      	ldr	r3, [r3, #0]
 80016d4:	4a92      	ldr	r2, [pc, #584]	@ (8001920 <HAL_TIM_Base_MspInit+0x258>)
 80016d6:	4293      	cmp	r3, r2
 80016d8:	d10e      	bne.n	80016f8 <HAL_TIM_Base_MspInit+0x30>
  {
    /* USER CODE BEGIN TIM1_MspInit 0 */

    /* USER CODE END TIM1_MspInit 0 */
    /* Peripheral clock enable */
    __HAL_RCC_TIM1_CLK_ENABLE();
 80016da:	2300      	movs	r3, #0
 80016dc:	617b      	str	r3, [r7, #20]
 80016de:	4b91      	ldr	r3, [pc, #580]	@ (8001924 <HAL_TIM_Base_MspInit+0x25c>)
 80016e0:	6c5b      	ldr	r3, [r3, #68]	@ 0x44
 80016e2:	4a90      	ldr	r2, [pc, #576]	@ (8001924 <HAL_TIM_Base_MspInit+0x25c>)
 80016e4:	f043 0301 	orr.w	r3, r3, #1
 80016e8:	6453      	str	r3, [r2, #68]	@ 0x44
 80016ea:	4b8e      	ldr	r3, [pc, #568]	@ (8001924 <HAL_TIM_Base_MspInit+0x25c>)
 80016ec:	6c5b      	ldr	r3, [r3, #68]	@ 0x44
 80016ee:	f003 0301 	and.w	r3, r3, #1
 80016f2:	617b      	str	r3, [r7, #20]
 80016f4:	697b      	ldr	r3, [r7, #20]
    /* USER CODE BEGIN TIM5_MspInit 1 */

    /* USER CODE END TIM5_MspInit 1 */
  }

}
 80016f6:	e10f      	b.n	8001918 <HAL_TIM_Base_MspInit+0x250>
  else if(htim_base->Instance==TIM3)
 80016f8:	687b      	ldr	r3, [r7, #4]
 80016fa:	681b      	ldr	r3, [r3, #0]
 80016fc:	4a8a      	ldr	r2, [pc, #552]	@ (8001928 <HAL_TIM_Base_MspInit+0x260>)
 80016fe:	4293      	cmp	r3, r2
 8001700:	d10e      	bne.n	8001720 <HAL_TIM_Base_MspInit+0x58>
    __HAL_RCC_TIM3_CLK_ENABLE();
 8001702:	2300      	movs	r3, #0
 8001704:	613b      	str	r3, [r7, #16]
 8001706:	4b87      	ldr	r3, [pc, #540]	@ (8001924 <HAL_TIM_Base_MspInit+0x25c>)
 8001708:	6c1b      	ldr	r3, [r3, #64]	@ 0x40
 800170a:	4a86      	ldr	r2, [pc, #536]	@ (8001924 <HAL_TIM_Base_MspInit+0x25c>)
 800170c:	f043 0302 	orr.w	r3, r3, #2
 8001710:	6413      	str	r3, [r2, #64]	@ 0x40
 8001712:	4b84      	ldr	r3, [pc, #528]	@ (8001924 <HAL_TIM_Base_MspInit+0x25c>)
 8001714:	6c1b      	ldr	r3, [r3, #64]	@ 0x40
 8001716:	f003 0302 	and.w	r3, r3, #2
 800171a:	613b      	str	r3, [r7, #16]
 800171c:	693b      	ldr	r3, [r7, #16]
}
 800171e:	e0fb      	b.n	8001918 <HAL_TIM_Base_MspInit+0x250>
  else if(htim_base->Instance==TIM4)
 8001720:	687b      	ldr	r3, [r7, #4]
 8001722:	681b      	ldr	r3, [r3, #0]
 8001724:	4a81      	ldr	r2, [pc, #516]	@ (800192c <HAL_TIM_Base_MspInit+0x264>)
 8001726:	4293      	cmp	r3, r2
 8001728:	d116      	bne.n	8001758 <HAL_TIM_Base_MspInit+0x90>
    __HAL_RCC_TIM4_CLK_ENABLE();
 800172a:	2300      	movs	r3, #0
 800172c:	60fb      	str	r3, [r7, #12]
 800172e:	4b7d      	ldr	r3, [pc, #500]	@ (8001924 <HAL_TIM_Base_MspInit+0x25c>)
 8001730:	6c1b      	ldr	r3, [r3, #64]	@ 0x40
 8001732:	4a7c      	ldr	r2, [pc, #496]	@ (8001924 <HAL_TIM_Base_MspInit+0x25c>)
 8001734:	f043 0304 	orr.w	r3, r3, #4
 8001738:	6413      	str	r3, [r2, #64]	@ 0x40
 800173a:	4b7a      	ldr	r3, [pc, #488]	@ (8001924 <HAL_TIM_Base_MspInit+0x25c>)
 800173c:	6c1b      	ldr	r3, [r3, #64]	@ 0x40
 800173e:	f003 0304 	and.w	r3, r3, #4
 8001742:	60fb      	str	r3, [r7, #12]
 8001744:	68fb      	ldr	r3, [r7, #12]
    HAL_NVIC_SetPriority(TIM4_IRQn, 0, 0);
 8001746:	2200      	movs	r2, #0
 8001748:	2100      	movs	r1, #0
 800174a:	201e      	movs	r0, #30
 800174c:	f001 f98f 	bl	8002a6e <HAL_NVIC_SetPriority>
    HAL_NVIC_EnableIRQ(TIM4_IRQn);
 8001750:	201e      	movs	r0, #30
 8001752:	f001 f9a8 	bl	8002aa6 <HAL_NVIC_EnableIRQ>
}
 8001756:	e0df      	b.n	8001918 <HAL_TIM_Base_MspInit+0x250>
  else if(htim_base->Instance==TIM5)
 8001758:	687b      	ldr	r3, [r7, #4]
 800175a:	681b      	ldr	r3, [r3, #0]
 800175c:	4a74      	ldr	r2, [pc, #464]	@ (8001930 <HAL_TIM_Base_MspInit+0x268>)
 800175e:	4293      	cmp	r3, r2
 8001760:	f040 80da 	bne.w	8001918 <HAL_TIM_Base_MspInit+0x250>
    __HAL_RCC_TIM5_CLK_ENABLE();
 8001764:	2300      	movs	r3, #0
 8001766:	60bb      	str	r3, [r7, #8]
 8001768:	4b6e      	ldr	r3, [pc, #440]	@ (8001924 <HAL_TIM_Base_MspInit+0x25c>)
 800176a:	6c1b      	ldr	r3, [r3, #64]	@ 0x40
 800176c:	4a6d      	ldr	r2, [pc, #436]	@ (8001924 <HAL_TIM_Base_MspInit+0x25c>)
 800176e:	f043 0308 	orr.w	r3, r3, #8
 8001772:	6413      	str	r3, [r2, #64]	@ 0x40
 8001774:	4b6b      	ldr	r3, [pc, #428]	@ (8001924 <HAL_TIM_Base_MspInit+0x25c>)
 8001776:	6c1b      	ldr	r3, [r3, #64]	@ 0x40
 8001778:	f003 0308 	and.w	r3, r3, #8
 800177c:	60bb      	str	r3, [r7, #8]
 800177e:	68bb      	ldr	r3, [r7, #8]
    hdma_tim5_ch1.Instance = DMA1_Stream2;
 8001780:	4b6c      	ldr	r3, [pc, #432]	@ (8001934 <HAL_TIM_Base_MspInit+0x26c>)
 8001782:	4a6d      	ldr	r2, [pc, #436]	@ (8001938 <HAL_TIM_Base_MspInit+0x270>)
 8001784:	601a      	str	r2, [r3, #0]
    hdma_tim5_ch1.Init.Channel = DMA_CHANNEL_6;
 8001786:	4b6b      	ldr	r3, [pc, #428]	@ (8001934 <HAL_TIM_Base_MspInit+0x26c>)
 8001788:	f04f 6240 	mov.w	r2, #201326592	@ 0xc000000
 800178c:	605a      	str	r2, [r3, #4]
    hdma_tim5_ch1.Init.Direction = DMA_PERIPH_TO_MEMORY;
 800178e:	4b69      	ldr	r3, [pc, #420]	@ (8001934 <HAL_TIM_Base_MspInit+0x26c>)
 8001790:	2200      	movs	r2, #0
 8001792:	609a      	str	r2, [r3, #8]
    hdma_tim5_ch1.Init.PeriphInc = DMA_PINC_DISABLE;
 8001794:	4b67      	ldr	r3, [pc, #412]	@ (8001934 <HAL_TIM_Base_MspInit+0x26c>)
 8001796:	2200      	movs	r2, #0
 8001798:	60da      	str	r2, [r3, #12]
    hdma_tim5_ch1.Init.MemInc = DMA_MINC_ENABLE;
 800179a:	4b66      	ldr	r3, [pc, #408]	@ (8001934 <HAL_TIM_Base_MspInit+0x26c>)
 800179c:	f44f 6280 	mov.w	r2, #1024	@ 0x400
 80017a0:	611a      	str	r2, [r3, #16]
    hdma_tim5_ch1.Init.PeriphDataAlignment = DMA_PDATAALIGN_WORD;
 80017a2:	4b64      	ldr	r3, [pc, #400]	@ (8001934 <HAL_TIM_Base_MspInit+0x26c>)
 80017a4:	f44f 5280 	mov.w	r2, #4096	@ 0x1000
 80017a8:	615a      	str	r2, [r3, #20]
    hdma_tim5_ch1.Init.MemDataAlignment = DMA_MDATAALIGN_WORD;
 80017aa:	4b62      	ldr	r3, [pc, #392]	@ (8001934 <HAL_TIM_Base_MspInit+0x26c>)
 80017ac:	f44f 4280 	mov.w	r2, #16384	@ 0x4000
 80017b0:	619a      	str	r2, [r3, #24]
    hdma_tim5_ch1.Init.Mode = DMA_NORMAL;
 80017b2:	4b60      	ldr	r3, [pc, #384]	@ (8001934 <HAL_TIM_Base_MspInit+0x26c>)
 80017b4:	2200      	movs	r2, #0
 80017b6:	61da      	str	r2, [r3, #28]
    hdma_tim5_ch1.Init.Priority = DMA_PRIORITY_LOW;
 80017b8:	4b5e      	ldr	r3, [pc, #376]	@ (8001934 <HAL_TIM_Base_MspInit+0x26c>)
 80017ba:	2200      	movs	r2, #0
 80017bc:	621a      	str	r2, [r3, #32]
    hdma_tim5_ch1.Init.FIFOMode = DMA_FIFOMODE_DISABLE;
 80017be:	4b5d      	ldr	r3, [pc, #372]	@ (8001934 <HAL_TIM_Base_MspInit+0x26c>)
 80017c0:	2200      	movs	r2, #0
 80017c2:	625a      	str	r2, [r3, #36]	@ 0x24
    if (HAL_DMA_Init(&hdma_tim5_ch1) != HAL_OK)
 80017c4:	485b      	ldr	r0, [pc, #364]	@ (8001934 <HAL_TIM_Base_MspInit+0x26c>)
 80017c6:	f001 f989 	bl	8002adc <HAL_DMA_Init>
 80017ca:	4603      	mov	r3, r0
 80017cc:	2b00      	cmp	r3, #0
 80017ce:	d001      	beq.n	80017d4 <HAL_TIM_Base_MspInit+0x10c>
      Error_Handler();
 80017d0:	f7ff fe5a 	bl	8001488 <Error_Handler>
    __HAL_LINKDMA(htim_base,hdma[TIM_DMA_ID_CC1],hdma_tim5_ch1);
 80017d4:	687b      	ldr	r3, [r7, #4]
 80017d6:	4a57      	ldr	r2, [pc, #348]	@ (8001934 <HAL_TIM_Base_MspInit+0x26c>)
 80017d8:	625a      	str	r2, [r3, #36]	@ 0x24
 80017da:	4a56      	ldr	r2, [pc, #344]	@ (8001934 <HAL_TIM_Base_MspInit+0x26c>)
 80017dc:	687b      	ldr	r3, [r7, #4]
 80017de:	6393      	str	r3, [r2, #56]	@ 0x38
    hdma_tim5_ch2.Instance = DMA1_Stream4;
 80017e0:	4b56      	ldr	r3, [pc, #344]	@ (800193c <HAL_TIM_Base_MspInit+0x274>)
 80017e2:	4a57      	ldr	r2, [pc, #348]	@ (8001940 <HAL_TIM_Base_MspInit+0x278>)
 80017e4:	601a      	str	r2, [r3, #0]
    hdma_tim5_ch2.Init.Channel = DMA_CHANNEL_6;
 80017e6:	4b55      	ldr	r3, [pc, #340]	@ (800193c <HAL_TIM_Base_MspInit+0x274>)
 80017e8:	f04f 6240 	mov.w	r2, #201326592	@ 0xc000000
 80017ec:	605a      	str	r2, [r3, #4]
    hdma_tim5_ch2.Init.Direction = DMA_PERIPH_TO_MEMORY;
 80017ee:	4b53      	ldr	r3, [pc, #332]	@ (800193c <HAL_TIM_Base_MspInit+0x274>)
 80017f0:	2200      	movs	r2, #0
 80017f2:	609a      	str	r2, [r3, #8]
    hdma_tim5_ch2.Init.PeriphInc = DMA_PINC_DISABLE;
 80017f4:	4b51      	ldr	r3, [pc, #324]	@ (800193c <HAL_TIM_Base_MspInit+0x274>)
 80017f6:	2200      	movs	r2, #0
 80017f8:	60da      	str	r2, [r3, #12]
    hdma_tim5_ch2.Init.MemInc = DMA_MINC_ENABLE;
 80017fa:	4b50      	ldr	r3, [pc, #320]	@ (800193c <HAL_TIM_Base_MspInit+0x274>)
 80017fc:	f44f 6280 	mov.w	r2, #1024	@ 0x400
 8001800:	611a      	str	r2, [r3, #16]
    hdma_tim5_ch2.Init.PeriphDataAlignment = DMA_PDATAALIGN_WORD;
 8001802:	4b4e      	ldr	r3, [pc, #312]	@ (800193c <HAL_TIM_Base_MspInit+0x274>)
 8001804:	f44f 5280 	mov.w	r2, #4096	@ 0x1000
 8001808:	615a      	str	r2, [r3, #20]
    hdma_tim5_ch2.Init.MemDataAlignment = DMA_MDATAALIGN_WORD;
 800180a:	4b4c      	ldr	r3, [pc, #304]	@ (800193c <HAL_TIM_Base_MspInit+0x274>)
 800180c:	f44f 4280 	mov.w	r2, #16384	@ 0x4000
 8001810:	619a      	str	r2, [r3, #24]
    hdma_tim5_ch2.Init.Mode = DMA_NORMAL;
 8001812:	4b4a      	ldr	r3, [pc, #296]	@ (800193c <HAL_TIM_Base_MspInit+0x274>)
 8001814:	2200      	movs	r2, #0
 8001816:	61da      	str	r2, [r3, #28]
    hdma_tim5_ch2.Init.Priority = DMA_PRIORITY_LOW;
 8001818:	4b48      	ldr	r3, [pc, #288]	@ (800193c <HAL_TIM_Base_MspInit+0x274>)
 800181a:	2200      	movs	r2, #0
 800181c:	621a      	str	r2, [r3, #32]
    hdma_tim5_ch2.Init.FIFOMode = DMA_FIFOMODE_DISABLE;
 800181e:	4b47      	ldr	r3, [pc, #284]	@ (800193c <HAL_TIM_Base_MspInit+0x274>)
 8001820:	2200      	movs	r2, #0
 8001822:	625a      	str	r2, [r3, #36]	@ 0x24
    if (HAL_DMA_Init(&hdma_tim5_ch2) != HAL_OK)
 8001824:	4845      	ldr	r0, [pc, #276]	@ (800193c <HAL_TIM_Base_MspInit+0x274>)
 8001826:	f001 f959 	bl	8002adc <HAL_DMA_Init>
 800182a:	4603      	mov	r3, r0
 800182c:	2b00      	cmp	r3, #0
 800182e:	d001      	beq.n	8001834 <HAL_TIM_Base_MspInit+0x16c>
      Error_Handler();
 8001830:	f7ff fe2a 	bl	8001488 <Error_Handler>
    __HAL_LINKDMA(htim_base,hdma[TIM_DMA_ID_CC2],hdma_tim5_ch2);
 8001834:	687b      	ldr	r3, [r7, #4]
 8001836:	4a41      	ldr	r2, [pc, #260]	@ (800193c <HAL_TIM_Base_MspInit+0x274>)
 8001838:	629a      	str	r2, [r3, #40]	@ 0x28
 800183a:	4a40      	ldr	r2, [pc, #256]	@ (800193c <HAL_TIM_Base_MspInit+0x274>)
 800183c:	687b      	ldr	r3, [r7, #4]
 800183e:	6393      	str	r3, [r2, #56]	@ 0x38
    hdma_tim5_ch3_up.Instance = DMA1_Stream0;
 8001840:	4b40      	ldr	r3, [pc, #256]	@ (8001944 <HAL_TIM_Base_MspInit+0x27c>)
 8001842:	4a41      	ldr	r2, [pc, #260]	@ (8001948 <HAL_TIM_Base_MspInit+0x280>)
 8001844:	601a      	str	r2, [r3, #0]
    hdma_tim5_ch3_up.Init.Channel = DMA_CHANNEL_6;
 8001846:	4b3f      	ldr	r3, [pc, #252]	@ (8001944 <HAL_TIM_Base_MspInit+0x27c>)
 8001848:	f04f 6240 	mov.w	r2, #201326592	@ 0xc000000
 800184c:	605a      	str	r2, [r3, #4]
    hdma_tim5_ch3_up.Init.Direction = DMA_PERIPH_TO_MEMORY;
 800184e:	4b3d      	ldr	r3, [pc, #244]	@ (8001944 <HAL_TIM_Base_MspInit+0x27c>)
 8001850:	2200      	movs	r2, #0
 8001852:	609a      	str	r2, [r3, #8]
    hdma_tim5_ch3_up.Init.PeriphInc = DMA_PINC_DISABLE;
 8001854:	4b3b      	ldr	r3, [pc, #236]	@ (8001944 <HAL_TIM_Base_MspInit+0x27c>)
 8001856:	2200      	movs	r2, #0
 8001858:	60da      	str	r2, [r3, #12]
    hdma_tim5_ch3_up.Init.MemInc = DMA_MINC_ENABLE;
 800185a:	4b3a      	ldr	r3, [pc, #232]	@ (8001944 <HAL_TIM_Base_MspInit+0x27c>)
 800185c:	f44f 6280 	mov.w	r2, #1024	@ 0x400
 8001860:	611a      	str	r2, [r3, #16]
    hdma_tim5_ch3_up.Init.PeriphDataAlignment = DMA_PDATAALIGN_WORD;
 8001862:	4b38      	ldr	r3, [pc, #224]	@ (8001944 <HAL_TIM_Base_MspInit+0x27c>)
 8001864:	f44f 5280 	mov.w	r2, #4096	@ 0x1000
 8001868:	615a      	str	r2, [r3, #20]
    hdma_tim5_ch3_up.Init.MemDataAlignment = DMA_MDATAALIGN_WORD;
 800186a:	4b36      	ldr	r3, [pc, #216]	@ (8001944 <HAL_TIM_Base_MspInit+0x27c>)
 800186c:	f44f 4280 	mov.w	r2, #16384	@ 0x4000
 8001870:	619a      	str	r2, [r3, #24]
    hdma_tim5_ch3_up.Init.Mode = DMA_NORMAL;
 8001872:	4b34      	ldr	r3, [pc, #208]	@ (8001944 <HAL_TIM_Base_MspInit+0x27c>)
 8001874:	2200      	movs	r2, #0
 8001876:	61da      	str	r2, [r3, #28]
    hdma_tim5_ch3_up.Init.Priority = DMA_PRIORITY_LOW;
 8001878:	4b32      	ldr	r3, [pc, #200]	@ (8001944 <HAL_TIM_Base_MspInit+0x27c>)
 800187a:	2200      	movs	r2, #0
 800187c:	621a      	str	r2, [r3, #32]
    hdma_tim5_ch3_up.Init.FIFOMode = DMA_FIFOMODE_DISABLE;
 800187e:	4b31      	ldr	r3, [pc, #196]	@ (8001944 <HAL_TIM_Base_MspInit+0x27c>)
 8001880:	2200      	movs	r2, #0
 8001882:	625a      	str	r2, [r3, #36]	@ 0x24
    if (HAL_DMA_Init(&hdma_tim5_ch3_up) != HAL_OK)
 8001884:	482f      	ldr	r0, [pc, #188]	@ (8001944 <HAL_TIM_Base_MspInit+0x27c>)
 8001886:	f001 f929 	bl	8002adc <HAL_DMA_Init>
 800188a:	4603      	mov	r3, r0
 800188c:	2b00      	cmp	r3, #0
 800188e:	d001      	beq.n	8001894 <HAL_TIM_Base_MspInit+0x1cc>
      Error_Handler();
 8001890:	f7ff fdfa 	bl	8001488 <Error_Handler>
    __HAL_LINKDMA(htim_base,hdma[TIM_DMA_ID_CC3],hdma_tim5_ch3_up);
 8001894:	687b      	ldr	r3, [r7, #4]
 8001896:	4a2b      	ldr	r2, [pc, #172]	@ (8001944 <HAL_TIM_Base_MspInit+0x27c>)
 8001898:	62da      	str	r2, [r3, #44]	@ 0x2c
 800189a:	4a2a      	ldr	r2, [pc, #168]	@ (8001944 <HAL_TIM_Base_MspInit+0x27c>)
 800189c:	687b      	ldr	r3, [r7, #4]
 800189e:	6393      	str	r3, [r2, #56]	@ 0x38
    __HAL_LINKDMA(htim_base,hdma[TIM_DMA_ID_UPDATE],hdma_tim5_ch3_up);
 80018a0:	687b      	ldr	r3, [r7, #4]
 80018a2:	4a28      	ldr	r2, [pc, #160]	@ (8001944 <HAL_TIM_Base_MspInit+0x27c>)
 80018a4:	621a      	str	r2, [r3, #32]
 80018a6:	4a27      	ldr	r2, [pc, #156]	@ (8001944 <HAL_TIM_Base_MspInit+0x27c>)
 80018a8:	687b      	ldr	r3, [r7, #4]
 80018aa:	6393      	str	r3, [r2, #56]	@ 0x38
    hdma_tim5_ch4_trig.Instance = DMA1_Stream1;
 80018ac:	4b27      	ldr	r3, [pc, #156]	@ (800194c <HAL_TIM_Base_MspInit+0x284>)
 80018ae:	4a28      	ldr	r2, [pc, #160]	@ (8001950 <HAL_TIM_Base_MspInit+0x288>)
 80018b0:	601a      	str	r2, [r3, #0]
    hdma_tim5_ch4_trig.Init.Channel = DMA_CHANNEL_6;
 80018b2:	4b26      	ldr	r3, [pc, #152]	@ (800194c <HAL_TIM_Base_MspInit+0x284>)
 80018b4:	f04f 6240 	mov.w	r2, #201326592	@ 0xc000000
 80018b8:	605a      	str	r2, [r3, #4]
    hdma_tim5_ch4_trig.Init.Direction = DMA_PERIPH_TO_MEMORY;
 80018ba:	4b24      	ldr	r3, [pc, #144]	@ (800194c <HAL_TIM_Base_MspInit+0x284>)
 80018bc:	2200      	movs	r2, #0
 80018be:	609a      	str	r2, [r3, #8]
    hdma_tim5_ch4_trig.Init.PeriphInc = DMA_PINC_DISABLE;
 80018c0:	4b22      	ldr	r3, [pc, #136]	@ (800194c <HAL_TIM_Base_MspInit+0x284>)
 80018c2:	2200      	movs	r2, #0
 80018c4:	60da      	str	r2, [r3, #12]
    hdma_tim5_ch4_trig.Init.MemInc = DMA_MINC_ENABLE;
 80018c6:	4b21      	ldr	r3, [pc, #132]	@ (800194c <HAL_TIM_Base_MspInit+0x284>)
 80018c8:	f44f 6280 	mov.w	r2, #1024	@ 0x400
 80018cc:	611a      	str	r2, [r3, #16]
    hdma_tim5_ch4_trig.Init.PeriphDataAlignment = DMA_PDATAALIGN_WORD;
 80018ce:	4b1f      	ldr	r3, [pc, #124]	@ (800194c <HAL_TIM_Base_MspInit+0x284>)
 80018d0:	f44f 5280 	mov.w	r2, #4096	@ 0x1000
 80018d4:	615a      	str	r2, [r3, #20]
    hdma_tim5_ch4_trig.Init.MemDataAlignment = DMA_MDATAALIGN_WORD;
 80018d6:	4b1d      	ldr	r3, [pc, #116]	@ (800194c <HAL_TIM_Base_MspInit+0x284>)
 80018d8:	f44f 4280 	mov.w	r2, #16384	@ 0x4000
 80018dc:	619a      	str	r2, [r3, #24]
    hdma_tim5_ch4_trig.Init.Mode = DMA_NORMAL;
 80018de:	4b1b      	ldr	r3, [pc, #108]	@ (800194c <HAL_TIM_Base_MspInit+0x284>)
 80018e0:	2200      	movs	r2, #0
 80018e2:	61da      	str	r2, [r3, #28]
    hdma_tim5_ch4_trig.Init.Priority = DMA_PRIORITY_LOW;
 80018e4:	4b19      	ldr	r3, [pc, #100]	@ (800194c <HAL_TIM_Base_MspInit+0x284>)
 80018e6:	2200      	movs	r2, #0
 80018e8:	621a      	str	r2, [r3, #32]
    hdma_tim5_ch4_trig.Init.FIFOMode = DMA_FIFOMODE_DISABLE;
 80018ea:	4b18      	ldr	r3, [pc, #96]	@ (800194c <HAL_TIM_Base_MspInit+0x284>)
 80018ec:	2200      	movs	r2, #0
 80018ee:	625a      	str	r2, [r3, #36]	@ 0x24
    if (HAL_DMA_Init(&hdma_tim5_ch4_trig) != HAL_OK)
 80018f0:	4816      	ldr	r0, [pc, #88]	@ (800194c <HAL_TIM_Base_MspInit+0x284>)
 80018f2:	f001 f8f3 	bl	8002adc <HAL_DMA_Init>
 80018f6:	4603      	mov	r3, r0
 80018f8:	2b00      	cmp	r3, #0
 80018fa:	d001      	beq.n	8001900 <HAL_TIM_Base_MspInit+0x238>
      Error_Handler();
 80018fc:	f7ff fdc4 	bl	8001488 <Error_Handler>
    __HAL_LINKDMA(htim_base,hdma[TIM_DMA_ID_CC4],hdma_tim5_ch4_trig);
 8001900:	687b      	ldr	r3, [r7, #4]
 8001902:	4a12      	ldr	r2, [pc, #72]	@ (800194c <HAL_TIM_Base_MspInit+0x284>)
 8001904:	631a      	str	r2, [r3, #48]	@ 0x30
 8001906:	4a11      	ldr	r2, [pc, #68]	@ (800194c <HAL_TIM_Base_MspInit+0x284>)
 8001908:	687b      	ldr	r3, [r7, #4]
 800190a:	6393      	str	r3, [r2, #56]	@ 0x38
    __HAL_LINKDMA(htim_base,hdma[TIM_DMA_ID_TRIGGER],hdma_tim5_ch4_trig);
 800190c:	687b      	ldr	r3, [r7, #4]
 800190e:	4a0f      	ldr	r2, [pc, #60]	@ (800194c <HAL_TIM_Base_MspInit+0x284>)
 8001910:	639a      	str	r2, [r3, #56]	@ 0x38
 8001912:	4a0e      	ldr	r2, [pc, #56]	@ (800194c <HAL_TIM_Base_MspInit+0x284>)
 8001914:	687b      	ldr	r3, [r7, #4]
 8001916:	6393      	str	r3, [r2, #56]	@ 0x38
}
 8001918:	bf00      	nop
 800191a:	3718      	adds	r7, #24
 800191c:	46bd      	mov	sp, r7
 800191e:	bd80      	pop	{r7, pc}
 8001920:	40010000 	.word	0x40010000
 8001924:	40023800 	.word	0x40023800
 8001928:	40000400 	.word	0x40000400
 800192c:	40000800 	.word	0x40000800
 8001930:	40000c00 	.word	0x40000c00
 8001934:	2000026c 	.word	0x2000026c
 8001938:	40026040 	.word	0x40026040
 800193c:	200002cc 	.word	0x200002cc
 8001940:	40026070 	.word	0x40026070
 8001944:	2000032c 	.word	0x2000032c
 8001948:	40026010 	.word	0x40026010
 800194c:	2000038c 	.word	0x2000038c
 8001950:	40026028 	.word	0x40026028

08001954 <HAL_TIM_MspPostInit>:

void HAL_TIM_MspPostInit(TIM_HandleTypeDef* htim)
{
 8001954:	b580      	push	{r7, lr}
 8001956:	b08a      	sub	sp, #40	@ 0x28
 8001958:	af00      	add	r7, sp, #0
 800195a:	6078      	str	r0, [r7, #4]
  GPIO_InitTypeDef GPIO_InitStruct = {0};
 800195c:	f107 0314 	add.w	r3, r7, #20
 8001960:	2200      	movs	r2, #0
 8001962:	601a      	str	r2, [r3, #0]
 8001964:	605a      	str	r2, [r3, #4]
 8001966:	609a      	str	r2, [r3, #8]
 8001968:	60da      	str	r2, [r3, #12]
 800196a:	611a      	str	r2, [r3, #16]
  if(htim->Instance==TIM1)
 800196c:	687b      	ldr	r3, [r7, #4]
 800196e:	681b      	ldr	r3, [r3, #0]
 8001970:	4a36      	ldr	r2, [pc, #216]	@ (8001a4c <HAL_TIM_MspPostInit+0xf8>)
 8001972:	4293      	cmp	r3, r2
 8001974:	d11f      	bne.n	80019b6 <HAL_TIM_MspPostInit+0x62>
  {
    /* USER CODE BEGIN TIM1_MspPostInit 0 */

    /* USER CODE END TIM1_MspPostInit 0 */
    __HAL_RCC_GPIOE_CLK_ENABLE();
 8001976:	2300      	movs	r3, #0
 8001978:	613b      	str	r3, [r7, #16]
 800197a:	4b35      	ldr	r3, [pc, #212]	@ (8001a50 <HAL_TIM_MspPostInit+0xfc>)
 800197c:	6b1b      	ldr	r3, [r3, #48]	@ 0x30
 800197e:	4a34      	ldr	r2, [pc, #208]	@ (8001a50 <HAL_TIM_MspPostInit+0xfc>)
 8001980:	f043 0310 	orr.w	r3, r3, #16
 8001984:	6313      	str	r3, [r2, #48]	@ 0x30
 8001986:	4b32      	ldr	r3, [pc, #200]	@ (8001a50 <HAL_TIM_MspPostInit+0xfc>)
 8001988:	6b1b      	ldr	r3, [r3, #48]	@ 0x30
 800198a:	f003 0310 	and.w	r3, r3, #16
 800198e:	613b      	str	r3, [r7, #16]
 8001990:	693b      	ldr	r3, [r7, #16]
    /**TIM1 GPIO Configuration
    PE13     ------> TIM1_CH3
    PE14     ------> TIM1_CH4
    */
    GPIO_InitStruct.Pin = GPIO_PIN_13|GPIO_PIN_14;
 8001992:	f44f 43c0 	mov.w	r3, #24576	@ 0x6000
 8001996:	617b      	str	r3, [r7, #20]
    GPIO_InitStruct.Mode = GPIO_MODE_AF_PP;
 8001998:	2302      	movs	r3, #2
 800199a:	61bb      	str	r3, [r7, #24]
    GPIO_InitStruct.Pull = GPIO_NOPULL;
 800199c:	2300      	movs	r3, #0
 800199e:	61fb      	str	r3, [r7, #28]
    GPIO_InitStruct.Speed = GPIO_SPEED_FREQ_LOW;
 80019a0:	2300      	movs	r3, #0
 80019a2:	623b      	str	r3, [r7, #32]
    GPIO_InitStruct.Alternate = GPIO_AF1_TIM1;
 80019a4:	2301      	movs	r3, #1
 80019a6:	627b      	str	r3, [r7, #36]	@ 0x24
    HAL_GPIO_Init(GPIOE, &GPIO_InitStruct);
 80019a8:	f107 0314 	add.w	r3, r7, #20
 80019ac:	4619      	mov	r1, r3
 80019ae:	4829      	ldr	r0, [pc, #164]	@ (8001a54 <HAL_TIM_MspPostInit+0x100>)
 80019b0:	f001 fc04 	bl	80031bc <HAL_GPIO_Init>
    /* USER CODE BEGIN TIM5_MspPostInit 1 */

    /* USER CODE END TIM5_MspPostInit 1 */
  }

}
 80019b4:	e046      	b.n	8001a44 <HAL_TIM_MspPostInit+0xf0>
  else if(htim->Instance==TIM3)
 80019b6:	687b      	ldr	r3, [r7, #4]
 80019b8:	681b      	ldr	r3, [r3, #0]
 80019ba:	4a27      	ldr	r2, [pc, #156]	@ (8001a58 <HAL_TIM_MspPostInit+0x104>)
 80019bc:	4293      	cmp	r3, r2
 80019be:	d11e      	bne.n	80019fe <HAL_TIM_MspPostInit+0xaa>
    __HAL_RCC_GPIOB_CLK_ENABLE();
 80019c0:	2300      	movs	r3, #0
 80019c2:	60fb      	str	r3, [r7, #12]
 80019c4:	4b22      	ldr	r3, [pc, #136]	@ (8001a50 <HAL_TIM_MspPostInit+0xfc>)
 80019c6:	6b1b      	ldr	r3, [r3, #48]	@ 0x30
 80019c8:	4a21      	ldr	r2, [pc, #132]	@ (8001a50 <HAL_TIM_MspPostInit+0xfc>)
 80019ca:	f043 0302 	orr.w	r3, r3, #2
 80019ce:	6313      	str	r3, [r2, #48]	@ 0x30
 80019d0:	4b1f      	ldr	r3, [pc, #124]	@ (8001a50 <HAL_TIM_MspPostInit+0xfc>)
 80019d2:	6b1b      	ldr	r3, [r3, #48]	@ 0x30
 80019d4:	f003 0302 	and.w	r3, r3, #2
 80019d8:	60fb      	str	r3, [r7, #12]
 80019da:	68fb      	ldr	r3, [r7, #12]
    GPIO_InitStruct.Pin = GPIO_PIN_0|GPIO_PIN_1;
 80019dc:	2303      	movs	r3, #3
 80019de:	617b      	str	r3, [r7, #20]
    GPIO_InitStruct.Mode = GPIO_MODE_AF_PP;
 80019e0:	2302      	movs	r3, #2
 80019e2:	61bb      	str	r3, [r7, #24]
    GPIO_InitStruct.Pull = GPIO_NOPULL;
 80019e4:	2300      	movs	r3, #0
 80019e6:	61fb      	str	r3, [r7, #28]
    GPIO_InitStruct.Speed = GPIO_SPEED_FREQ_LOW;
 80019e8:	2300      	movs	r3, #0
 80019ea:	623b      	str	r3, [r7, #32]
    GPIO_InitStruct.Alternate = GPIO_AF2_TIM3;
 80019ec:	2302      	movs	r3, #2
 80019ee:	627b      	str	r3, [r7, #36]	@ 0x24
    HAL_GPIO_Init(GPIOB, &GPIO_InitStruct);
 80019f0:	f107 0314 	add.w	r3, r7, #20
 80019f4:	4619      	mov	r1, r3
 80019f6:	4819      	ldr	r0, [pc, #100]	@ (8001a5c <HAL_TIM_MspPostInit+0x108>)
 80019f8:	f001 fbe0 	bl	80031bc <HAL_GPIO_Init>
}
 80019fc:	e022      	b.n	8001a44 <HAL_TIM_MspPostInit+0xf0>
  else if(htim->Instance==TIM5)
 80019fe:	687b      	ldr	r3, [r7, #4]
 8001a00:	681b      	ldr	r3, [r3, #0]
 8001a02:	4a17      	ldr	r2, [pc, #92]	@ (8001a60 <HAL_TIM_MspPostInit+0x10c>)
 8001a04:	4293      	cmp	r3, r2
 8001a06:	d11d      	bne.n	8001a44 <HAL_TIM_MspPostInit+0xf0>
    __HAL_RCC_GPIOA_CLK_ENABLE();
 8001a08:	2300      	movs	r3, #0
 8001a0a:	60bb      	str	r3, [r7, #8]
 8001a0c:	4b10      	ldr	r3, [pc, #64]	@ (8001a50 <HAL_TIM_MspPostInit+0xfc>)
 8001a0e:	6b1b      	ldr	r3, [r3, #48]	@ 0x30
 8001a10:	4a0f      	ldr	r2, [pc, #60]	@ (8001a50 <HAL_TIM_MspPostInit+0xfc>)
 8001a12:	f043 0301 	orr.w	r3, r3, #1
 8001a16:	6313      	str	r3, [r2, #48]	@ 0x30
 8001a18:	4b0d      	ldr	r3, [pc, #52]	@ (8001a50 <HAL_TIM_MspPostInit+0xfc>)
 8001a1a:	6b1b      	ldr	r3, [r3, #48]	@ 0x30
 8001a1c:	f003 0301 	and.w	r3, r3, #1
 8001a20:	60bb      	str	r3, [r7, #8]
 8001a22:	68bb      	ldr	r3, [r7, #8]
    GPIO_InitStruct.Pin = GPIO_PIN_0|GPIO_PIN_1|GPIO_PIN_2|GPIO_PIN_3;
 8001a24:	230f      	movs	r3, #15
 8001a26:	617b      	str	r3, [r7, #20]
    GPIO_InitStruct.Mode = GPIO_MODE_AF_PP;
 8001a28:	2302      	movs	r3, #2
 8001a2a:	61bb      	str	r3, [r7, #24]
    GPIO_InitStruct.Pull = GPIO_NOPULL;
 8001a2c:	2300      	movs	r3, #0
 8001a2e:	61fb      	str	r3, [r7, #28]
    GPIO_InitStruct.Speed = GPIO_SPEED_FREQ_LOW;
 8001a30:	2300      	movs	r3, #0
 8001a32:	623b      	str	r3, [r7, #32]
    GPIO_InitStruct.Alternate = GPIO_AF2_TIM5;
 8001a34:	2302      	movs	r3, #2
 8001a36:	627b      	str	r3, [r7, #36]	@ 0x24
    HAL_GPIO_Init(GPIOA, &GPIO_InitStruct);
 8001a38:	f107 0314 	add.w	r3, r7, #20
 8001a3c:	4619      	mov	r1, r3
 8001a3e:	4809      	ldr	r0, [pc, #36]	@ (8001a64 <HAL_TIM_MspPostInit+0x110>)
 8001a40:	f001 fbbc 	bl	80031bc <HAL_GPIO_Init>
}
 8001a44:	bf00      	nop
 8001a46:	3728      	adds	r7, #40	@ 0x28
 8001a48:	46bd      	mov	sp, r7
 8001a4a:	bd80      	pop	{r7, pc}
 8001a4c:	40010000 	.word	0x40010000
 8001a50:	40023800 	.word	0x40023800
 8001a54:	40021000 	.word	0x40021000
 8001a58:	40000400 	.word	0x40000400
 8001a5c:	40020400 	.word	0x40020400
 8001a60:	40000c00 	.word	0x40000c00
 8001a64:	40020000 	.word	0x40020000

08001a68 <HAL_UART_MspInit>:
  * This function configures the hardware resources used in this example
  * @param huart: UART handle pointer
  * @retval None
  */
void HAL_UART_MspInit(UART_HandleTypeDef* huart)
{
 8001a68:	b580      	push	{r7, lr}
 8001a6a:	b08a      	sub	sp, #40	@ 0x28
 8001a6c:	af00      	add	r7, sp, #0
 8001a6e:	6078      	str	r0, [r7, #4]
  GPIO_InitTypeDef GPIO_InitStruct = {0};
 8001a70:	f107 0314 	add.w	r3, r7, #20
 8001a74:	2200      	movs	r2, #0
 8001a76:	601a      	str	r2, [r3, #0]
 8001a78:	605a      	str	r2, [r3, #4]
 8001a7a:	609a      	str	r2, [r3, #8]
 8001a7c:	60da      	str	r2, [r3, #12]
 8001a7e:	611a      	str	r2, [r3, #16]
  if(huart->Instance==UART4)
 8001a80:	687b      	ldr	r3, [r7, #4]
 8001a82:	681b      	ldr	r3, [r3, #0]
 8001a84:	4a19      	ldr	r2, [pc, #100]	@ (8001aec <HAL_UART_MspInit+0x84>)
 8001a86:	4293      	cmp	r3, r2
 8001a88:	d12c      	bne.n	8001ae4 <HAL_UART_MspInit+0x7c>
  {
    /* USER CODE BEGIN UART4_MspInit 0 */

    /* USER CODE END UART4_MspInit 0 */
    /* Peripheral clock enable */
    __HAL_RCC_UART4_CLK_ENABLE();
 8001a8a:	2300      	movs	r3, #0
 8001a8c:	613b      	str	r3, [r7, #16]
 8001a8e:	4b18      	ldr	r3, [pc, #96]	@ (8001af0 <HAL_UART_MspInit+0x88>)
 8001a90:	6c1b      	ldr	r3, [r3, #64]	@ 0x40
 8001a92:	4a17      	ldr	r2, [pc, #92]	@ (8001af0 <HAL_UART_MspInit+0x88>)
 8001a94:	f443 2300 	orr.w	r3, r3, #524288	@ 0x80000
 8001a98:	6413      	str	r3, [r2, #64]	@ 0x40
 8001a9a:	4b15      	ldr	r3, [pc, #84]	@ (8001af0 <HAL_UART_MspInit+0x88>)
 8001a9c:	6c1b      	ldr	r3, [r3, #64]	@ 0x40
 8001a9e:	f403 2300 	and.w	r3, r3, #524288	@ 0x80000
 8001aa2:	613b      	str	r3, [r7, #16]
 8001aa4:	693b      	ldr	r3, [r7, #16]

    __HAL_RCC_GPIOC_CLK_ENABLE();
 8001aa6:	2300      	movs	r3, #0
 8001aa8:	60fb      	str	r3, [r7, #12]
 8001aaa:	4b11      	ldr	r3, [pc, #68]	@ (8001af0 <HAL_UART_MspInit+0x88>)
 8001aac:	6b1b      	ldr	r3, [r3, #48]	@ 0x30
 8001aae:	4a10      	ldr	r2, [pc, #64]	@ (8001af0 <HAL_UART_MspInit+0x88>)
 8001ab0:	f043 0304 	orr.w	r3, r3, #4
 8001ab4:	6313      	str	r3, [r2, #48]	@ 0x30
 8001ab6:	4b0e      	ldr	r3, [pc, #56]	@ (8001af0 <HAL_UART_MspInit+0x88>)
 8001ab8:	6b1b      	ldr	r3, [r3, #48]	@ 0x30
 8001aba:	f003 0304 	and.w	r3, r3, #4
 8001abe:	60fb      	str	r3, [r7, #12]
 8001ac0:	68fb      	ldr	r3, [r7, #12]
    /**UART4 GPIO Configuration
    PC10     ------> UART4_TX
    PC11     ------> UART4_RX
    */
    GPIO_InitStruct.Pin = GPIO_PIN_10|GPIO_PIN_11;
 8001ac2:	f44f 6340 	mov.w	r3, #3072	@ 0xc00
 8001ac6:	617b      	str	r3, [r7, #20]
    GPIO_InitStruct.Mode = GPIO_MODE_AF_PP;
 8001ac8:	2302      	movs	r3, #2
 8001aca:	61bb      	str	r3, [r7, #24]
    GPIO_InitStruct.Pull = GPIO_NOPULL;
 8001acc:	2300      	movs	r3, #0
 8001ace:	61fb      	str	r3, [r7, #28]
    GPIO_InitStruct.Speed = GPIO_SPEED_FREQ_VERY_HIGH;
 8001ad0:	2303      	movs	r3, #3
 8001ad2:	623b      	str	r3, [r7, #32]
    GPIO_InitStruct.Alternate = GPIO_AF8_UART4;
 8001ad4:	2308      	movs	r3, #8
 8001ad6:	627b      	str	r3, [r7, #36]	@ 0x24
    HAL_GPIO_Init(GPIOC, &GPIO_InitStruct);
 8001ad8:	f107 0314 	add.w	r3, r7, #20
 8001adc:	4619      	mov	r1, r3
 8001ade:	4805      	ldr	r0, [pc, #20]	@ (8001af4 <HAL_UART_MspInit+0x8c>)
 8001ae0:	f001 fb6c 	bl	80031bc <HAL_GPIO_Init>

    /* USER CODE END UART4_MspInit 1 */

  }

}
 8001ae4:	bf00      	nop
 8001ae6:	3728      	adds	r7, #40	@ 0x28
 8001ae8:	46bd      	mov	sp, r7
 8001aea:	bd80      	pop	{r7, pc}
 8001aec:	40004c00 	.word	0x40004c00
 8001af0:	40023800 	.word	0x40023800
 8001af4:	40020800 	.word	0x40020800

08001af8 <NMI_Handler>:
/******************************************************************************/
/**
  * @brief This function handles Non maskable interrupt.
  */
void NMI_Handler(void)
{
 8001af8:	b480      	push	{r7}
 8001afa:	af00      	add	r7, sp, #0
  /* USER CODE BEGIN NonMaskableInt_IRQn 0 */

  /* USER CODE END NonMaskableInt_IRQn 0 */
  /* USER CODE BEGIN NonMaskableInt_IRQn 1 */
   while (1)
 8001afc:	bf00      	nop
 8001afe:	e7fd      	b.n	8001afc <NMI_Handler+0x4>

08001b00 <HardFault_Handler>:

/**
  * @brief This function handles Hard fault interrupt.
  */
void HardFault_Handler(void)
{
 8001b00:	b480      	push	{r7}
 8001b02:	af00      	add	r7, sp, #0
  /* USER CODE BEGIN HardFault_IRQn 0 */

  /* USER CODE END HardFault_IRQn 0 */
  while (1)
 8001b04:	bf00      	nop
 8001b06:	e7fd      	b.n	8001b04 <HardFault_Handler+0x4>

08001b08 <MemManage_Handler>:

/**
  * @brief This function handles Memory management fault.
  */
void MemManage_Handler(void)
{
 8001b08:	b480      	push	{r7}
 8001b0a:	af00      	add	r7, sp, #0
  /* USER CODE BEGIN MemoryManagement_IRQn 0 */

  /* USER CODE END MemoryManagement_IRQn 0 */
  while (1)
 8001b0c:	bf00      	nop
 8001b0e:	e7fd      	b.n	8001b0c <MemManage_Handler+0x4>

08001b10 <BusFault_Handler>:

/**
  * @brief This function handles Pre-fetch fault, memory access fault.
  */
void BusFault_Handler(void)
{
 8001b10:	b480      	push	{r7}
 8001b12:	af00      	add	r7, sp, #0
  /* USER CODE BEGIN BusFault_IRQn 0 */

  /* USER CODE END BusFault_IRQn 0 */
  while (1)
 8001b14:	bf00      	nop
 8001b16:	e7fd      	b.n	8001b14 <BusFault_Handler+0x4>

08001b18 <UsageFault_Handler>:

/**
  * @brief This function handles Undefined instruction or illegal state.
  */
void UsageFault_Handler(void)
{
 8001b18:	b480      	push	{r7}
 8001b1a:	af00      	add	r7, sp, #0
  /* USER CODE BEGIN UsageFault_IRQn 0 */

  /* USER CODE END UsageFault_IRQn 0 */
  while (1)
 8001b1c:	bf00      	nop
 8001b1e:	e7fd      	b.n	8001b1c <UsageFault_Handler+0x4>

08001b20 <SVC_Handler>:

/**
  * @brief This function handles System service call via SWI instruction.
  */
void SVC_Handler(void)
{
 8001b20:	b480      	push	{r7}
 8001b22:	af00      	add	r7, sp, #0

  /* USER CODE END SVCall_IRQn 0 */
  /* USER CODE BEGIN SVCall_IRQn 1 */

  /* USER CODE END SVCall_IRQn 1 */
}
 8001b24:	bf00      	nop
 8001b26:	46bd      	mov	sp, r7
 8001b28:	f85d 7b04 	ldr.w	r7, [sp], #4
 8001b2c:	4770      	bx	lr

08001b2e <DebugMon_Handler>:

/**
  * @brief This function handles Debug monitor.
  */
void DebugMon_Handler(void)
{
 8001b2e:	b480      	push	{r7}
 8001b30:	af00      	add	r7, sp, #0

  /* USER CODE END DebugMonitor_IRQn 0 */
  /* USER CODE BEGIN DebugMonitor_IRQn 1 */

  /* USER CODE END DebugMonitor_IRQn 1 */
}
 8001b32:	bf00      	nop
 8001b34:	46bd      	mov	sp, r7
 8001b36:	f85d 7b04 	ldr.w	r7, [sp], #4
 8001b3a:	4770      	bx	lr

08001b3c <PendSV_Handler>:

/**
  * @brief This function handles Pendable request for system service.
  */
void PendSV_Handler(void)
{
 8001b3c:	b480      	push	{r7}
 8001b3e:	af00      	add	r7, sp, #0

  /* USER CODE END PendSV_IRQn 0 */
  /* USER CODE BEGIN PendSV_IRQn 1 */

  /* USER CODE END PendSV_IRQn 1 */
}
 8001b40:	bf00      	nop
 8001b42:	46bd      	mov	sp, r7
 8001b44:	f85d 7b04 	ldr.w	r7, [sp], #4
 8001b48:	4770      	bx	lr

08001b4a <SysTick_Handler>:

/**
  * @brief This function handles System tick timer.
  */
void SysTick_Handler(void)
{
 8001b4a:	b580      	push	{r7, lr}
 8001b4c:	af00      	add	r7, sp, #0
  /* USER CODE BEGIN SysTick_IRQn 0 */

  /* USER CODE END SysTick_IRQn 0 */
  HAL_IncTick();
 8001b4e:	f000 fa63 	bl	8002018 <HAL_IncTick>
  /* USER CODE BEGIN SysTick_IRQn 1 */

  /* USER CODE END SysTick_IRQn 1 */
}
 8001b52:	bf00      	nop
 8001b54:	bd80      	pop	{r7, pc}
	...

08001b58 <RTC_WKUP_IRQHandler>:

/**
  * @brief This function handles RTC wake-up interrupt through EXTI line 22.
  */
void RTC_WKUP_IRQHandler(void)
{
 8001b58:	b580      	push	{r7, lr}
 8001b5a:	af00      	add	r7, sp, #0
  /* USER CODE BEGIN RTC_WKUP_IRQn 0 */

  /* USER CODE END RTC_WKUP_IRQn 0 */
  HAL_RTCEx_WakeUpTimerIRQHandler(&hrtc);
 8001b5c:	4802      	ldr	r0, [pc, #8]	@ (8001b68 <RTC_WKUP_IRQHandler+0x10>)
 8001b5e:	f003 fd9b 	bl	8005698 <HAL_RTCEx_WakeUpTimerIRQHandler>
  /* USER CODE BEGIN RTC_WKUP_IRQn 1 */

  /* USER CODE END RTC_WKUP_IRQn 1 */
}
 8001b62:	bf00      	nop
 8001b64:	bd80      	pop	{r7, pc}
 8001b66:	bf00      	nop
 8001b68:	2000012c 	.word	0x2000012c

08001b6c <DMA1_Stream0_IRQHandler>:

/**
  * @brief This function handles DMA1 stream0 global interrupt.
  */
void DMA1_Stream0_IRQHandler(void)
{
 8001b6c:	b580      	push	{r7, lr}
 8001b6e:	af00      	add	r7, sp, #0
  /* USER CODE BEGIN DMA1_Stream0_IRQn 0 */

  /* USER CODE END DMA1_Stream0_IRQn 0 */
  HAL_DMA_IRQHandler(&hdma_tim5_ch3_up);
 8001b70:	4802      	ldr	r0, [pc, #8]	@ (8001b7c <DMA1_Stream0_IRQHandler+0x10>)
 8001b72:	f001 f8b9 	bl	8002ce8 <HAL_DMA_IRQHandler>
  /* USER CODE BEGIN DMA1_Stream0_IRQn 1 */

  /* USER CODE END DMA1_Stream0_IRQn 1 */
}
 8001b76:	bf00      	nop
 8001b78:	bd80      	pop	{r7, pc}
 8001b7a:	bf00      	nop
 8001b7c:	2000032c 	.word	0x2000032c

08001b80 <DMA1_Stream1_IRQHandler>:

/**
  * @brief This function handles DMA1 stream1 global interrupt.
  */
void DMA1_Stream1_IRQHandler(void)
{
 8001b80:	b580      	push	{r7, lr}
 8001b82:	af00      	add	r7, sp, #0
  /* USER CODE BEGIN DMA1_Stream1_IRQn 0 */

  /* USER CODE END DMA1_Stream1_IRQn 0 */
  HAL_DMA_IRQHandler(&hdma_tim5_ch4_trig);
 8001b84:	4802      	ldr	r0, [pc, #8]	@ (8001b90 <DMA1_Stream1_IRQHandler+0x10>)
 8001b86:	f001 f8af 	bl	8002ce8 <HAL_DMA_IRQHandler>
  /* USER CODE BEGIN DMA1_Stream1_IRQn 1 */

  /* USER CODE END DMA1_Stream1_IRQn 1 */
}
 8001b8a:	bf00      	nop
 8001b8c:	bd80      	pop	{r7, pc}
 8001b8e:	bf00      	nop
 8001b90:	2000038c 	.word	0x2000038c

08001b94 <DMA1_Stream2_IRQHandler>:

/**
  * @brief This function handles DMA1 stream2 global interrupt.
  */
void DMA1_Stream2_IRQHandler(void)
{
 8001b94:	b580      	push	{r7, lr}
 8001b96:	af00      	add	r7, sp, #0
  /* USER CODE BEGIN DMA1_Stream2_IRQn 0 */

  /* USER CODE END DMA1_Stream2_IRQn 0 */
  HAL_DMA_IRQHandler(&hdma_tim5_ch1);
 8001b98:	4802      	ldr	r0, [pc, #8]	@ (8001ba4 <DMA1_Stream2_IRQHandler+0x10>)
 8001b9a:	f001 f8a5 	bl	8002ce8 <HAL_DMA_IRQHandler>
  /* USER CODE BEGIN DMA1_Stream2_IRQn 1 */

  /* USER CODE END DMA1_Stream2_IRQn 1 */
}
 8001b9e:	bf00      	nop
 8001ba0:	bd80      	pop	{r7, pc}
 8001ba2:	bf00      	nop
 8001ba4:	2000026c 	.word	0x2000026c

08001ba8 <DMA1_Stream4_IRQHandler>:

/**
  * @brief This function handles DMA1 stream4 global interrupt.
  */
void DMA1_Stream4_IRQHandler(void)
{
 8001ba8:	b580      	push	{r7, lr}
 8001baa:	af00      	add	r7, sp, #0
  /* USER CODE BEGIN DMA1_Stream4_IRQn 0 */

  /* USER CODE END DMA1_Stream4_IRQn 0 */
  HAL_DMA_IRQHandler(&hdma_tim5_ch2);
 8001bac:	4802      	ldr	r0, [pc, #8]	@ (8001bb8 <DMA1_Stream4_IRQHandler+0x10>)
 8001bae:	f001 f89b 	bl	8002ce8 <HAL_DMA_IRQHandler>
  /* USER CODE BEGIN DMA1_Stream4_IRQn 1 */

  /* USER CODE END DMA1_Stream4_IRQn 1 */
}
 8001bb2:	bf00      	nop
 8001bb4:	bd80      	pop	{r7, pc}
 8001bb6:	bf00      	nop
 8001bb8:	200002cc 	.word	0x200002cc

08001bbc <EXTI9_5_IRQHandler>:

/**
  * @brief This function handles EXTI line[9:5] interrupts.
  */
void EXTI9_5_IRQHandler(void)
{
 8001bbc:	b580      	push	{r7, lr}
 8001bbe:	af00      	add	r7, sp, #0
  /* USER CODE BEGIN EXTI9_5_IRQn 0 */

  /* USER CODE END EXTI9_5_IRQn 0 */
  HAL_GPIO_EXTI_IRQHandler(GPIO_PIN_8);
 8001bc0:	f44f 7080 	mov.w	r0, #256	@ 0x100
 8001bc4:	f001 fcb0 	bl	8003528 <HAL_GPIO_EXTI_IRQHandler>
  /* USER CODE BEGIN EXTI9_5_IRQn 1 */

  /* USER CODE END EXTI9_5_IRQn 1 */
}
 8001bc8:	bf00      	nop
 8001bca:	bd80      	pop	{r7, pc}

08001bcc <TIM4_IRQHandler>:

/**
  * @brief This function handles TIM4 global interrupt.
  */
void TIM4_IRQHandler(void)
{
 8001bcc:	b580      	push	{r7, lr}
 8001bce:	af00      	add	r7, sp, #0
  /* USER CODE BEGIN TIM4_IRQn 0 */

  /* USER CODE END TIM4_IRQn 0 */
  HAL_TIM_IRQHandler(&htim4);
 8001bd0:	4802      	ldr	r0, [pc, #8]	@ (8001bdc <TIM4_IRQHandler+0x10>)
 8001bd2:	f003 ff67 	bl	8005aa4 <HAL_TIM_IRQHandler>
  /* USER CODE BEGIN TIM4_IRQn 1 */

  /* USER CODE END TIM4_IRQn 1 */
}
 8001bd6:	bf00      	nop
 8001bd8:	bd80      	pop	{r7, pc}
 8001bda:	bf00      	nop
 8001bdc:	200001dc 	.word	0x200001dc

08001be0 <DMA2_Stream0_IRQHandler>:

/**
  * @brief This function handles DMA2 stream0 global interrupt.
  */
void DMA2_Stream0_IRQHandler(void)
{
 8001be0:	b580      	push	{r7, lr}
 8001be2:	af00      	add	r7, sp, #0
  /* USER CODE BEGIN DMA2_Stream0_IRQn 0 */

  /* USER CODE END DMA2_Stream0_IRQn 0 */
  HAL_DMA_IRQHandler(&hdma_adc1);
 8001be4:	4802      	ldr	r0, [pc, #8]	@ (8001bf0 <DMA2_Stream0_IRQHandler+0x10>)
 8001be6:	f001 f87f 	bl	8002ce8 <HAL_DMA_IRQHandler>
  /* USER CODE BEGIN DMA2_Stream0_IRQn 1 */

  /* USER CODE END DMA2_Stream0_IRQn 1 */
}
 8001bea:	bf00      	nop
 8001bec:	bd80      	pop	{r7, pc}
 8001bee:	bf00      	nop
 8001bf0:	20000078 	.word	0x20000078

08001bf4 <SystemInit>:
  *         configuration.
  * @param  None
  * @retval None
  */
void SystemInit(void)
{
 8001bf4:	b480      	push	{r7}
 8001bf6:	af00      	add	r7, sp, #0
  /* FPU settings ------------------------------------------------------------*/
  #if (__FPU_PRESENT == 1) && (__FPU_USED == 1)
    SCB->CPACR |= ((3UL << 10*2)|(3UL << 11*2));  /* set CP10 and CP11 Full Access */
 8001bf8:	4b06      	ldr	r3, [pc, #24]	@ (8001c14 <SystemInit+0x20>)
 8001bfa:	f8d3 3088 	ldr.w	r3, [r3, #136]	@ 0x88
 8001bfe:	4a05      	ldr	r2, [pc, #20]	@ (8001c14 <SystemInit+0x20>)
 8001c00:	f443 0370 	orr.w	r3, r3, #15728640	@ 0xf00000
 8001c04:	f8c2 3088 	str.w	r3, [r2, #136]	@ 0x88

  /* Configure the Vector Table location -------------------------------------*/
#if defined(USER_VECT_TAB_ADDRESS)
  SCB->VTOR = VECT_TAB_BASE_ADDRESS | VECT_TAB_OFFSET; /* Vector Table Relocation in Internal SRAM */
#endif /* USER_VECT_TAB_ADDRESS */
}
 8001c08:	bf00      	nop
 8001c0a:	46bd      	mov	sp, r7
 8001c0c:	f85d 7b04 	ldr.w	r7, [sp], #4
 8001c10:	4770      	bx	lr
 8001c12:	bf00      	nop
 8001c14:	e000ed00 	.word	0xe000ed00

08001c18 <Reset_Handler>:

    .section  .text.Reset_Handler
  .weak  Reset_Handler
  .type  Reset_Handler, %function
Reset_Handler:  
  ldr   sp, =_estack     /* set stack pointer */
 8001c18:	f8df d034 	ldr.w	sp, [pc, #52]	@ 8001c50 <LoopFillZerobss+0xe>
  
/* Call the clock system initialization function.*/
  bl  SystemInit  
 8001c1c:	f7ff ffea 	bl	8001bf4 <SystemInit>

/* Copy the data segment initializers from flash to SRAM */  
  ldr r0, =_sdata
 8001c20:	480c      	ldr	r0, [pc, #48]	@ (8001c54 <LoopFillZerobss+0x12>)
  ldr r1, =_edata
 8001c22:	490d      	ldr	r1, [pc, #52]	@ (8001c58 <LoopFillZerobss+0x16>)
  ldr r2, =_sidata
 8001c24:	4a0d      	ldr	r2, [pc, #52]	@ (8001c5c <LoopFillZerobss+0x1a>)
  movs r3, #0
 8001c26:	2300      	movs	r3, #0
  b LoopCopyDataInit
 8001c28:	e002      	b.n	8001c30 <LoopCopyDataInit>

08001c2a <CopyDataInit>:

CopyDataInit:
  ldr r4, [r2, r3]
 8001c2a:	58d4      	ldr	r4, [r2, r3]
  str r4, [r0, r3]
 8001c2c:	50c4      	str	r4, [r0, r3]
  adds r3, r3, #4
 8001c2e:	3304      	adds	r3, #4

08001c30 <LoopCopyDataInit>:

LoopCopyDataInit:
  adds r4, r0, r3
 8001c30:	18c4      	adds	r4, r0, r3
  cmp r4, r1
 8001c32:	428c      	cmp	r4, r1
  bcc CopyDataInit
 8001c34:	d3f9      	bcc.n	8001c2a <CopyDataInit>
  
/* Zero fill the bss segment. */
  ldr r2, =_sbss
 8001c36:	4a0a      	ldr	r2, [pc, #40]	@ (8001c60 <LoopFillZerobss+0x1e>)
  ldr r4, =_ebss
 8001c38:	4c0a      	ldr	r4, [pc, #40]	@ (8001c64 <LoopFillZerobss+0x22>)
  movs r3, #0
 8001c3a:	2300      	movs	r3, #0
  b LoopFillZerobss
 8001c3c:	e001      	b.n	8001c42 <LoopFillZerobss>

08001c3e <FillZerobss>:

FillZerobss:
  str  r3, [r2]
 8001c3e:	6013      	str	r3, [r2, #0]
  adds r2, r2, #4
 8001c40:	3204      	adds	r2, #4

08001c42 <LoopFillZerobss>:

LoopFillZerobss:
  cmp r2, r4
 8001c42:	42a2      	cmp	r2, r4
  bcc FillZerobss
 8001c44:	d3fb      	bcc.n	8001c3e <FillZerobss>

/* Call static constructors */
    bl __libc_init_array
 8001c46:	f005 f893 	bl	8006d70 <__libc_init_array>
/* Call the application's entry point.*/
  bl  main
 8001c4a:	f7fe fc53 	bl	80004f4 <main>
  bx  lr    
 8001c4e:	4770      	bx	lr
  ldr   sp, =_estack     /* set stack pointer */
 8001c50:	20020000 	.word	0x20020000
  ldr r0, =_sdata
 8001c54:	20000000 	.word	0x20000000
  ldr r1, =_edata
 8001c58:	20000014 	.word	0x20000014
  ldr r2, =_sidata
 8001c5c:	08006e00 	.word	0x08006e00
  ldr r2, =_sbss
 8001c60:	20000014 	.word	0x20000014
  ldr r4, =_ebss
 8001c64:	2000246c 	.word	0x2000246c

08001c68 <ADC_IRQHandler>:
 * @retval None       
*/
    .section  .text.Default_Handler,"ax",%progbits
Default_Handler:
Infinite_Loop:
  b  Infinite_Loop
 8001c68:	e7fe      	b.n	8001c68 <ADC_IRQHandler>
	...

08001c6c <MPU6500_WriteRegister>:
 * @brief Write a single byte to an MPU6500 register
 * @param reg Register address to write to
 * @param data Data byte to write
 * @return HAL_StatusTypeDef HAL_OK on success, error on failure
 */
static inline HAL_StatusTypeDef MPU6500_WriteRegister(uint8_t reg, uint8_t data){
 8001c6c:	b580      	push	{r7, lr}
 8001c6e:	b086      	sub	sp, #24
 8001c70:	af04      	add	r7, sp, #16
 8001c72:	4603      	mov	r3, r0
 8001c74:	460a      	mov	r2, r1
 8001c76:	71fb      	strb	r3, [r7, #7]
 8001c78:	4613      	mov	r3, r2
 8001c7a:	71bb      	strb	r3, [r7, #6]
    return HAL_I2C_Mem_Write(&hi2c1, (MPU6500_ADDR << 1), reg, I2C_MEMADD_SIZE_8BIT, &data, 1, HAL_MAX_DELAY);
 8001c7c:	79fb      	ldrb	r3, [r7, #7]
 8001c7e:	b29a      	uxth	r2, r3
 8001c80:	f04f 33ff 	mov.w	r3, #4294967295
 8001c84:	9302      	str	r3, [sp, #8]
 8001c86:	2301      	movs	r3, #1
 8001c88:	9301      	str	r3, [sp, #4]
 8001c8a:	1dbb      	adds	r3, r7, #6
 8001c8c:	9300      	str	r3, [sp, #0]
 8001c8e:	2301      	movs	r3, #1
 8001c90:	21d0      	movs	r1, #208	@ 0xd0
 8001c92:	4804      	ldr	r0, [pc, #16]	@ (8001ca4 <MPU6500_WriteRegister+0x38>)
 8001c94:	f001 fda4 	bl	80037e0 <HAL_I2C_Mem_Write>
 8001c98:	4603      	mov	r3, r0
}
 8001c9a:	4618      	mov	r0, r3
 8001c9c:	3708      	adds	r7, #8
 8001c9e:	46bd      	mov	sp, r7
 8001ca0:	bd80      	pop	{r7, pc}
 8001ca2:	bf00      	nop
 8001ca4:	200000d8 	.word	0x200000d8

08001ca8 <MPU6500_ReadRegister>:
 * @brief Read a single byte from an MPU6500 register
 * @param reg Register address to read from
 * @param data Pointer to store read data
 * @return HAL_StatusTypeDef HAL_OK on success, error on failure
 */
static inline HAL_StatusTypeDef MPU6500_ReadRegister(uint8_t reg, uint8_t *data){
 8001ca8:	b580      	push	{r7, lr}
 8001caa:	b086      	sub	sp, #24
 8001cac:	af04      	add	r7, sp, #16
 8001cae:	4603      	mov	r3, r0
 8001cb0:	6039      	str	r1, [r7, #0]
 8001cb2:	71fb      	strb	r3, [r7, #7]
    return HAL_I2C_Mem_Read(&hi2c1, (MPU6500_ADDR << 1), reg, I2C_MEMADD_SIZE_8BIT, data, 1, HAL_MAX_DELAY);
 8001cb4:	79fb      	ldrb	r3, [r7, #7]
 8001cb6:	b29a      	uxth	r2, r3
 8001cb8:	f04f 33ff 	mov.w	r3, #4294967295
 8001cbc:	9302      	str	r3, [sp, #8]
 8001cbe:	2301      	movs	r3, #1
 8001cc0:	9301      	str	r3, [sp, #4]
 8001cc2:	683b      	ldr	r3, [r7, #0]
 8001cc4:	9300      	str	r3, [sp, #0]
 8001cc6:	2301      	movs	r3, #1
 8001cc8:	21d0      	movs	r1, #208	@ 0xd0
 8001cca:	4804      	ldr	r0, [pc, #16]	@ (8001cdc <MPU6500_ReadRegister+0x34>)
 8001ccc:	f001 fe82 	bl	80039d4 <HAL_I2C_Mem_Read>
 8001cd0:	4603      	mov	r3, r0
}
 8001cd2:	4618      	mov	r0, r3
 8001cd4:	3708      	adds	r7, #8
 8001cd6:	46bd      	mov	sp, r7
 8001cd8:	bd80      	pop	{r7, pc}
 8001cda:	bf00      	nop
 8001cdc:	200000d8 	.word	0x200000d8

08001ce0 <MPU6500_Reset>:

/**
 * @brief Reset the MPU6500
 * @return HAL_StatusTypeDef HAL_OK on success, error on failure
 */
static inline HAL_StatusTypeDef MPU6500_Reset(void){
 8001ce0:	b580      	push	{r7, lr}
 8001ce2:	af00      	add	r7, sp, #0
    return MPU6500_WriteRegister(PWR_MGMT_1, 0x80); // DEVICE_RESET[7]
 8001ce4:	2180      	movs	r1, #128	@ 0x80
 8001ce6:	206b      	movs	r0, #107	@ 0x6b
 8001ce8:	f7ff ffc0 	bl	8001c6c <MPU6500_WriteRegister>
 8001cec:	4603      	mov	r3, r0
}
 8001cee:	4618      	mov	r0, r3
 8001cf0:	bd80      	pop	{r7, pc}

08001cf2 <MPU6500_ConfigureClock>:

/**
 * @brief Configure the clock source of the MPU6500
 * @return HAL_StatusTypeDef HAL_OK on success, error on failure
 */
static inline HAL_StatusTypeDef MPU6500_ConfigureClock(void){
 8001cf2:	b580      	push	{r7, lr}
 8001cf4:	af00      	add	r7, sp, #0
    return MPU6500_WriteRegister(PWR_MGMT_1, 0x01); // SLEEP[6] | CLKSEL[2:0]
 8001cf6:	2101      	movs	r1, #1
 8001cf8:	206b      	movs	r0, #107	@ 0x6b
 8001cfa:	f7ff ffb7 	bl	8001c6c <MPU6500_WriteRegister>
 8001cfe:	4603      	mov	r3, r0
}
 8001d00:	4618      	mov	r0, r3
 8001d02:	bd80      	pop	{r7, pc}

08001d04 <MPU6500_ConfigureAccel>:
 * @return HAL_StatusTypeDef HAL_OK on success, error on failure
 * @note Configuration sequence:
 *       1. Configure accelerometer full scale range
 *       2. Configure accelerometer low pass filter
 */
static inline HAL_StatusTypeDef MPU6500_ConfigureAccel(void){
 8001d04:	b580      	push	{r7, lr}
 8001d06:	b082      	sub	sp, #8
 8001d08:	af00      	add	r7, sp, #0
    HAL_StatusTypeDef status;
    status = MPU6500_WriteRegister(ACCEL_CONFIG, 0x10); // ACCEL_FS_SEL[4:3] = 11 (±16g),0x10 = ±8g ,0x18 = ±16g ,bits [2:0] reserved (0)
 8001d0a:	2110      	movs	r1, #16
 8001d0c:	201c      	movs	r0, #28
 8001d0e:	f7ff ffad 	bl	8001c6c <MPU6500_WriteRegister>
 8001d12:	4603      	mov	r3, r0
 8001d14:	71fb      	strb	r3, [r7, #7]
    if(status != HAL_OK) return status;
 8001d16:	79fb      	ldrb	r3, [r7, #7]
 8001d18:	2b00      	cmp	r3, #0
 8001d1a:	d001      	beq.n	8001d20 <MPU6500_ConfigureAccel+0x1c>
 8001d1c:	79fb      	ldrb	r3, [r7, #7]
 8001d1e:	e00b      	b.n	8001d38 <MPU6500_ConfigureAccel+0x34>
    status = MPU6500_WriteRegister(ACCEL_CONFIG_2, 0x00); // ACCEL_DLPF_CFG[2:0] = 100 (20Hz, 1kHz),0x00 = 184Hz
 8001d20:	2100      	movs	r1, #0
 8001d22:	201d      	movs	r0, #29
 8001d24:	f7ff ffa2 	bl	8001c6c <MPU6500_WriteRegister>
 8001d28:	4603      	mov	r3, r0
 8001d2a:	71fb      	strb	r3, [r7, #7]
    if(status != HAL_OK) return status;
 8001d2c:	79fb      	ldrb	r3, [r7, #7]
 8001d2e:	2b00      	cmp	r3, #0
 8001d30:	d001      	beq.n	8001d36 <MPU6500_ConfigureAccel+0x32>
 8001d32:	79fb      	ldrb	r3, [r7, #7]
 8001d34:	e000      	b.n	8001d38 <MPU6500_ConfigureAccel+0x34>
    return HAL_OK;
 8001d36:	2300      	movs	r3, #0
}
 8001d38:	4618      	mov	r0, r3
 8001d3a:	3708      	adds	r7, #8
 8001d3c:	46bd      	mov	sp, r7
 8001d3e:	bd80      	pop	{r7, pc}

08001d40 <MPU6500_ConfigureGyro>:
 * @return HAL_StatusTypeDef HAL_OK on success, error on failure
 * @note Configuration sequence:
 *       1. Configure gyroscope full scale range
 *       2. Configure gyroscope low pass filter
 */
static inline HAL_StatusTypeDef MPU6500_ConfigureGyro(void){
 8001d40:	b580      	push	{r7, lr}
 8001d42:	b082      	sub	sp, #8
 8001d44:	af00      	add	r7, sp, #0
    HAL_StatusTypeDef status;
    status = MPU6500_WriteRegister(GYRO_CONFIG, 0x18); // GYRO_FS_SEL[1:0] = 11 | FCHOICE_B[1:0] = 00 || Full scale range = ±2000dps
 8001d46:	2118      	movs	r1, #24
 8001d48:	201b      	movs	r0, #27
 8001d4a:	f7ff ff8f 	bl	8001c6c <MPU6500_WriteRegister>
 8001d4e:	4603      	mov	r3, r0
 8001d50:	71fb      	strb	r3, [r7, #7]
    if(status != HAL_OK) return status;
 8001d52:	79fb      	ldrb	r3, [r7, #7]
 8001d54:	2b00      	cmp	r3, #0
 8001d56:	d001      	beq.n	8001d5c <MPU6500_ConfigureGyro+0x1c>
 8001d58:	79fb      	ldrb	r3, [r7, #7]
 8001d5a:	e00b      	b.n	8001d74 <MPU6500_ConfigureGyro+0x34>
    status = MPU6500_WriteRegister(CONFIG, 0x00); // DLPF_CFG[2:0] = 100 || Gyroscope low pass filter Bandwidth = 20Hz | Data Rate = 1kHz
 8001d5c:	2100      	movs	r1, #0
 8001d5e:	201a      	movs	r0, #26
 8001d60:	f7ff ff84 	bl	8001c6c <MPU6500_WriteRegister>
 8001d64:	4603      	mov	r3, r0
 8001d66:	71fb      	strb	r3, [r7, #7]
    if(status != HAL_OK) return status;
 8001d68:	79fb      	ldrb	r3, [r7, #7]
 8001d6a:	2b00      	cmp	r3, #0
 8001d6c:	d001      	beq.n	8001d72 <MPU6500_ConfigureGyro+0x32>
 8001d6e:	79fb      	ldrb	r3, [r7, #7]
 8001d70:	e000      	b.n	8001d74 <MPU6500_ConfigureGyro+0x34>
    return HAL_OK;  
 8001d72:	2300      	movs	r3, #0
} 
 8001d74:	4618      	mov	r0, r3
 8001d76:	3708      	adds	r7, #8
 8001d78:	46bd      	mov	sp, r7
 8001d7a:	bd80      	pop	{r7, pc}

08001d7c <MPU6500_EnableTemperatureSensor>:

/**
 * @brief Enable the temperature sensor of the MPU6500
 * @return HAL_StatusTypeDef HAL_OK on success, error on failure
 */
static inline HAL_StatusTypeDef MPU6500_EnableTemperatureSensor(void){
 8001d7c:	b580      	push	{r7, lr}
 8001d7e:	b082      	sub	sp, #8
 8001d80:	af00      	add	r7, sp, #0
    HAL_StatusTypeDef status;
    uint8_t regData;
    // Read current PWR_MGMT_1 register
    status = MPU6500_ReadRegister(PWR_MGMT_1, &regData);
 8001d82:	1dbb      	adds	r3, r7, #6
 8001d84:	4619      	mov	r1, r3
 8001d86:	206b      	movs	r0, #107	@ 0x6b
 8001d88:	f7ff ff8e 	bl	8001ca8 <MPU6500_ReadRegister>
 8001d8c:	4603      	mov	r3, r0
 8001d8e:	71fb      	strb	r3, [r7, #7]
    if(status != HAL_OK) return status;
 8001d90:	79fb      	ldrb	r3, [r7, #7]
 8001d92:	2b00      	cmp	r3, #0
 8001d94:	d001      	beq.n	8001d9a <MPU6500_EnableTemperatureSensor+0x1e>
 8001d96:	79fb      	ldrb	r3, [r7, #7]
 8001d98:	e00a      	b.n	8001db0 <MPU6500_EnableTemperatureSensor+0x34>
    // Clear TEMP_DIS bit (bit 4)
    regData &= ~(1 << 4);
 8001d9a:	79bb      	ldrb	r3, [r7, #6]
 8001d9c:	f023 0310 	bic.w	r3, r3, #16
 8001da0:	b2db      	uxtb	r3, r3
 8001da2:	71bb      	strb	r3, [r7, #6]
    // Write back to PWR_MGMT_1
    return MPU6500_WriteRegister(PWR_MGMT_1, regData);
 8001da4:	79bb      	ldrb	r3, [r7, #6]
 8001da6:	4619      	mov	r1, r3
 8001da8:	206b      	movs	r0, #107	@ 0x6b
 8001daa:	f7ff ff5f 	bl	8001c6c <MPU6500_WriteRegister>
 8001dae:	4603      	mov	r3, r0
}
 8001db0:	4618      	mov	r0, r3
 8001db2:	3708      	adds	r7, #8
 8001db4:	46bd      	mov	sp, r7
 8001db6:	bd80      	pop	{r7, pc}

08001db8 <MPU6500_ConfigureInterrupts>:

/**
 * @brief Configure the interrupt pin
 * @return HAL_StatusTypeDef HAL_OK on success, error on failure
 */ 
static inline HAL_StatusTypeDef MPU6500_ConfigureInterrupts(void){
 8001db8:	b580      	push	{r7, lr}
 8001dba:	b082      	sub	sp, #8
 8001dbc:	af00      	add	r7, sp, #0
    HAL_StatusTypeDef status;
    status = MPU6500_WriteRegister(INT_PIN_CFG, 0x90); // ACTL[7] | OPEN[6] | LATCH_INT_EN[5] | INT_ANYRD_2CLEAR[4]
 8001dbe:	2190      	movs	r1, #144	@ 0x90
 8001dc0:	2037      	movs	r0, #55	@ 0x37
 8001dc2:	f7ff ff53 	bl	8001c6c <MPU6500_WriteRegister>
 8001dc6:	4603      	mov	r3, r0
 8001dc8:	71fb      	strb	r3, [r7, #7]
    if(status != HAL_OK) return status;
 8001dca:	79fb      	ldrb	r3, [r7, #7]
 8001dcc:	2b00      	cmp	r3, #0
 8001dce:	d001      	beq.n	8001dd4 <MPU6500_ConfigureInterrupts+0x1c>
 8001dd0:	79fb      	ldrb	r3, [r7, #7]
 8001dd2:	e000      	b.n	8001dd6 <MPU6500_ConfigureInterrupts+0x1e>
    return HAL_OK;
 8001dd4:	2300      	movs	r3, #0
}
 8001dd6:	4618      	mov	r0, r3
 8001dd8:	3708      	adds	r7, #8
 8001dda:	46bd      	mov	sp, r7
 8001ddc:	bd80      	pop	{r7, pc}

08001dde <MPU6500_Init>:
 *       3. Configure accelerometer (±16g, 20Hz bandwidth)
 *       4. Configure gyroscope (±2000dps, 20Hz bandwidth)
 *       5. Enable temperature sensor
 *       6. Configure interrupt pin
 */
HAL_StatusTypeDef MPU6500_Init(void){
 8001dde:	b580      	push	{r7, lr}
 8001de0:	b082      	sub	sp, #8
 8001de2:	af00      	add	r7, sp, #0
    HAL_StatusTypeDef status;
    // 1. Reset device
    status = MPU6500_Reset();
 8001de4:	f7ff ff7c 	bl	8001ce0 <MPU6500_Reset>
 8001de8:	4603      	mov	r3, r0
 8001dea:	71fb      	strb	r3, [r7, #7]
    if (status != HAL_OK) return status;
 8001dec:	79fb      	ldrb	r3, [r7, #7]
 8001dee:	2b00      	cmp	r3, #0
 8001df0:	d001      	beq.n	8001df6 <MPU6500_Init+0x18>
 8001df2:	79fb      	ldrb	r3, [r7, #7]
 8001df4:	e030      	b.n	8001e58 <MPU6500_Init+0x7a>
    HAL_Delay(100); // Wait for reset to complete
 8001df6:	2064      	movs	r0, #100	@ 0x64
 8001df8:	f000 f92e 	bl	8002058 <HAL_Delay>
    // 2. Wake up device and select clock source
    status = MPU6500_ConfigureClock();
 8001dfc:	f7ff ff79 	bl	8001cf2 <MPU6500_ConfigureClock>
 8001e00:	4603      	mov	r3, r0
 8001e02:	71fb      	strb	r3, [r7, #7]
    if(status != HAL_OK) return status;
 8001e04:	79fb      	ldrb	r3, [r7, #7]
 8001e06:	2b00      	cmp	r3, #0
 8001e08:	d001      	beq.n	8001e0e <MPU6500_Init+0x30>
 8001e0a:	79fb      	ldrb	r3, [r7, #7]
 8001e0c:	e024      	b.n	8001e58 <MPU6500_Init+0x7a>
    // 3. Configure Accelerometer
    status = MPU6500_ConfigureAccel();
 8001e0e:	f7ff ff79 	bl	8001d04 <MPU6500_ConfigureAccel>
 8001e12:	4603      	mov	r3, r0
 8001e14:	71fb      	strb	r3, [r7, #7]
    if(status != HAL_OK) return status;
 8001e16:	79fb      	ldrb	r3, [r7, #7]
 8001e18:	2b00      	cmp	r3, #0
 8001e1a:	d001      	beq.n	8001e20 <MPU6500_Init+0x42>
 8001e1c:	79fb      	ldrb	r3, [r7, #7]
 8001e1e:	e01b      	b.n	8001e58 <MPU6500_Init+0x7a>
    // 4. Configure Gyroscope
    status = MPU6500_ConfigureGyro();
 8001e20:	f7ff ff8e 	bl	8001d40 <MPU6500_ConfigureGyro>
 8001e24:	4603      	mov	r3, r0
 8001e26:	71fb      	strb	r3, [r7, #7]
    if(status != HAL_OK) return status;
 8001e28:	79fb      	ldrb	r3, [r7, #7]
 8001e2a:	2b00      	cmp	r3, #0
 8001e2c:	d001      	beq.n	8001e32 <MPU6500_Init+0x54>
 8001e2e:	79fb      	ldrb	r3, [r7, #7]
 8001e30:	e012      	b.n	8001e58 <MPU6500_Init+0x7a>
    // 5. Enable temperature sensor
    status = MPU6500_EnableTemperatureSensor();
 8001e32:	f7ff ffa3 	bl	8001d7c <MPU6500_EnableTemperatureSensor>
 8001e36:	4603      	mov	r3, r0
 8001e38:	71fb      	strb	r3, [r7, #7]
    if(status != HAL_OK) return status; 
 8001e3a:	79fb      	ldrb	r3, [r7, #7]
 8001e3c:	2b00      	cmp	r3, #0
 8001e3e:	d001      	beq.n	8001e44 <MPU6500_Init+0x66>
 8001e40:	79fb      	ldrb	r3, [r7, #7]
 8001e42:	e009      	b.n	8001e58 <MPU6500_Init+0x7a>
    // 6. Configure INT Pin (but don't enable interrupts yet)
    status = MPU6500_ConfigureInterrupts();
 8001e44:	f7ff ffb8 	bl	8001db8 <MPU6500_ConfigureInterrupts>
 8001e48:	4603      	mov	r3, r0
 8001e4a:	71fb      	strb	r3, [r7, #7]
    if(status != HAL_OK) return status;
 8001e4c:	79fb      	ldrb	r3, [r7, #7]
 8001e4e:	2b00      	cmp	r3, #0
 8001e50:	d001      	beq.n	8001e56 <MPU6500_Init+0x78>
 8001e52:	79fb      	ldrb	r3, [r7, #7]
 8001e54:	e000      	b.n	8001e58 <MPU6500_Init+0x7a>
    return HAL_OK;
 8001e56:	2300      	movs	r3, #0
}
 8001e58:	4618      	mov	r0, r3
 8001e5a:	3708      	adds	r7, #8
 8001e5c:	46bd      	mov	sp, r7
 8001e5e:	bd80      	pop	{r7, pc}

08001e60 <MPU6500_EnableDataReadyInterrupts>:
/**
 * @brief Enable data ready interrupts from the MPU6500
 * @return HAL_StatusTypeDef HAL_OK on success, error on failure
 * @note Enables RAW_RDY_EN bit in INT_ENABLE register
 */
HAL_StatusTypeDef MPU6500_EnableDataReadyInterrupts(void){
 8001e60:	b580      	push	{r7, lr}
 8001e62:	af00      	add	r7, sp, #0
    return MPU6500_WriteRegister(INT_ENABLE, 0x01); // RAW_RDY_EN[0]
 8001e64:	2101      	movs	r1, #1
 8001e66:	2038      	movs	r0, #56	@ 0x38
 8001e68:	f7ff ff00 	bl	8001c6c <MPU6500_WriteRegister>
 8001e6c:	4603      	mov	r3, r0
}
 8001e6e:	4618      	mov	r0, r3
 8001e70:	bd80      	pop	{r7, pc}
	...

08001e74 <MPU6500_ReadAccel>:
 * @param z Pointer to store Z-axis acceleration
 * @return HAL_StatusTypeDef HAL_OK on success, error on failure
 * @note Reads 6 bytes starting from ACCEL_XOUT_H register
 *       Data is in 16-bit format, high byte first
 */
HAL_StatusTypeDef MPU6500_ReadAccel(int16_t *x, int16_t *y, int16_t *z){
 8001e74:	b580      	push	{r7, lr}
 8001e76:	b08a      	sub	sp, #40	@ 0x28
 8001e78:	af04      	add	r7, sp, #16
 8001e7a:	60f8      	str	r0, [r7, #12]
 8001e7c:	60b9      	str	r1, [r7, #8]
 8001e7e:	607a      	str	r2, [r7, #4]
    HAL_StatusTypeDef status;
    uint8_t buffer[6];  // 6 bytes for data
    // Read all 6 bytes starting from ACCEL_XOUT_H
    status = HAL_I2C_Mem_Read(&hi2c1, (MPU6500_ADDR << 1), ACCEL_XOUT_H, I2C_MEMADD_SIZE_8BIT, buffer, 6, HAL_MAX_DELAY);
 8001e80:	f04f 33ff 	mov.w	r3, #4294967295
 8001e84:	9302      	str	r3, [sp, #8]
 8001e86:	2306      	movs	r3, #6
 8001e88:	9301      	str	r3, [sp, #4]
 8001e8a:	f107 0310 	add.w	r3, r7, #16
 8001e8e:	9300      	str	r3, [sp, #0]
 8001e90:	2301      	movs	r3, #1
 8001e92:	223b      	movs	r2, #59	@ 0x3b
 8001e94:	21d0      	movs	r1, #208	@ 0xd0
 8001e96:	4816      	ldr	r0, [pc, #88]	@ (8001ef0 <MPU6500_ReadAccel+0x7c>)
 8001e98:	f001 fd9c 	bl	80039d4 <HAL_I2C_Mem_Read>
 8001e9c:	4603      	mov	r3, r0
 8001e9e:	75fb      	strb	r3, [r7, #23]
    if(status != HAL_OK) return status;
 8001ea0:	7dfb      	ldrb	r3, [r7, #23]
 8001ea2:	2b00      	cmp	r3, #0
 8001ea4:	d001      	beq.n	8001eaa <MPU6500_ReadAccel+0x36>
 8001ea6:	7dfb      	ldrb	r3, [r7, #23]
 8001ea8:	e01e      	b.n	8001ee8 <MPU6500_ReadAccel+0x74>
    // Combine bytes into 16-bit values (high byte first, then low byte)
    *x = (int16_t)((buffer[0] << 8) | buffer[1]);
 8001eaa:	7c3b      	ldrb	r3, [r7, #16]
 8001eac:	b21b      	sxth	r3, r3
 8001eae:	021b      	lsls	r3, r3, #8
 8001eb0:	b21a      	sxth	r2, r3
 8001eb2:	7c7b      	ldrb	r3, [r7, #17]
 8001eb4:	b21b      	sxth	r3, r3
 8001eb6:	4313      	orrs	r3, r2
 8001eb8:	b21a      	sxth	r2, r3
 8001eba:	68fb      	ldr	r3, [r7, #12]
 8001ebc:	801a      	strh	r2, [r3, #0]
    *y = (int16_t)((buffer[2] << 8) | buffer[3]);
 8001ebe:	7cbb      	ldrb	r3, [r7, #18]
 8001ec0:	b21b      	sxth	r3, r3
 8001ec2:	021b      	lsls	r3, r3, #8
 8001ec4:	b21a      	sxth	r2, r3
 8001ec6:	7cfb      	ldrb	r3, [r7, #19]
 8001ec8:	b21b      	sxth	r3, r3
 8001eca:	4313      	orrs	r3, r2
 8001ecc:	b21a      	sxth	r2, r3
 8001ece:	68bb      	ldr	r3, [r7, #8]
 8001ed0:	801a      	strh	r2, [r3, #0]
    *z = (int16_t)((buffer[4] << 8) | buffer[5]);
 8001ed2:	7d3b      	ldrb	r3, [r7, #20]
 8001ed4:	b21b      	sxth	r3, r3
 8001ed6:	021b      	lsls	r3, r3, #8
 8001ed8:	b21a      	sxth	r2, r3
 8001eda:	7d7b      	ldrb	r3, [r7, #21]
 8001edc:	b21b      	sxth	r3, r3
 8001ede:	4313      	orrs	r3, r2
 8001ee0:	b21a      	sxth	r2, r3
 8001ee2:	687b      	ldr	r3, [r7, #4]
 8001ee4:	801a      	strh	r2, [r3, #0]
    return HAL_OK;
 8001ee6:	2300      	movs	r3, #0
}   
 8001ee8:	4618      	mov	r0, r3
 8001eea:	3718      	adds	r7, #24
 8001eec:	46bd      	mov	sp, r7
 8001eee:	bd80      	pop	{r7, pc}
 8001ef0:	200000d8 	.word	0x200000d8

08001ef4 <MPU6500_ReadGyro>:
 * @param z Pointer to store Z-axis gyroscope data
 * @return HAL_StatusTypeDef HAL_OK on success, error on failure
 * @note Reads 6 bytes starting from GYRO_XOUT_H register
 *       Data is in 16-bit format, high byte first
 */
HAL_StatusTypeDef MPU6500_ReadGyro(int16_t *x, int16_t *y, int16_t *z){
 8001ef4:	b580      	push	{r7, lr}
 8001ef6:	b08a      	sub	sp, #40	@ 0x28
 8001ef8:	af04      	add	r7, sp, #16
 8001efa:	60f8      	str	r0, [r7, #12]
 8001efc:	60b9      	str	r1, [r7, #8]
 8001efe:	607a      	str	r2, [r7, #4]
    HAL_StatusTypeDef status;
    uint8_t buffer[6];  // 6 bytes for data
    // Read all 6 bytes starting from GYRO_XOUT_H
    status = HAL_I2C_Mem_Read(&hi2c1, (MPU6500_ADDR << 1), GYRO_XOUT_H, I2C_MEMADD_SIZE_8BIT, buffer, 6, HAL_MAX_DELAY);
 8001f00:	f04f 33ff 	mov.w	r3, #4294967295
 8001f04:	9302      	str	r3, [sp, #8]
 8001f06:	2306      	movs	r3, #6
 8001f08:	9301      	str	r3, [sp, #4]
 8001f0a:	f107 0310 	add.w	r3, r7, #16
 8001f0e:	9300      	str	r3, [sp, #0]
 8001f10:	2301      	movs	r3, #1
 8001f12:	2243      	movs	r2, #67	@ 0x43
 8001f14:	21d0      	movs	r1, #208	@ 0xd0
 8001f16:	4816      	ldr	r0, [pc, #88]	@ (8001f70 <MPU6500_ReadGyro+0x7c>)
 8001f18:	f001 fd5c 	bl	80039d4 <HAL_I2C_Mem_Read>
 8001f1c:	4603      	mov	r3, r0
 8001f1e:	75fb      	strb	r3, [r7, #23]
    if(status != HAL_OK) return status;
 8001f20:	7dfb      	ldrb	r3, [r7, #23]
 8001f22:	2b00      	cmp	r3, #0
 8001f24:	d001      	beq.n	8001f2a <MPU6500_ReadGyro+0x36>
 8001f26:	7dfb      	ldrb	r3, [r7, #23]
 8001f28:	e01e      	b.n	8001f68 <MPU6500_ReadGyro+0x74>
    // Combine bytes into 16-bit values (high byte first, then low byte)
    *x = (int16_t)((buffer[0] << 8) | buffer[1]);
 8001f2a:	7c3b      	ldrb	r3, [r7, #16]
 8001f2c:	b21b      	sxth	r3, r3
 8001f2e:	021b      	lsls	r3, r3, #8
 8001f30:	b21a      	sxth	r2, r3
 8001f32:	7c7b      	ldrb	r3, [r7, #17]
 8001f34:	b21b      	sxth	r3, r3
 8001f36:	4313      	orrs	r3, r2
 8001f38:	b21a      	sxth	r2, r3
 8001f3a:	68fb      	ldr	r3, [r7, #12]
 8001f3c:	801a      	strh	r2, [r3, #0]
    *y = (int16_t)((buffer[2] << 8) | buffer[3]);
 8001f3e:	7cbb      	ldrb	r3, [r7, #18]
 8001f40:	b21b      	sxth	r3, r3
 8001f42:	021b      	lsls	r3, r3, #8
 8001f44:	b21a      	sxth	r2, r3
 8001f46:	7cfb      	ldrb	r3, [r7, #19]
 8001f48:	b21b      	sxth	r3, r3
 8001f4a:	4313      	orrs	r3, r2
 8001f4c:	b21a      	sxth	r2, r3
 8001f4e:	68bb      	ldr	r3, [r7, #8]
 8001f50:	801a      	strh	r2, [r3, #0]
    *z = (int16_t)((buffer[4] << 8) | buffer[5]);
 8001f52:	7d3b      	ldrb	r3, [r7, #20]
 8001f54:	b21b      	sxth	r3, r3
 8001f56:	021b      	lsls	r3, r3, #8
 8001f58:	b21a      	sxth	r2, r3
 8001f5a:	7d7b      	ldrb	r3, [r7, #21]
 8001f5c:	b21b      	sxth	r3, r3
 8001f5e:	4313      	orrs	r3, r2
 8001f60:	b21a      	sxth	r2, r3
 8001f62:	687b      	ldr	r3, [r7, #4]
 8001f64:	801a      	strh	r2, [r3, #0]
    return HAL_OK;
 8001f66:	2300      	movs	r3, #0
}       
 8001f68:	4618      	mov	r0, r3
 8001f6a:	3718      	adds	r7, #24
 8001f6c:	46bd      	mov	sp, r7
 8001f6e:	bd80      	pop	{r7, pc}
 8001f70:	200000d8 	.word	0x200000d8

08001f74 <HAL_Init>:
  *         need to ensure that the SysTick time base is always set to 1 millisecond
  *         to have correct HAL operation.
  * @retval HAL status
  */
HAL_StatusTypeDef HAL_Init(void)
{
 8001f74:	b580      	push	{r7, lr}
 8001f76:	af00      	add	r7, sp, #0
  /* Configure Flash prefetch, Instruction cache, Data cache */ 
#if (INSTRUCTION_CACHE_ENABLE != 0U)
  __HAL_FLASH_INSTRUCTION_CACHE_ENABLE();
 8001f78:	4b0e      	ldr	r3, [pc, #56]	@ (8001fb4 <HAL_Init+0x40>)
 8001f7a:	681b      	ldr	r3, [r3, #0]
 8001f7c:	4a0d      	ldr	r2, [pc, #52]	@ (8001fb4 <HAL_Init+0x40>)
 8001f7e:	f443 7300 	orr.w	r3, r3, #512	@ 0x200
 8001f82:	6013      	str	r3, [r2, #0]
#endif /* INSTRUCTION_CACHE_ENABLE */

#if (DATA_CACHE_ENABLE != 0U)
  __HAL_FLASH_DATA_CACHE_ENABLE();
 8001f84:	4b0b      	ldr	r3, [pc, #44]	@ (8001fb4 <HAL_Init+0x40>)
 8001f86:	681b      	ldr	r3, [r3, #0]
 8001f88:	4a0a      	ldr	r2, [pc, #40]	@ (8001fb4 <HAL_Init+0x40>)
 8001f8a:	f443 6380 	orr.w	r3, r3, #1024	@ 0x400
 8001f8e:	6013      	str	r3, [r2, #0]
#endif /* DATA_CACHE_ENABLE */

#if (PREFETCH_ENABLE != 0U)
  __HAL_FLASH_PREFETCH_BUFFER_ENABLE();
 8001f90:	4b08      	ldr	r3, [pc, #32]	@ (8001fb4 <HAL_Init+0x40>)
 8001f92:	681b      	ldr	r3, [r3, #0]
 8001f94:	4a07      	ldr	r2, [pc, #28]	@ (8001fb4 <HAL_Init+0x40>)
 8001f96:	f443 7380 	orr.w	r3, r3, #256	@ 0x100
 8001f9a:	6013      	str	r3, [r2, #0]
#endif /* PREFETCH_ENABLE */

  /* Set Interrupt Group Priority */
  HAL_NVIC_SetPriorityGrouping(NVIC_PRIORITYGROUP_4);
 8001f9c:	2003      	movs	r0, #3
 8001f9e:	f000 fd5b 	bl	8002a58 <HAL_NVIC_SetPriorityGrouping>

  /* Use systick as time base source and configure 1ms tick (default clock after Reset is HSI) */
  HAL_InitTick(TICK_INT_PRIORITY);
 8001fa2:	200f      	movs	r0, #15
 8001fa4:	f000 f808 	bl	8001fb8 <HAL_InitTick>

  /* Init the low level hardware */
  HAL_MspInit();
 8001fa8:	f7ff fa74 	bl	8001494 <HAL_MspInit>

  /* Return function status */
  return HAL_OK;
 8001fac:	2300      	movs	r3, #0
}
 8001fae:	4618      	mov	r0, r3
 8001fb0:	bd80      	pop	{r7, pc}
 8001fb2:	bf00      	nop
 8001fb4:	40023c00 	.word	0x40023c00

08001fb8 <HAL_InitTick>:
  *       implementation  in user file.
  * @param TickPriority Tick interrupt priority.
  * @retval HAL status
  */
__weak HAL_StatusTypeDef HAL_InitTick(uint32_t TickPriority)
{
 8001fb8:	b580      	push	{r7, lr}
 8001fba:	b082      	sub	sp, #8
 8001fbc:	af00      	add	r7, sp, #0
 8001fbe:	6078      	str	r0, [r7, #4]
  /* Configure the SysTick to have interrupt in 1ms time basis*/
  if (HAL_SYSTICK_Config(SystemCoreClock / (1000U / uwTickFreq)) > 0U)
 8001fc0:	4b12      	ldr	r3, [pc, #72]	@ (800200c <HAL_InitTick+0x54>)
 8001fc2:	681a      	ldr	r2, [r3, #0]
 8001fc4:	4b12      	ldr	r3, [pc, #72]	@ (8002010 <HAL_InitTick+0x58>)
 8001fc6:	781b      	ldrb	r3, [r3, #0]
 8001fc8:	4619      	mov	r1, r3
 8001fca:	f44f 737a 	mov.w	r3, #1000	@ 0x3e8
 8001fce:	fbb3 f3f1 	udiv	r3, r3, r1
 8001fd2:	fbb2 f3f3 	udiv	r3, r2, r3
 8001fd6:	4618      	mov	r0, r3
 8001fd8:	f000 fd73 	bl	8002ac2 <HAL_SYSTICK_Config>
 8001fdc:	4603      	mov	r3, r0
 8001fde:	2b00      	cmp	r3, #0
 8001fe0:	d001      	beq.n	8001fe6 <HAL_InitTick+0x2e>
  {
    return HAL_ERROR;
 8001fe2:	2301      	movs	r3, #1
 8001fe4:	e00e      	b.n	8002004 <HAL_InitTick+0x4c>
  }

  /* Configure the SysTick IRQ priority */
  if (TickPriority < (1UL << __NVIC_PRIO_BITS))
 8001fe6:	687b      	ldr	r3, [r7, #4]
 8001fe8:	2b0f      	cmp	r3, #15
 8001fea:	d80a      	bhi.n	8002002 <HAL_InitTick+0x4a>
  {
    HAL_NVIC_SetPriority(SysTick_IRQn, TickPriority, 0U);
 8001fec:	2200      	movs	r2, #0
 8001fee:	6879      	ldr	r1, [r7, #4]
 8001ff0:	f04f 30ff 	mov.w	r0, #4294967295
 8001ff4:	f000 fd3b 	bl	8002a6e <HAL_NVIC_SetPriority>
    uwTickPrio = TickPriority;
 8001ff8:	4a06      	ldr	r2, [pc, #24]	@ (8002014 <HAL_InitTick+0x5c>)
 8001ffa:	687b      	ldr	r3, [r7, #4]
 8001ffc:	6013      	str	r3, [r2, #0]
  {
    return HAL_ERROR;
  }

  /* Return function status */
  return HAL_OK;
 8001ffe:	2300      	movs	r3, #0
 8002000:	e000      	b.n	8002004 <HAL_InitTick+0x4c>
    return HAL_ERROR;
 8002002:	2301      	movs	r3, #1
}
 8002004:	4618      	mov	r0, r3
 8002006:	3708      	adds	r7, #8
 8002008:	46bd      	mov	sp, r7
 800200a:	bd80      	pop	{r7, pc}
 800200c:	20000008 	.word	0x20000008
 8002010:	20000010 	.word	0x20000010
 8002014:	2000000c 	.word	0x2000000c

08002018 <HAL_IncTick>:
 * @note This function is declared as __weak to be overwritten in case of other 
  *      implementations in user file.
  * @retval None
  */
__weak void HAL_IncTick(void)
{
 8002018:	b480      	push	{r7}
 800201a:	af00      	add	r7, sp, #0
  uwTick += uwTickFreq;
 800201c:	4b06      	ldr	r3, [pc, #24]	@ (8002038 <HAL_IncTick+0x20>)
 800201e:	781b      	ldrb	r3, [r3, #0]
 8002020:	461a      	mov	r2, r3
 8002022:	4b06      	ldr	r3, [pc, #24]	@ (800203c <HAL_IncTick+0x24>)
 8002024:	681b      	ldr	r3, [r3, #0]
 8002026:	4413      	add	r3, r2
 8002028:	4a04      	ldr	r2, [pc, #16]	@ (800203c <HAL_IncTick+0x24>)
 800202a:	6013      	str	r3, [r2, #0]
}
 800202c:	bf00      	nop
 800202e:	46bd      	mov	sp, r7
 8002030:	f85d 7b04 	ldr.w	r7, [sp], #4
 8002034:	4770      	bx	lr
 8002036:	bf00      	nop
 8002038:	20000010 	.word	0x20000010
 800203c:	20002468 	.word	0x20002468

08002040 <HAL_GetTick>:
  * @note This function is declared as __weak to be overwritten in case of other 
  *       implementations in user file.
  * @retval tick value
  */
__weak uint32_t HAL_GetTick(void)
{
 8002040:	b480      	push	{r7}
 8002042:	af00      	add	r7, sp, #0
  return uwTick;
 8002044:	4b03      	ldr	r3, [pc, #12]	@ (8002054 <HAL_GetTick+0x14>)
 8002046:	681b      	ldr	r3, [r3, #0]
}
 8002048:	4618      	mov	r0, r3
 800204a:	46bd      	mov	sp, r7
 800204c:	f85d 7b04 	ldr.w	r7, [sp], #4
 8002050:	4770      	bx	lr
 8002052:	bf00      	nop
 8002054:	20002468 	.word	0x20002468

08002058 <HAL_Delay>:
  *       implementations in user file.
  * @param Delay specifies the delay time length, in milliseconds.
  * @retval None
  */
__weak void HAL_Delay(uint32_t Delay)
{
 8002058:	b580      	push	{r7, lr}
 800205a:	b084      	sub	sp, #16
 800205c:	af00      	add	r7, sp, #0
 800205e:	6078      	str	r0, [r7, #4]
  uint32_t tickstart = HAL_GetTick();
 8002060:	f7ff ffee 	bl	8002040 <HAL_GetTick>
 8002064:	60b8      	str	r0, [r7, #8]
  uint32_t wait = Delay;
 8002066:	687b      	ldr	r3, [r7, #4]
 8002068:	60fb      	str	r3, [r7, #12]

  /* Add a freq to guarantee minimum wait */
  if (wait < HAL_MAX_DELAY)
 800206a:	68fb      	ldr	r3, [r7, #12]
 800206c:	f1b3 3fff 	cmp.w	r3, #4294967295
 8002070:	d005      	beq.n	800207e <HAL_Delay+0x26>
  {
    wait += (uint32_t)(uwTickFreq);
 8002072:	4b0a      	ldr	r3, [pc, #40]	@ (800209c <HAL_Delay+0x44>)
 8002074:	781b      	ldrb	r3, [r3, #0]
 8002076:	461a      	mov	r2, r3
 8002078:	68fb      	ldr	r3, [r7, #12]
 800207a:	4413      	add	r3, r2
 800207c:	60fb      	str	r3, [r7, #12]
  }

  while((HAL_GetTick() - tickstart) < wait)
 800207e:	bf00      	nop
 8002080:	f7ff ffde 	bl	8002040 <HAL_GetTick>
 8002084:	4602      	mov	r2, r0
 8002086:	68bb      	ldr	r3, [r7, #8]
 8002088:	1ad3      	subs	r3, r2, r3
 800208a:	68fa      	ldr	r2, [r7, #12]
 800208c:	429a      	cmp	r2, r3
 800208e:	d8f7      	bhi.n	8002080 <HAL_Delay+0x28>
  {
  }
}
 8002090:	bf00      	nop
 8002092:	bf00      	nop
 8002094:	3710      	adds	r7, #16
 8002096:	46bd      	mov	sp, r7
 8002098:	bd80      	pop	{r7, pc}
 800209a:	bf00      	nop
 800209c:	20000010 	.word	0x20000010

080020a0 <HAL_ADC_Init>:
  * @param  hadc pointer to a ADC_HandleTypeDef structure that contains
  *         the configuration information for the specified ADC.
  * @retval HAL status
  */
HAL_StatusTypeDef HAL_ADC_Init(ADC_HandleTypeDef *hadc)
{
 80020a0:	b580      	push	{r7, lr}
 80020a2:	b084      	sub	sp, #16
 80020a4:	af00      	add	r7, sp, #0
 80020a6:	6078      	str	r0, [r7, #4]
  HAL_StatusTypeDef tmp_hal_status = HAL_OK;
 80020a8:	2300      	movs	r3, #0
 80020aa:	73fb      	strb	r3, [r7, #15]

  /* Check ADC handle */
  if (hadc == NULL)
 80020ac:	687b      	ldr	r3, [r7, #4]
 80020ae:	2b00      	cmp	r3, #0
 80020b0:	d101      	bne.n	80020b6 <HAL_ADC_Init+0x16>
  {
    return HAL_ERROR;
 80020b2:	2301      	movs	r3, #1
 80020b4:	e033      	b.n	800211e <HAL_ADC_Init+0x7e>
  if (hadc->Init.ExternalTrigConv != ADC_SOFTWARE_START)
  {
    assert_param(IS_ADC_EXT_TRIG_EDGE(hadc->Init.ExternalTrigConvEdge));
  }

  if (hadc->State == HAL_ADC_STATE_RESET)
 80020b6:	687b      	ldr	r3, [r7, #4]
 80020b8:	6c1b      	ldr	r3, [r3, #64]	@ 0x40
 80020ba:	2b00      	cmp	r3, #0
 80020bc:	d109      	bne.n	80020d2 <HAL_ADC_Init+0x32>

    /* Init the low level hardware */
    hadc->MspInitCallback(hadc);
#else
    /* Init the low level hardware */
    HAL_ADC_MspInit(hadc);
 80020be:	6878      	ldr	r0, [r7, #4]
 80020c0:	f7ff fa10 	bl	80014e4 <HAL_ADC_MspInit>
#endif /* USE_HAL_ADC_REGISTER_CALLBACKS */

    /* Initialize ADC error code */
    ADC_CLEAR_ERRORCODE(hadc);
 80020c4:	687b      	ldr	r3, [r7, #4]
 80020c6:	2200      	movs	r2, #0
 80020c8:	645a      	str	r2, [r3, #68]	@ 0x44

    /* Allocate lock resource and initialize it */
    hadc->Lock = HAL_UNLOCKED;
 80020ca:	687b      	ldr	r3, [r7, #4]
 80020cc:	2200      	movs	r2, #0
 80020ce:	f883 203c 	strb.w	r2, [r3, #60]	@ 0x3c
  }

  /* Configuration of ADC parameters if previous preliminary actions are      */
  /* correctly completed.                                                     */
  if (HAL_IS_BIT_CLR(hadc->State, HAL_ADC_STATE_ERROR_INTERNAL))
 80020d2:	687b      	ldr	r3, [r7, #4]
 80020d4:	6c1b      	ldr	r3, [r3, #64]	@ 0x40
 80020d6:	f003 0310 	and.w	r3, r3, #16
 80020da:	2b00      	cmp	r3, #0
 80020dc:	d118      	bne.n	8002110 <HAL_ADC_Init+0x70>
  {
    /* Set ADC state */
    ADC_STATE_CLR_SET(hadc->State,
 80020de:	687b      	ldr	r3, [r7, #4]
 80020e0:	6c1b      	ldr	r3, [r3, #64]	@ 0x40
 80020e2:	f423 5388 	bic.w	r3, r3, #4352	@ 0x1100
 80020e6:	f023 0302 	bic.w	r3, r3, #2
 80020ea:	f043 0202 	orr.w	r2, r3, #2
 80020ee:	687b      	ldr	r3, [r7, #4]
 80020f0:	641a      	str	r2, [r3, #64]	@ 0x40
                      HAL_ADC_STATE_REG_BUSY | HAL_ADC_STATE_INJ_BUSY,
                      HAL_ADC_STATE_BUSY_INTERNAL);

    /* Set ADC parameters */
    ADC_Init(hadc);
 80020f2:	6878      	ldr	r0, [r7, #4]
 80020f4:	f000 fa62 	bl	80025bc <ADC_Init>

    /* Set ADC error code to none */
    ADC_CLEAR_ERRORCODE(hadc);
 80020f8:	687b      	ldr	r3, [r7, #4]
 80020fa:	2200      	movs	r2, #0
 80020fc:	645a      	str	r2, [r3, #68]	@ 0x44

    /* Set the ADC state */
    ADC_STATE_CLR_SET(hadc->State,
 80020fe:	687b      	ldr	r3, [r7, #4]
 8002100:	6c1b      	ldr	r3, [r3, #64]	@ 0x40
 8002102:	f023 0303 	bic.w	r3, r3, #3
 8002106:	f043 0201 	orr.w	r2, r3, #1
 800210a:	687b      	ldr	r3, [r7, #4]
 800210c:	641a      	str	r2, [r3, #64]	@ 0x40
 800210e:	e001      	b.n	8002114 <HAL_ADC_Init+0x74>
                      HAL_ADC_STATE_BUSY_INTERNAL,
                      HAL_ADC_STATE_READY);
  }
  else
  {
    tmp_hal_status = HAL_ERROR;
 8002110:	2301      	movs	r3, #1
 8002112:	73fb      	strb	r3, [r7, #15]
  }

  /* Release Lock */
  __HAL_UNLOCK(hadc);
 8002114:	687b      	ldr	r3, [r7, #4]
 8002116:	2200      	movs	r2, #0
 8002118:	f883 203c 	strb.w	r2, [r3, #60]	@ 0x3c

  /* Return function status */
  return tmp_hal_status;
 800211c:	7bfb      	ldrb	r3, [r7, #15]
}
 800211e:	4618      	mov	r0, r3
 8002120:	3710      	adds	r7, #16
 8002122:	46bd      	mov	sp, r7
 8002124:	bd80      	pop	{r7, pc}
	...

08002128 <HAL_ADC_Start_DMA>:
  * @param  pData The destination Buffer address.
  * @param  Length The length of data to be transferred from ADC peripheral to memory.
  * @retval HAL status
  */
HAL_StatusTypeDef HAL_ADC_Start_DMA(ADC_HandleTypeDef *hadc, uint32_t *pData, uint32_t Length)
{
 8002128:	b580      	push	{r7, lr}
 800212a:	b088      	sub	sp, #32
 800212c:	af00      	add	r7, sp, #0
 800212e:	60f8      	str	r0, [r7, #12]
 8002130:	60b9      	str	r1, [r7, #8]
 8002132:	607a      	str	r2, [r7, #4]
  __IO uint32_t counter = 0U;
 8002134:	2300      	movs	r3, #0
 8002136:	617b      	str	r3, [r7, #20]
  ADC_Common_TypeDef *tmpADC_Common;
  HAL_StatusTypeDef tmp_hal_status = HAL_OK;
 8002138:	2300      	movs	r3, #0
 800213a:	77fb      	strb	r3, [r7, #31]
  /* Check the parameters */
  assert_param(IS_FUNCTIONAL_STATE(hadc->Init.ContinuousConvMode));
  assert_param(IS_ADC_EXT_TRIG_EDGE(hadc->Init.ExternalTrigConvEdge));

  /* Process locked */
  __HAL_LOCK(hadc);
 800213c:	68fb      	ldr	r3, [r7, #12]
 800213e:	f893 303c 	ldrb.w	r3, [r3, #60]	@ 0x3c
 8002142:	2b01      	cmp	r3, #1
 8002144:	d101      	bne.n	800214a <HAL_ADC_Start_DMA+0x22>
 8002146:	2302      	movs	r3, #2
 8002148:	e0eb      	b.n	8002322 <HAL_ADC_Start_DMA+0x1fa>
 800214a:	68fb      	ldr	r3, [r7, #12]
 800214c:	2201      	movs	r2, #1
 800214e:	f883 203c 	strb.w	r2, [r3, #60]	@ 0x3c

  /* Enable the ADC peripheral */
  /* Check if ADC peripheral is disabled in order to enable it and wait during
  Tstab time the ADC's stabilization */
  if ((hadc->Instance->CR2 & ADC_CR2_ADON) != ADC_CR2_ADON)
 8002152:	68fb      	ldr	r3, [r7, #12]
 8002154:	681b      	ldr	r3, [r3, #0]
 8002156:	689b      	ldr	r3, [r3, #8]
 8002158:	f003 0301 	and.w	r3, r3, #1
 800215c:	2b01      	cmp	r3, #1
 800215e:	d018      	beq.n	8002192 <HAL_ADC_Start_DMA+0x6a>
  {
    /* Enable the Peripheral */
    __HAL_ADC_ENABLE(hadc);
 8002160:	68fb      	ldr	r3, [r7, #12]
 8002162:	681b      	ldr	r3, [r3, #0]
 8002164:	689a      	ldr	r2, [r3, #8]
 8002166:	68fb      	ldr	r3, [r7, #12]
 8002168:	681b      	ldr	r3, [r3, #0]
 800216a:	f042 0201 	orr.w	r2, r2, #1
 800216e:	609a      	str	r2, [r3, #8]

    /* Delay for ADC stabilization time */
    /* Compute number of CPU cycles to wait for */
    counter = (ADC_STAB_DELAY_US * (SystemCoreClock / 1000000U));
 8002170:	4b6e      	ldr	r3, [pc, #440]	@ (800232c <HAL_ADC_Start_DMA+0x204>)
 8002172:	681b      	ldr	r3, [r3, #0]
 8002174:	4a6e      	ldr	r2, [pc, #440]	@ (8002330 <HAL_ADC_Start_DMA+0x208>)
 8002176:	fba2 2303 	umull	r2, r3, r2, r3
 800217a:	0c9a      	lsrs	r2, r3, #18
 800217c:	4613      	mov	r3, r2
 800217e:	005b      	lsls	r3, r3, #1
 8002180:	4413      	add	r3, r2
 8002182:	617b      	str	r3, [r7, #20]
    while (counter != 0U)
 8002184:	e002      	b.n	800218c <HAL_ADC_Start_DMA+0x64>
    {
      counter--;
 8002186:	697b      	ldr	r3, [r7, #20]
 8002188:	3b01      	subs	r3, #1
 800218a:	617b      	str	r3, [r7, #20]
    while (counter != 0U)
 800218c:	697b      	ldr	r3, [r7, #20]
 800218e:	2b00      	cmp	r3, #0
 8002190:	d1f9      	bne.n	8002186 <HAL_ADC_Start_DMA+0x5e>
    }
  }

  /* Check ADC DMA Mode                                                     */
  /* - disable the DMA Mode if it is already enabled                        */
  if ((hadc->Instance->CR2 & ADC_CR2_DMA) == ADC_CR2_DMA)
 8002192:	68fb      	ldr	r3, [r7, #12]
 8002194:	681b      	ldr	r3, [r3, #0]
 8002196:	689b      	ldr	r3, [r3, #8]
 8002198:	f403 7380 	and.w	r3, r3, #256	@ 0x100
 800219c:	f5b3 7f80 	cmp.w	r3, #256	@ 0x100
 80021a0:	d107      	bne.n	80021b2 <HAL_ADC_Start_DMA+0x8a>
  {
    CLEAR_BIT(hadc->Instance->CR2, ADC_CR2_DMA);
 80021a2:	68fb      	ldr	r3, [r7, #12]
 80021a4:	681b      	ldr	r3, [r3, #0]
 80021a6:	689a      	ldr	r2, [r3, #8]
 80021a8:	68fb      	ldr	r3, [r7, #12]
 80021aa:	681b      	ldr	r3, [r3, #0]
 80021ac:	f422 7280 	bic.w	r2, r2, #256	@ 0x100
 80021b0:	609a      	str	r2, [r3, #8]
  }

  /* Start conversion if ADC is effectively enabled */
  if (HAL_IS_BIT_SET(hadc->Instance->CR2, ADC_CR2_ADON))
 80021b2:	68fb      	ldr	r3, [r7, #12]
 80021b4:	681b      	ldr	r3, [r3, #0]
 80021b6:	689b      	ldr	r3, [r3, #8]
 80021b8:	f003 0301 	and.w	r3, r3, #1
 80021bc:	2b01      	cmp	r3, #1
 80021be:	f040 80a3 	bne.w	8002308 <HAL_ADC_Start_DMA+0x1e0>
  {
    /* Set ADC state                                                          */
    /* - Clear state bitfield related to regular group conversion results     */
    /* - Set state bitfield related to regular group operation                */
    ADC_STATE_CLR_SET(hadc->State,
 80021c2:	68fb      	ldr	r3, [r7, #12]
 80021c4:	6c1b      	ldr	r3, [r3, #64]	@ 0x40
 80021c6:	f423 63e0 	bic.w	r3, r3, #1792	@ 0x700
 80021ca:	f023 0301 	bic.w	r3, r3, #1
 80021ce:	f443 7280 	orr.w	r2, r3, #256	@ 0x100
 80021d2:	68fb      	ldr	r3, [r7, #12]
 80021d4:	641a      	str	r2, [r3, #64]	@ 0x40
                      HAL_ADC_STATE_READY | HAL_ADC_STATE_REG_EOC | HAL_ADC_STATE_REG_OVR,
                      HAL_ADC_STATE_REG_BUSY);

    /* If conversions on group regular are also triggering group injected,    */
    /* update ADC state.                                                      */
    if (READ_BIT(hadc->Instance->CR1, ADC_CR1_JAUTO) != RESET)
 80021d6:	68fb      	ldr	r3, [r7, #12]
 80021d8:	681b      	ldr	r3, [r3, #0]
 80021da:	685b      	ldr	r3, [r3, #4]
 80021dc:	f403 6380 	and.w	r3, r3, #1024	@ 0x400
 80021e0:	2b00      	cmp	r3, #0
 80021e2:	d007      	beq.n	80021f4 <HAL_ADC_Start_DMA+0xcc>
    {
      ADC_STATE_CLR_SET(hadc->State, HAL_ADC_STATE_INJ_EOC, HAL_ADC_STATE_INJ_BUSY);
 80021e4:	68fb      	ldr	r3, [r7, #12]
 80021e6:	6c1b      	ldr	r3, [r3, #64]	@ 0x40
 80021e8:	f423 5340 	bic.w	r3, r3, #12288	@ 0x3000
 80021ec:	f443 5280 	orr.w	r2, r3, #4096	@ 0x1000
 80021f0:	68fb      	ldr	r3, [r7, #12]
 80021f2:	641a      	str	r2, [r3, #64]	@ 0x40
    }

    /* State machine update: Check if an injected conversion is ongoing */
    if (HAL_IS_BIT_SET(hadc->State, HAL_ADC_STATE_INJ_BUSY))
 80021f4:	68fb      	ldr	r3, [r7, #12]
 80021f6:	6c1b      	ldr	r3, [r3, #64]	@ 0x40
 80021f8:	f403 5380 	and.w	r3, r3, #4096	@ 0x1000
 80021fc:	f5b3 5f80 	cmp.w	r3, #4096	@ 0x1000
 8002200:	d106      	bne.n	8002210 <HAL_ADC_Start_DMA+0xe8>
    {
      /* Reset ADC error code fields related to conversions on group regular */
      CLEAR_BIT(hadc->ErrorCode, (HAL_ADC_ERROR_OVR | HAL_ADC_ERROR_DMA));
 8002202:	68fb      	ldr	r3, [r7, #12]
 8002204:	6c5b      	ldr	r3, [r3, #68]	@ 0x44
 8002206:	f023 0206 	bic.w	r2, r3, #6
 800220a:	68fb      	ldr	r3, [r7, #12]
 800220c:	645a      	str	r2, [r3, #68]	@ 0x44
 800220e:	e002      	b.n	8002216 <HAL_ADC_Start_DMA+0xee>
    }
    else
    {
      /* Reset ADC all error code fields */
      ADC_CLEAR_ERRORCODE(hadc);
 8002210:	68fb      	ldr	r3, [r7, #12]
 8002212:	2200      	movs	r2, #0
 8002214:	645a      	str	r2, [r3, #68]	@ 0x44
    }

    /* Process unlocked */
    /* Unlock before starting ADC conversions: in case of potential           */
    /* interruption, to let the process to ADC IRQ Handler.                   */
    __HAL_UNLOCK(hadc);
 8002216:	68fb      	ldr	r3, [r7, #12]
 8002218:	2200      	movs	r2, #0
 800221a:	f883 203c 	strb.w	r2, [r3, #60]	@ 0x3c

    /* Pointer to the common control register to which is belonging hadc    */
    /* (Depending on STM32F4 product, there may be up to 3 ADCs and 1 common */
    /* control register)                                                    */
    tmpADC_Common = ADC_COMMON_REGISTER(hadc);
 800221e:	4b45      	ldr	r3, [pc, #276]	@ (8002334 <HAL_ADC_Start_DMA+0x20c>)
 8002220:	61bb      	str	r3, [r7, #24]

    /* Set the DMA transfer complete callback */
    hadc->DMA_Handle->XferCpltCallback = ADC_DMAConvCplt;
 8002222:	68fb      	ldr	r3, [r7, #12]
 8002224:	6b9b      	ldr	r3, [r3, #56]	@ 0x38
 8002226:	4a44      	ldr	r2, [pc, #272]	@ (8002338 <HAL_ADC_Start_DMA+0x210>)
 8002228:	63da      	str	r2, [r3, #60]	@ 0x3c

    /* Set the DMA half transfer complete callback */
    hadc->DMA_Handle->XferHalfCpltCallback = ADC_DMAHalfConvCplt;
 800222a:	68fb      	ldr	r3, [r7, #12]
 800222c:	6b9b      	ldr	r3, [r3, #56]	@ 0x38
 800222e:	4a43      	ldr	r2, [pc, #268]	@ (800233c <HAL_ADC_Start_DMA+0x214>)
 8002230:	641a      	str	r2, [r3, #64]	@ 0x40

    /* Set the DMA error callback */
    hadc->DMA_Handle->XferErrorCallback = ADC_DMAError;
 8002232:	68fb      	ldr	r3, [r7, #12]
 8002234:	6b9b      	ldr	r3, [r3, #56]	@ 0x38
 8002236:	4a42      	ldr	r2, [pc, #264]	@ (8002340 <HAL_ADC_Start_DMA+0x218>)
 8002238:	64da      	str	r2, [r3, #76]	@ 0x4c
    /* Manage ADC and DMA start: ADC overrun interruption, DMA start, ADC     */
    /* start (in case of SW start):                                           */

    /* Clear regular group conversion flag and overrun flag */
    /* (To ensure of no unknown state from potential previous ADC operations) */
    __HAL_ADC_CLEAR_FLAG(hadc, ADC_FLAG_EOC | ADC_FLAG_OVR);
 800223a:	68fb      	ldr	r3, [r7, #12]
 800223c:	681b      	ldr	r3, [r3, #0]
 800223e:	f06f 0222 	mvn.w	r2, #34	@ 0x22
 8002242:	601a      	str	r2, [r3, #0]

    /* Enable ADC overrun interrupt */
    __HAL_ADC_ENABLE_IT(hadc, ADC_IT_OVR);
 8002244:	68fb      	ldr	r3, [r7, #12]
 8002246:	681b      	ldr	r3, [r3, #0]
 8002248:	685a      	ldr	r2, [r3, #4]
 800224a:	68fb      	ldr	r3, [r7, #12]
 800224c:	681b      	ldr	r3, [r3, #0]
 800224e:	f042 6280 	orr.w	r2, r2, #67108864	@ 0x4000000
 8002252:	605a      	str	r2, [r3, #4]

    /* Enable ADC DMA mode */
    hadc->Instance->CR2 |= ADC_CR2_DMA;
 8002254:	68fb      	ldr	r3, [r7, #12]
 8002256:	681b      	ldr	r3, [r3, #0]
 8002258:	689a      	ldr	r2, [r3, #8]
 800225a:	68fb      	ldr	r3, [r7, #12]
 800225c:	681b      	ldr	r3, [r3, #0]
 800225e:	f442 7280 	orr.w	r2, r2, #256	@ 0x100
 8002262:	609a      	str	r2, [r3, #8]

    /* Start the DMA channel */
    tmp_hal_status = HAL_DMA_Start_IT(hadc->DMA_Handle, (uint32_t)&hadc->Instance->DR, (uint32_t)pData, Length);
 8002264:	68fb      	ldr	r3, [r7, #12]
 8002266:	6b98      	ldr	r0, [r3, #56]	@ 0x38
 8002268:	68fb      	ldr	r3, [r7, #12]
 800226a:	681b      	ldr	r3, [r3, #0]
 800226c:	334c      	adds	r3, #76	@ 0x4c
 800226e:	4619      	mov	r1, r3
 8002270:	68ba      	ldr	r2, [r7, #8]
 8002272:	687b      	ldr	r3, [r7, #4]
 8002274:	f000 fce0 	bl	8002c38 <HAL_DMA_Start_IT>
 8002278:	4603      	mov	r3, r0
 800227a:	77fb      	strb	r3, [r7, #31]

    /* Check if Multimode enabled */
    if (HAL_IS_BIT_CLR(tmpADC_Common->CCR, ADC_CCR_MULTI))
 800227c:	69bb      	ldr	r3, [r7, #24]
 800227e:	685b      	ldr	r3, [r3, #4]
 8002280:	f003 031f 	and.w	r3, r3, #31
 8002284:	2b00      	cmp	r3, #0
 8002286:	d12a      	bne.n	80022de <HAL_ADC_Start_DMA+0x1b6>
    {
#if defined(ADC2) && defined(ADC3)
      if ((hadc->Instance == ADC1) || ((hadc->Instance == ADC2) && ((ADC->CCR & ADC_CCR_MULTI_Msk) < ADC_CCR_MULTI_0)) \
 8002288:	68fb      	ldr	r3, [r7, #12]
 800228a:	681b      	ldr	r3, [r3, #0]
 800228c:	4a2d      	ldr	r2, [pc, #180]	@ (8002344 <HAL_ADC_Start_DMA+0x21c>)
 800228e:	4293      	cmp	r3, r2
 8002290:	d015      	beq.n	80022be <HAL_ADC_Start_DMA+0x196>
 8002292:	68fb      	ldr	r3, [r7, #12]
 8002294:	681b      	ldr	r3, [r3, #0]
 8002296:	4a2c      	ldr	r2, [pc, #176]	@ (8002348 <HAL_ADC_Start_DMA+0x220>)
 8002298:	4293      	cmp	r3, r2
 800229a:	d105      	bne.n	80022a8 <HAL_ADC_Start_DMA+0x180>
 800229c:	4b25      	ldr	r3, [pc, #148]	@ (8002334 <HAL_ADC_Start_DMA+0x20c>)
 800229e:	685b      	ldr	r3, [r3, #4]
 80022a0:	f003 031f 	and.w	r3, r3, #31
 80022a4:	2b00      	cmp	r3, #0
 80022a6:	d00a      	beq.n	80022be <HAL_ADC_Start_DMA+0x196>
          || ((hadc->Instance == ADC3) && ((ADC->CCR & ADC_CCR_MULTI_Msk) < ADC_CCR_MULTI_4)))
 80022a8:	68fb      	ldr	r3, [r7, #12]
 80022aa:	681b      	ldr	r3, [r3, #0]
 80022ac:	4a27      	ldr	r2, [pc, #156]	@ (800234c <HAL_ADC_Start_DMA+0x224>)
 80022ae:	4293      	cmp	r3, r2
 80022b0:	d136      	bne.n	8002320 <HAL_ADC_Start_DMA+0x1f8>
 80022b2:	4b20      	ldr	r3, [pc, #128]	@ (8002334 <HAL_ADC_Start_DMA+0x20c>)
 80022b4:	685b      	ldr	r3, [r3, #4]
 80022b6:	f003 0310 	and.w	r3, r3, #16
 80022ba:	2b00      	cmp	r3, #0
 80022bc:	d130      	bne.n	8002320 <HAL_ADC_Start_DMA+0x1f8>
      {
#endif /* ADC2 || ADC3 */
        /* if no external trigger present enable software conversion of regular channels */
        if ((hadc->Instance->CR2 & ADC_CR2_EXTEN) == RESET)
 80022be:	68fb      	ldr	r3, [r7, #12]
 80022c0:	681b      	ldr	r3, [r3, #0]
 80022c2:	689b      	ldr	r3, [r3, #8]
 80022c4:	f003 5340 	and.w	r3, r3, #805306368	@ 0x30000000
 80022c8:	2b00      	cmp	r3, #0
 80022ca:	d129      	bne.n	8002320 <HAL_ADC_Start_DMA+0x1f8>
        {
          /* Enable the selected ADC software conversion for regular group */
          hadc->Instance->CR2 |= (uint32_t)ADC_CR2_SWSTART;
 80022cc:	68fb      	ldr	r3, [r7, #12]
 80022ce:	681b      	ldr	r3, [r3, #0]
 80022d0:	689a      	ldr	r2, [r3, #8]
 80022d2:	68fb      	ldr	r3, [r7, #12]
 80022d4:	681b      	ldr	r3, [r3, #0]
 80022d6:	f042 4280 	orr.w	r2, r2, #1073741824	@ 0x40000000
 80022da:	609a      	str	r2, [r3, #8]
 80022dc:	e020      	b.n	8002320 <HAL_ADC_Start_DMA+0x1f8>
#endif /* ADC2 || ADC3 */
    }
    else
    {
      /* if instance of handle correspond to ADC1 and  no external trigger present enable software conversion of regular channels */
      if ((hadc->Instance == ADC1) && ((hadc->Instance->CR2 & ADC_CR2_EXTEN) == RESET))
 80022de:	68fb      	ldr	r3, [r7, #12]
 80022e0:	681b      	ldr	r3, [r3, #0]
 80022e2:	4a18      	ldr	r2, [pc, #96]	@ (8002344 <HAL_ADC_Start_DMA+0x21c>)
 80022e4:	4293      	cmp	r3, r2
 80022e6:	d11b      	bne.n	8002320 <HAL_ADC_Start_DMA+0x1f8>
 80022e8:	68fb      	ldr	r3, [r7, #12]
 80022ea:	681b      	ldr	r3, [r3, #0]
 80022ec:	689b      	ldr	r3, [r3, #8]
 80022ee:	f003 5340 	and.w	r3, r3, #805306368	@ 0x30000000
 80022f2:	2b00      	cmp	r3, #0
 80022f4:	d114      	bne.n	8002320 <HAL_ADC_Start_DMA+0x1f8>
      {
        /* Enable the selected ADC software conversion for regular group */
        hadc->Instance->CR2 |= (uint32_t)ADC_CR2_SWSTART;
 80022f6:	68fb      	ldr	r3, [r7, #12]
 80022f8:	681b      	ldr	r3, [r3, #0]
 80022fa:	689a      	ldr	r2, [r3, #8]
 80022fc:	68fb      	ldr	r3, [r7, #12]
 80022fe:	681b      	ldr	r3, [r3, #0]
 8002300:	f042 4280 	orr.w	r2, r2, #1073741824	@ 0x40000000
 8002304:	609a      	str	r2, [r3, #8]
 8002306:	e00b      	b.n	8002320 <HAL_ADC_Start_DMA+0x1f8>
    }
  }
  else
  {
    /* Update ADC state machine to error */
    SET_BIT(hadc->State, HAL_ADC_STATE_ERROR_INTERNAL);
 8002308:	68fb      	ldr	r3, [r7, #12]
 800230a:	6c1b      	ldr	r3, [r3, #64]	@ 0x40
 800230c:	f043 0210 	orr.w	r2, r3, #16
 8002310:	68fb      	ldr	r3, [r7, #12]
 8002312:	641a      	str	r2, [r3, #64]	@ 0x40

    /* Set ADC error code to ADC IP internal error */
    SET_BIT(hadc->ErrorCode, HAL_ADC_ERROR_INTERNAL);
 8002314:	68fb      	ldr	r3, [r7, #12]
 8002316:	6c5b      	ldr	r3, [r3, #68]	@ 0x44
 8002318:	f043 0201 	orr.w	r2, r3, #1
 800231c:	68fb      	ldr	r3, [r7, #12]
 800231e:	645a      	str	r2, [r3, #68]	@ 0x44
  }

  /* Return function status */
  return tmp_hal_status;
 8002320:	7ffb      	ldrb	r3, [r7, #31]
}
 8002322:	4618      	mov	r0, r3
 8002324:	3720      	adds	r7, #32
 8002326:	46bd      	mov	sp, r7
 8002328:	bd80      	pop	{r7, pc}
 800232a:	bf00      	nop
 800232c:	20000008 	.word	0x20000008
 8002330:	431bde83 	.word	0x431bde83
 8002334:	40012300 	.word	0x40012300
 8002338:	080027b5 	.word	0x080027b5
 800233c:	0800286f 	.word	0x0800286f
 8002340:	0800288b 	.word	0x0800288b
 8002344:	40012000 	.word	0x40012000
 8002348:	40012100 	.word	0x40012100
 800234c:	40012200 	.word	0x40012200

08002350 <HAL_ADC_ConvHalfCpltCallback>:
  * @param  hadc pointer to a ADC_HandleTypeDef structure that contains
  *         the configuration information for the specified ADC.
  * @retval None
  */
__weak void HAL_ADC_ConvHalfCpltCallback(ADC_HandleTypeDef *hadc)
{
 8002350:	b480      	push	{r7}
 8002352:	b083      	sub	sp, #12
 8002354:	af00      	add	r7, sp, #0
 8002356:	6078      	str	r0, [r7, #4]
  /* Prevent unused argument(s) compilation warning */
  UNUSED(hadc);
  /* NOTE : This function Should not be modified, when the callback is needed,
            the HAL_ADC_ConvHalfCpltCallback could be implemented in the user file
   */
}
 8002358:	bf00      	nop
 800235a:	370c      	adds	r7, #12
 800235c:	46bd      	mov	sp, r7
 800235e:	f85d 7b04 	ldr.w	r7, [sp], #4
 8002362:	4770      	bx	lr

08002364 <HAL_ADC_ErrorCallback>:
  * @param  hadc pointer to a ADC_HandleTypeDef structure that contains
  *         the configuration information for the specified ADC.
  * @retval None
  */
__weak void HAL_ADC_ErrorCallback(ADC_HandleTypeDef *hadc)
{
 8002364:	b480      	push	{r7}
 8002366:	b083      	sub	sp, #12
 8002368:	af00      	add	r7, sp, #0
 800236a:	6078      	str	r0, [r7, #4]
  /* Prevent unused argument(s) compilation warning */
  UNUSED(hadc);
  /* NOTE : This function Should not be modified, when the callback is needed,
            the HAL_ADC_ErrorCallback could be implemented in the user file
   */
}
 800236c:	bf00      	nop
 800236e:	370c      	adds	r7, #12
 8002370:	46bd      	mov	sp, r7
 8002372:	f85d 7b04 	ldr.w	r7, [sp], #4
 8002376:	4770      	bx	lr

08002378 <HAL_ADC_ConfigChannel>:
*         the configuration information for the specified ADC.
* @param  sConfig ADC configuration structure.
* @retval HAL status
*/
HAL_StatusTypeDef HAL_ADC_ConfigChannel(ADC_HandleTypeDef *hadc, ADC_ChannelConfTypeDef *sConfig)
{
 8002378:	b480      	push	{r7}
 800237a:	b085      	sub	sp, #20
 800237c:	af00      	add	r7, sp, #0
 800237e:	6078      	str	r0, [r7, #4]
 8002380:	6039      	str	r1, [r7, #0]
  __IO uint32_t counter = 0U;
 8002382:	2300      	movs	r3, #0
 8002384:	60bb      	str	r3, [r7, #8]
  assert_param(IS_ADC_CHANNEL(sConfig->Channel));
  assert_param(IS_ADC_REGULAR_RANK(sConfig->Rank));
  assert_param(IS_ADC_SAMPLE_TIME(sConfig->SamplingTime));

  /* Process locked */
  __HAL_LOCK(hadc);
 8002386:	687b      	ldr	r3, [r7, #4]
 8002388:	f893 303c 	ldrb.w	r3, [r3, #60]	@ 0x3c
 800238c:	2b01      	cmp	r3, #1
 800238e:	d101      	bne.n	8002394 <HAL_ADC_ConfigChannel+0x1c>
 8002390:	2302      	movs	r3, #2
 8002392:	e105      	b.n	80025a0 <HAL_ADC_ConfigChannel+0x228>
 8002394:	687b      	ldr	r3, [r7, #4]
 8002396:	2201      	movs	r2, #1
 8002398:	f883 203c 	strb.w	r2, [r3, #60]	@ 0x3c

  /* if ADC_Channel_10 ... ADC_Channel_18 is selected */
  if (sConfig->Channel > ADC_CHANNEL_9)
 800239c:	683b      	ldr	r3, [r7, #0]
 800239e:	681b      	ldr	r3, [r3, #0]
 80023a0:	2b09      	cmp	r3, #9
 80023a2:	d925      	bls.n	80023f0 <HAL_ADC_ConfigChannel+0x78>
  {
    /* Clear the old sample time */
    hadc->Instance->SMPR1 &= ~ADC_SMPR1(ADC_SMPR1_SMP10, sConfig->Channel);
 80023a4:	687b      	ldr	r3, [r7, #4]
 80023a6:	681b      	ldr	r3, [r3, #0]
 80023a8:	68d9      	ldr	r1, [r3, #12]
 80023aa:	683b      	ldr	r3, [r7, #0]
 80023ac:	681b      	ldr	r3, [r3, #0]
 80023ae:	b29b      	uxth	r3, r3
 80023b0:	461a      	mov	r2, r3
 80023b2:	4613      	mov	r3, r2
 80023b4:	005b      	lsls	r3, r3, #1
 80023b6:	4413      	add	r3, r2
 80023b8:	3b1e      	subs	r3, #30
 80023ba:	2207      	movs	r2, #7
 80023bc:	fa02 f303 	lsl.w	r3, r2, r3
 80023c0:	43da      	mvns	r2, r3
 80023c2:	687b      	ldr	r3, [r7, #4]
 80023c4:	681b      	ldr	r3, [r3, #0]
 80023c6:	400a      	ands	r2, r1
 80023c8:	60da      	str	r2, [r3, #12]

    /* Set the new sample time */
    hadc->Instance->SMPR1 |= ADC_SMPR1(sConfig->SamplingTime, sConfig->Channel);
 80023ca:	687b      	ldr	r3, [r7, #4]
 80023cc:	681b      	ldr	r3, [r3, #0]
 80023ce:	68d9      	ldr	r1, [r3, #12]
 80023d0:	683b      	ldr	r3, [r7, #0]
 80023d2:	689a      	ldr	r2, [r3, #8]
 80023d4:	683b      	ldr	r3, [r7, #0]
 80023d6:	681b      	ldr	r3, [r3, #0]
 80023d8:	b29b      	uxth	r3, r3
 80023da:	4618      	mov	r0, r3
 80023dc:	4603      	mov	r3, r0
 80023de:	005b      	lsls	r3, r3, #1
 80023e0:	4403      	add	r3, r0
 80023e2:	3b1e      	subs	r3, #30
 80023e4:	409a      	lsls	r2, r3
 80023e6:	687b      	ldr	r3, [r7, #4]
 80023e8:	681b      	ldr	r3, [r3, #0]
 80023ea:	430a      	orrs	r2, r1
 80023ec:	60da      	str	r2, [r3, #12]
 80023ee:	e022      	b.n	8002436 <HAL_ADC_ConfigChannel+0xbe>
  }
  else /* ADC_Channel include in ADC_Channel_[0..9] */
  {
    /* Clear the old sample time */
    hadc->Instance->SMPR2 &= ~ADC_SMPR2(ADC_SMPR2_SMP0, sConfig->Channel);
 80023f0:	687b      	ldr	r3, [r7, #4]
 80023f2:	681b      	ldr	r3, [r3, #0]
 80023f4:	6919      	ldr	r1, [r3, #16]
 80023f6:	683b      	ldr	r3, [r7, #0]
 80023f8:	681b      	ldr	r3, [r3, #0]
 80023fa:	b29b      	uxth	r3, r3
 80023fc:	461a      	mov	r2, r3
 80023fe:	4613      	mov	r3, r2
 8002400:	005b      	lsls	r3, r3, #1
 8002402:	4413      	add	r3, r2
 8002404:	2207      	movs	r2, #7
 8002406:	fa02 f303 	lsl.w	r3, r2, r3
 800240a:	43da      	mvns	r2, r3
 800240c:	687b      	ldr	r3, [r7, #4]
 800240e:	681b      	ldr	r3, [r3, #0]
 8002410:	400a      	ands	r2, r1
 8002412:	611a      	str	r2, [r3, #16]

    /* Set the new sample time */
    hadc->Instance->SMPR2 |= ADC_SMPR2(sConfig->SamplingTime, sConfig->Channel);
 8002414:	687b      	ldr	r3, [r7, #4]
 8002416:	681b      	ldr	r3, [r3, #0]
 8002418:	6919      	ldr	r1, [r3, #16]
 800241a:	683b      	ldr	r3, [r7, #0]
 800241c:	689a      	ldr	r2, [r3, #8]
 800241e:	683b      	ldr	r3, [r7, #0]
 8002420:	681b      	ldr	r3, [r3, #0]
 8002422:	b29b      	uxth	r3, r3
 8002424:	4618      	mov	r0, r3
 8002426:	4603      	mov	r3, r0
 8002428:	005b      	lsls	r3, r3, #1
 800242a:	4403      	add	r3, r0
 800242c:	409a      	lsls	r2, r3
 800242e:	687b      	ldr	r3, [r7, #4]
 8002430:	681b      	ldr	r3, [r3, #0]
 8002432:	430a      	orrs	r2, r1
 8002434:	611a      	str	r2, [r3, #16]
  }

  /* For Rank 1 to 6 */
  if (sConfig->Rank < 7U)
 8002436:	683b      	ldr	r3, [r7, #0]
 8002438:	685b      	ldr	r3, [r3, #4]
 800243a:	2b06      	cmp	r3, #6
 800243c:	d824      	bhi.n	8002488 <HAL_ADC_ConfigChannel+0x110>
  {
    /* Clear the old SQx bits for the selected rank */
    hadc->Instance->SQR3 &= ~ADC_SQR3_RK(ADC_SQR3_SQ1, sConfig->Rank);
 800243e:	687b      	ldr	r3, [r7, #4]
 8002440:	681b      	ldr	r3, [r3, #0]
 8002442:	6b59      	ldr	r1, [r3, #52]	@ 0x34
 8002444:	683b      	ldr	r3, [r7, #0]
 8002446:	685a      	ldr	r2, [r3, #4]
 8002448:	4613      	mov	r3, r2
 800244a:	009b      	lsls	r3, r3, #2
 800244c:	4413      	add	r3, r2
 800244e:	3b05      	subs	r3, #5
 8002450:	221f      	movs	r2, #31
 8002452:	fa02 f303 	lsl.w	r3, r2, r3
 8002456:	43da      	mvns	r2, r3
 8002458:	687b      	ldr	r3, [r7, #4]
 800245a:	681b      	ldr	r3, [r3, #0]
 800245c:	400a      	ands	r2, r1
 800245e:	635a      	str	r2, [r3, #52]	@ 0x34

    /* Set the SQx bits for the selected rank */
    hadc->Instance->SQR3 |= ADC_SQR3_RK(sConfig->Channel, sConfig->Rank);
 8002460:	687b      	ldr	r3, [r7, #4]
 8002462:	681b      	ldr	r3, [r3, #0]
 8002464:	6b59      	ldr	r1, [r3, #52]	@ 0x34
 8002466:	683b      	ldr	r3, [r7, #0]
 8002468:	681b      	ldr	r3, [r3, #0]
 800246a:	b29b      	uxth	r3, r3
 800246c:	4618      	mov	r0, r3
 800246e:	683b      	ldr	r3, [r7, #0]
 8002470:	685a      	ldr	r2, [r3, #4]
 8002472:	4613      	mov	r3, r2
 8002474:	009b      	lsls	r3, r3, #2
 8002476:	4413      	add	r3, r2
 8002478:	3b05      	subs	r3, #5
 800247a:	fa00 f203 	lsl.w	r2, r0, r3
 800247e:	687b      	ldr	r3, [r7, #4]
 8002480:	681b      	ldr	r3, [r3, #0]
 8002482:	430a      	orrs	r2, r1
 8002484:	635a      	str	r2, [r3, #52]	@ 0x34
 8002486:	e04c      	b.n	8002522 <HAL_ADC_ConfigChannel+0x1aa>
  }
  /* For Rank 7 to 12 */
  else if (sConfig->Rank < 13U)
 8002488:	683b      	ldr	r3, [r7, #0]
 800248a:	685b      	ldr	r3, [r3, #4]
 800248c:	2b0c      	cmp	r3, #12
 800248e:	d824      	bhi.n	80024da <HAL_ADC_ConfigChannel+0x162>
  {
    /* Clear the old SQx bits for the selected rank */
    hadc->Instance->SQR2 &= ~ADC_SQR2_RK(ADC_SQR2_SQ7, sConfig->Rank);
 8002490:	687b      	ldr	r3, [r7, #4]
 8002492:	681b      	ldr	r3, [r3, #0]
 8002494:	6b19      	ldr	r1, [r3, #48]	@ 0x30
 8002496:	683b      	ldr	r3, [r7, #0]
 8002498:	685a      	ldr	r2, [r3, #4]
 800249a:	4613      	mov	r3, r2
 800249c:	009b      	lsls	r3, r3, #2
 800249e:	4413      	add	r3, r2
 80024a0:	3b23      	subs	r3, #35	@ 0x23
 80024a2:	221f      	movs	r2, #31
 80024a4:	fa02 f303 	lsl.w	r3, r2, r3
 80024a8:	43da      	mvns	r2, r3
 80024aa:	687b      	ldr	r3, [r7, #4]
 80024ac:	681b      	ldr	r3, [r3, #0]
 80024ae:	400a      	ands	r2, r1
 80024b0:	631a      	str	r2, [r3, #48]	@ 0x30

    /* Set the SQx bits for the selected rank */
    hadc->Instance->SQR2 |= ADC_SQR2_RK(sConfig->Channel, sConfig->Rank);
 80024b2:	687b      	ldr	r3, [r7, #4]
 80024b4:	681b      	ldr	r3, [r3, #0]
 80024b6:	6b19      	ldr	r1, [r3, #48]	@ 0x30
 80024b8:	683b      	ldr	r3, [r7, #0]
 80024ba:	681b      	ldr	r3, [r3, #0]
 80024bc:	b29b      	uxth	r3, r3
 80024be:	4618      	mov	r0, r3
 80024c0:	683b      	ldr	r3, [r7, #0]
 80024c2:	685a      	ldr	r2, [r3, #4]
 80024c4:	4613      	mov	r3, r2
 80024c6:	009b      	lsls	r3, r3, #2
 80024c8:	4413      	add	r3, r2
 80024ca:	3b23      	subs	r3, #35	@ 0x23
 80024cc:	fa00 f203 	lsl.w	r2, r0, r3
 80024d0:	687b      	ldr	r3, [r7, #4]
 80024d2:	681b      	ldr	r3, [r3, #0]
 80024d4:	430a      	orrs	r2, r1
 80024d6:	631a      	str	r2, [r3, #48]	@ 0x30
 80024d8:	e023      	b.n	8002522 <HAL_ADC_ConfigChannel+0x1aa>
  }
  /* For Rank 13 to 16 */
  else
  {
    /* Clear the old SQx bits for the selected rank */
    hadc->Instance->SQR1 &= ~ADC_SQR1_RK(ADC_SQR1_SQ13, sConfig->Rank);
 80024da:	687b      	ldr	r3, [r7, #4]
 80024dc:	681b      	ldr	r3, [r3, #0]
 80024de:	6ad9      	ldr	r1, [r3, #44]	@ 0x2c
 80024e0:	683b      	ldr	r3, [r7, #0]
 80024e2:	685a      	ldr	r2, [r3, #4]
 80024e4:	4613      	mov	r3, r2
 80024e6:	009b      	lsls	r3, r3, #2
 80024e8:	4413      	add	r3, r2
 80024ea:	3b41      	subs	r3, #65	@ 0x41
 80024ec:	221f      	movs	r2, #31
 80024ee:	fa02 f303 	lsl.w	r3, r2, r3
 80024f2:	43da      	mvns	r2, r3
 80024f4:	687b      	ldr	r3, [r7, #4]
 80024f6:	681b      	ldr	r3, [r3, #0]
 80024f8:	400a      	ands	r2, r1
 80024fa:	62da      	str	r2, [r3, #44]	@ 0x2c

    /* Set the SQx bits for the selected rank */
    hadc->Instance->SQR1 |= ADC_SQR1_RK(sConfig->Channel, sConfig->Rank);
 80024fc:	687b      	ldr	r3, [r7, #4]
 80024fe:	681b      	ldr	r3, [r3, #0]
 8002500:	6ad9      	ldr	r1, [r3, #44]	@ 0x2c
 8002502:	683b      	ldr	r3, [r7, #0]
 8002504:	681b      	ldr	r3, [r3, #0]
 8002506:	b29b      	uxth	r3, r3
 8002508:	4618      	mov	r0, r3
 800250a:	683b      	ldr	r3, [r7, #0]
 800250c:	685a      	ldr	r2, [r3, #4]
 800250e:	4613      	mov	r3, r2
 8002510:	009b      	lsls	r3, r3, #2
 8002512:	4413      	add	r3, r2
 8002514:	3b41      	subs	r3, #65	@ 0x41
 8002516:	fa00 f203 	lsl.w	r2, r0, r3
 800251a:	687b      	ldr	r3, [r7, #4]
 800251c:	681b      	ldr	r3, [r3, #0]
 800251e:	430a      	orrs	r2, r1
 8002520:	62da      	str	r2, [r3, #44]	@ 0x2c
  }

  /* Pointer to the common control register to which is belonging hadc    */
  /* (Depending on STM32F4 product, there may be up to 3 ADCs and 1 common */
  /* control register)                                                    */
  tmpADC_Common = ADC_COMMON_REGISTER(hadc);
 8002522:	4b22      	ldr	r3, [pc, #136]	@ (80025ac <HAL_ADC_ConfigChannel+0x234>)
 8002524:	60fb      	str	r3, [r7, #12]

  /* if ADC1 Channel_18 is selected for VBAT Channel ennable VBATE */
  if ((hadc->Instance == ADC1) && (sConfig->Channel == ADC_CHANNEL_VBAT))
 8002526:	687b      	ldr	r3, [r7, #4]
 8002528:	681b      	ldr	r3, [r3, #0]
 800252a:	4a21      	ldr	r2, [pc, #132]	@ (80025b0 <HAL_ADC_ConfigChannel+0x238>)
 800252c:	4293      	cmp	r3, r2
 800252e:	d109      	bne.n	8002544 <HAL_ADC_ConfigChannel+0x1cc>
 8002530:	683b      	ldr	r3, [r7, #0]
 8002532:	681b      	ldr	r3, [r3, #0]
 8002534:	2b12      	cmp	r3, #18
 8002536:	d105      	bne.n	8002544 <HAL_ADC_ConfigChannel+0x1cc>
    if ((uint16_t)ADC_CHANNEL_TEMPSENSOR == (uint16_t)ADC_CHANNEL_VBAT)
    {
      tmpADC_Common->CCR &= ~ADC_CCR_TSVREFE;
    }
    /* Enable the VBAT channel*/
    tmpADC_Common->CCR |= ADC_CCR_VBATE;
 8002538:	68fb      	ldr	r3, [r7, #12]
 800253a:	685b      	ldr	r3, [r3, #4]
 800253c:	f443 0280 	orr.w	r2, r3, #4194304	@ 0x400000
 8002540:	68fb      	ldr	r3, [r7, #12]
 8002542:	605a      	str	r2, [r3, #4]
  }

  /* if ADC1 Channel_16 or Channel_18 is selected for Temperature sensor or
     Channel_17 is selected for VREFINT enable TSVREFE */
  if ((hadc->Instance == ADC1) && ((sConfig->Channel == ADC_CHANNEL_TEMPSENSOR) || (sConfig->Channel == ADC_CHANNEL_VREFINT)))
 8002544:	687b      	ldr	r3, [r7, #4]
 8002546:	681b      	ldr	r3, [r3, #0]
 8002548:	4a19      	ldr	r2, [pc, #100]	@ (80025b0 <HAL_ADC_ConfigChannel+0x238>)
 800254a:	4293      	cmp	r3, r2
 800254c:	d123      	bne.n	8002596 <HAL_ADC_ConfigChannel+0x21e>
 800254e:	683b      	ldr	r3, [r7, #0]
 8002550:	681b      	ldr	r3, [r3, #0]
 8002552:	2b10      	cmp	r3, #16
 8002554:	d003      	beq.n	800255e <HAL_ADC_ConfigChannel+0x1e6>
 8002556:	683b      	ldr	r3, [r7, #0]
 8002558:	681b      	ldr	r3, [r3, #0]
 800255a:	2b11      	cmp	r3, #17
 800255c:	d11b      	bne.n	8002596 <HAL_ADC_ConfigChannel+0x21e>
    if ((uint16_t)ADC_CHANNEL_TEMPSENSOR == (uint16_t)ADC_CHANNEL_VBAT)
    {
      tmpADC_Common->CCR &= ~ADC_CCR_VBATE;
    }
    /* Enable the Temperature sensor and VREFINT channel*/
    tmpADC_Common->CCR |= ADC_CCR_TSVREFE;
 800255e:	68fb      	ldr	r3, [r7, #12]
 8002560:	685b      	ldr	r3, [r3, #4]
 8002562:	f443 0200 	orr.w	r2, r3, #8388608	@ 0x800000
 8002566:	68fb      	ldr	r3, [r7, #12]
 8002568:	605a      	str	r2, [r3, #4]

    if (sConfig->Channel == ADC_CHANNEL_TEMPSENSOR)
 800256a:	683b      	ldr	r3, [r7, #0]
 800256c:	681b      	ldr	r3, [r3, #0]
 800256e:	2b10      	cmp	r3, #16
 8002570:	d111      	bne.n	8002596 <HAL_ADC_ConfigChannel+0x21e>
    {
      /* Delay for temperature sensor stabilization time */
      /* Compute number of CPU cycles to wait for */
      counter = (ADC_TEMPSENSOR_DELAY_US * (SystemCoreClock / 1000000U));
 8002572:	4b10      	ldr	r3, [pc, #64]	@ (80025b4 <HAL_ADC_ConfigChannel+0x23c>)
 8002574:	681b      	ldr	r3, [r3, #0]
 8002576:	4a10      	ldr	r2, [pc, #64]	@ (80025b8 <HAL_ADC_ConfigChannel+0x240>)
 8002578:	fba2 2303 	umull	r2, r3, r2, r3
 800257c:	0c9a      	lsrs	r2, r3, #18
 800257e:	4613      	mov	r3, r2
 8002580:	009b      	lsls	r3, r3, #2
 8002582:	4413      	add	r3, r2
 8002584:	005b      	lsls	r3, r3, #1
 8002586:	60bb      	str	r3, [r7, #8]
      while (counter != 0U)
 8002588:	e002      	b.n	8002590 <HAL_ADC_ConfigChannel+0x218>
      {
        counter--;
 800258a:	68bb      	ldr	r3, [r7, #8]
 800258c:	3b01      	subs	r3, #1
 800258e:	60bb      	str	r3, [r7, #8]
      while (counter != 0U)
 8002590:	68bb      	ldr	r3, [r7, #8]
 8002592:	2b00      	cmp	r3, #0
 8002594:	d1f9      	bne.n	800258a <HAL_ADC_ConfigChannel+0x212>
      }
    }
  }

  /* Process unlocked */
  __HAL_UNLOCK(hadc);
 8002596:	687b      	ldr	r3, [r7, #4]
 8002598:	2200      	movs	r2, #0
 800259a:	f883 203c 	strb.w	r2, [r3, #60]	@ 0x3c

  /* Return function status */
  return HAL_OK;
 800259e:	2300      	movs	r3, #0
}
 80025a0:	4618      	mov	r0, r3
 80025a2:	3714      	adds	r7, #20
 80025a4:	46bd      	mov	sp, r7
 80025a6:	f85d 7b04 	ldr.w	r7, [sp], #4
 80025aa:	4770      	bx	lr
 80025ac:	40012300 	.word	0x40012300
 80025b0:	40012000 	.word	0x40012000
 80025b4:	20000008 	.word	0x20000008
 80025b8:	431bde83 	.word	0x431bde83

080025bc <ADC_Init>:
  * @param  hadc pointer to a ADC_HandleTypeDef structure that contains
  *         the configuration information for the specified ADC.
  * @retval None
  */
static void ADC_Init(ADC_HandleTypeDef *hadc)
{
 80025bc:	b480      	push	{r7}
 80025be:	b085      	sub	sp, #20
 80025c0:	af00      	add	r7, sp, #0
 80025c2:	6078      	str	r0, [r7, #4]

  /* Set ADC parameters */
  /* Pointer to the common control register to which is belonging hadc    */
  /* (Depending on STM32F4 product, there may be up to 3 ADCs and 1 common */
  /* control register)                                                    */
  tmpADC_Common = ADC_COMMON_REGISTER(hadc);
 80025c4:	4b79      	ldr	r3, [pc, #484]	@ (80027ac <ADC_Init+0x1f0>)
 80025c6:	60fb      	str	r3, [r7, #12]

  /* Set the ADC clock prescaler */
  tmpADC_Common->CCR &= ~(ADC_CCR_ADCPRE);
 80025c8:	68fb      	ldr	r3, [r7, #12]
 80025ca:	685b      	ldr	r3, [r3, #4]
 80025cc:	f423 3240 	bic.w	r2, r3, #196608	@ 0x30000
 80025d0:	68fb      	ldr	r3, [r7, #12]
 80025d2:	605a      	str	r2, [r3, #4]
  tmpADC_Common->CCR |=  hadc->Init.ClockPrescaler;
 80025d4:	68fb      	ldr	r3, [r7, #12]
 80025d6:	685a      	ldr	r2, [r3, #4]
 80025d8:	687b      	ldr	r3, [r7, #4]
 80025da:	685b      	ldr	r3, [r3, #4]
 80025dc:	431a      	orrs	r2, r3
 80025de:	68fb      	ldr	r3, [r7, #12]
 80025e0:	605a      	str	r2, [r3, #4]

  /* Set ADC scan mode */
  hadc->Instance->CR1 &= ~(ADC_CR1_SCAN);
 80025e2:	687b      	ldr	r3, [r7, #4]
 80025e4:	681b      	ldr	r3, [r3, #0]
 80025e6:	685a      	ldr	r2, [r3, #4]
 80025e8:	687b      	ldr	r3, [r7, #4]
 80025ea:	681b      	ldr	r3, [r3, #0]
 80025ec:	f422 7280 	bic.w	r2, r2, #256	@ 0x100
 80025f0:	605a      	str	r2, [r3, #4]
  hadc->Instance->CR1 |=  ADC_CR1_SCANCONV(hadc->Init.ScanConvMode);
 80025f2:	687b      	ldr	r3, [r7, #4]
 80025f4:	681b      	ldr	r3, [r3, #0]
 80025f6:	6859      	ldr	r1, [r3, #4]
 80025f8:	687b      	ldr	r3, [r7, #4]
 80025fa:	691b      	ldr	r3, [r3, #16]
 80025fc:	021a      	lsls	r2, r3, #8
 80025fe:	687b      	ldr	r3, [r7, #4]
 8002600:	681b      	ldr	r3, [r3, #0]
 8002602:	430a      	orrs	r2, r1
 8002604:	605a      	str	r2, [r3, #4]

  /* Set ADC resolution */
  hadc->Instance->CR1 &= ~(ADC_CR1_RES);
 8002606:	687b      	ldr	r3, [r7, #4]
 8002608:	681b      	ldr	r3, [r3, #0]
 800260a:	685a      	ldr	r2, [r3, #4]
 800260c:	687b      	ldr	r3, [r7, #4]
 800260e:	681b      	ldr	r3, [r3, #0]
 8002610:	f022 7240 	bic.w	r2, r2, #50331648	@ 0x3000000
 8002614:	605a      	str	r2, [r3, #4]
  hadc->Instance->CR1 |=  hadc->Init.Resolution;
 8002616:	687b      	ldr	r3, [r7, #4]
 8002618:	681b      	ldr	r3, [r3, #0]
 800261a:	6859      	ldr	r1, [r3, #4]
 800261c:	687b      	ldr	r3, [r7, #4]
 800261e:	689a      	ldr	r2, [r3, #8]
 8002620:	687b      	ldr	r3, [r7, #4]
 8002622:	681b      	ldr	r3, [r3, #0]
 8002624:	430a      	orrs	r2, r1
 8002626:	605a      	str	r2, [r3, #4]

  /* Set ADC data alignment */
  hadc->Instance->CR2 &= ~(ADC_CR2_ALIGN);
 8002628:	687b      	ldr	r3, [r7, #4]
 800262a:	681b      	ldr	r3, [r3, #0]
 800262c:	689a      	ldr	r2, [r3, #8]
 800262e:	687b      	ldr	r3, [r7, #4]
 8002630:	681b      	ldr	r3, [r3, #0]
 8002632:	f422 6200 	bic.w	r2, r2, #2048	@ 0x800
 8002636:	609a      	str	r2, [r3, #8]
  hadc->Instance->CR2 |= hadc->Init.DataAlign;
 8002638:	687b      	ldr	r3, [r7, #4]
 800263a:	681b      	ldr	r3, [r3, #0]
 800263c:	6899      	ldr	r1, [r3, #8]
 800263e:	687b      	ldr	r3, [r7, #4]
 8002640:	68da      	ldr	r2, [r3, #12]
 8002642:	687b      	ldr	r3, [r7, #4]
 8002644:	681b      	ldr	r3, [r3, #0]
 8002646:	430a      	orrs	r2, r1
 8002648:	609a      	str	r2, [r3, #8]
  /* Enable external trigger if trigger selection is different of software  */
  /* start.                                                                 */
  /* Note: This configuration keeps the hardware feature of parameter       */
  /*       ExternalTrigConvEdge "trigger edge none" equivalent to           */
  /*       software start.                                                  */
  if (hadc->Init.ExternalTrigConv != ADC_SOFTWARE_START)
 800264a:	687b      	ldr	r3, [r7, #4]
 800264c:	6a9b      	ldr	r3, [r3, #40]	@ 0x28
 800264e:	4a58      	ldr	r2, [pc, #352]	@ (80027b0 <ADC_Init+0x1f4>)
 8002650:	4293      	cmp	r3, r2
 8002652:	d022      	beq.n	800269a <ADC_Init+0xde>
  {
    /* Select external trigger to start conversion */
    hadc->Instance->CR2 &= ~(ADC_CR2_EXTSEL);
 8002654:	687b      	ldr	r3, [r7, #4]
 8002656:	681b      	ldr	r3, [r3, #0]
 8002658:	689a      	ldr	r2, [r3, #8]
 800265a:	687b      	ldr	r3, [r7, #4]
 800265c:	681b      	ldr	r3, [r3, #0]
 800265e:	f022 6270 	bic.w	r2, r2, #251658240	@ 0xf000000
 8002662:	609a      	str	r2, [r3, #8]
    hadc->Instance->CR2 |= hadc->Init.ExternalTrigConv;
 8002664:	687b      	ldr	r3, [r7, #4]
 8002666:	681b      	ldr	r3, [r3, #0]
 8002668:	6899      	ldr	r1, [r3, #8]
 800266a:	687b      	ldr	r3, [r7, #4]
 800266c:	6a9a      	ldr	r2, [r3, #40]	@ 0x28
 800266e:	687b      	ldr	r3, [r7, #4]
 8002670:	681b      	ldr	r3, [r3, #0]
 8002672:	430a      	orrs	r2, r1
 8002674:	609a      	str	r2, [r3, #8]

    /* Select external trigger polarity */
    hadc->Instance->CR2 &= ~(ADC_CR2_EXTEN);
 8002676:	687b      	ldr	r3, [r7, #4]
 8002678:	681b      	ldr	r3, [r3, #0]
 800267a:	689a      	ldr	r2, [r3, #8]
 800267c:	687b      	ldr	r3, [r7, #4]
 800267e:	681b      	ldr	r3, [r3, #0]
 8002680:	f022 5240 	bic.w	r2, r2, #805306368	@ 0x30000000
 8002684:	609a      	str	r2, [r3, #8]
    hadc->Instance->CR2 |= hadc->Init.ExternalTrigConvEdge;
 8002686:	687b      	ldr	r3, [r7, #4]
 8002688:	681b      	ldr	r3, [r3, #0]
 800268a:	6899      	ldr	r1, [r3, #8]
 800268c:	687b      	ldr	r3, [r7, #4]
 800268e:	6ada      	ldr	r2, [r3, #44]	@ 0x2c
 8002690:	687b      	ldr	r3, [r7, #4]
 8002692:	681b      	ldr	r3, [r3, #0]
 8002694:	430a      	orrs	r2, r1
 8002696:	609a      	str	r2, [r3, #8]
 8002698:	e00f      	b.n	80026ba <ADC_Init+0xfe>
  }
  else
  {
    /* Reset the external trigger */
    hadc->Instance->CR2 &= ~(ADC_CR2_EXTSEL);
 800269a:	687b      	ldr	r3, [r7, #4]
 800269c:	681b      	ldr	r3, [r3, #0]
 800269e:	689a      	ldr	r2, [r3, #8]
 80026a0:	687b      	ldr	r3, [r7, #4]
 80026a2:	681b      	ldr	r3, [r3, #0]
 80026a4:	f022 6270 	bic.w	r2, r2, #251658240	@ 0xf000000
 80026a8:	609a      	str	r2, [r3, #8]
    hadc->Instance->CR2 &= ~(ADC_CR2_EXTEN);
 80026aa:	687b      	ldr	r3, [r7, #4]
 80026ac:	681b      	ldr	r3, [r3, #0]
 80026ae:	689a      	ldr	r2, [r3, #8]
 80026b0:	687b      	ldr	r3, [r7, #4]
 80026b2:	681b      	ldr	r3, [r3, #0]
 80026b4:	f022 5240 	bic.w	r2, r2, #805306368	@ 0x30000000
 80026b8:	609a      	str	r2, [r3, #8]
  }

  /* Enable or disable ADC continuous conversion mode */
  hadc->Instance->CR2 &= ~(ADC_CR2_CONT);
 80026ba:	687b      	ldr	r3, [r7, #4]
 80026bc:	681b      	ldr	r3, [r3, #0]
 80026be:	689a      	ldr	r2, [r3, #8]
 80026c0:	687b      	ldr	r3, [r7, #4]
 80026c2:	681b      	ldr	r3, [r3, #0]
 80026c4:	f022 0202 	bic.w	r2, r2, #2
 80026c8:	609a      	str	r2, [r3, #8]
  hadc->Instance->CR2 |= ADC_CR2_CONTINUOUS((uint32_t)hadc->Init.ContinuousConvMode);
 80026ca:	687b      	ldr	r3, [r7, #4]
 80026cc:	681b      	ldr	r3, [r3, #0]
 80026ce:	6899      	ldr	r1, [r3, #8]
 80026d0:	687b      	ldr	r3, [r7, #4]
 80026d2:	7e1b      	ldrb	r3, [r3, #24]
 80026d4:	005a      	lsls	r2, r3, #1
 80026d6:	687b      	ldr	r3, [r7, #4]
 80026d8:	681b      	ldr	r3, [r3, #0]
 80026da:	430a      	orrs	r2, r1
 80026dc:	609a      	str	r2, [r3, #8]

  if (hadc->Init.DiscontinuousConvMode != DISABLE)
 80026de:	687b      	ldr	r3, [r7, #4]
 80026e0:	f893 3020 	ldrb.w	r3, [r3, #32]
 80026e4:	2b00      	cmp	r3, #0
 80026e6:	d01b      	beq.n	8002720 <ADC_Init+0x164>
  {
    assert_param(IS_ADC_REGULAR_DISC_NUMBER(hadc->Init.NbrOfDiscConversion));

    /* Enable the selected ADC regular discontinuous mode */
    hadc->Instance->CR1 |= (uint32_t)ADC_CR1_DISCEN;
 80026e8:	687b      	ldr	r3, [r7, #4]
 80026ea:	681b      	ldr	r3, [r3, #0]
 80026ec:	685a      	ldr	r2, [r3, #4]
 80026ee:	687b      	ldr	r3, [r7, #4]
 80026f0:	681b      	ldr	r3, [r3, #0]
 80026f2:	f442 6200 	orr.w	r2, r2, #2048	@ 0x800
 80026f6:	605a      	str	r2, [r3, #4]

    /* Set the number of channels to be converted in discontinuous mode */
    hadc->Instance->CR1 &= ~(ADC_CR1_DISCNUM);
 80026f8:	687b      	ldr	r3, [r7, #4]
 80026fa:	681b      	ldr	r3, [r3, #0]
 80026fc:	685a      	ldr	r2, [r3, #4]
 80026fe:	687b      	ldr	r3, [r7, #4]
 8002700:	681b      	ldr	r3, [r3, #0]
 8002702:	f422 4260 	bic.w	r2, r2, #57344	@ 0xe000
 8002706:	605a      	str	r2, [r3, #4]
    hadc->Instance->CR1 |=  ADC_CR1_DISCONTINUOUS(hadc->Init.NbrOfDiscConversion);
 8002708:	687b      	ldr	r3, [r7, #4]
 800270a:	681b      	ldr	r3, [r3, #0]
 800270c:	6859      	ldr	r1, [r3, #4]
 800270e:	687b      	ldr	r3, [r7, #4]
 8002710:	6a5b      	ldr	r3, [r3, #36]	@ 0x24
 8002712:	3b01      	subs	r3, #1
 8002714:	035a      	lsls	r2, r3, #13
 8002716:	687b      	ldr	r3, [r7, #4]
 8002718:	681b      	ldr	r3, [r3, #0]
 800271a:	430a      	orrs	r2, r1
 800271c:	605a      	str	r2, [r3, #4]
 800271e:	e007      	b.n	8002730 <ADC_Init+0x174>
  }
  else
  {
    /* Disable the selected ADC regular discontinuous mode */
    hadc->Instance->CR1 &= ~(ADC_CR1_DISCEN);
 8002720:	687b      	ldr	r3, [r7, #4]
 8002722:	681b      	ldr	r3, [r3, #0]
 8002724:	685a      	ldr	r2, [r3, #4]
 8002726:	687b      	ldr	r3, [r7, #4]
 8002728:	681b      	ldr	r3, [r3, #0]
 800272a:	f422 6200 	bic.w	r2, r2, #2048	@ 0x800
 800272e:	605a      	str	r2, [r3, #4]
  }

  /* Set ADC number of conversion */
  hadc->Instance->SQR1 &= ~(ADC_SQR1_L);
 8002730:	687b      	ldr	r3, [r7, #4]
 8002732:	681b      	ldr	r3, [r3, #0]
 8002734:	6ada      	ldr	r2, [r3, #44]	@ 0x2c
 8002736:	687b      	ldr	r3, [r7, #4]
 8002738:	681b      	ldr	r3, [r3, #0]
 800273a:	f422 0270 	bic.w	r2, r2, #15728640	@ 0xf00000
 800273e:	62da      	str	r2, [r3, #44]	@ 0x2c
  hadc->Instance->SQR1 |=  ADC_SQR1(hadc->Init.NbrOfConversion);
 8002740:	687b      	ldr	r3, [r7, #4]
 8002742:	681b      	ldr	r3, [r3, #0]
 8002744:	6ad9      	ldr	r1, [r3, #44]	@ 0x2c
 8002746:	687b      	ldr	r3, [r7, #4]
 8002748:	69db      	ldr	r3, [r3, #28]
 800274a:	3b01      	subs	r3, #1
 800274c:	051a      	lsls	r2, r3, #20
 800274e:	687b      	ldr	r3, [r7, #4]
 8002750:	681b      	ldr	r3, [r3, #0]
 8002752:	430a      	orrs	r2, r1
 8002754:	62da      	str	r2, [r3, #44]	@ 0x2c

  /* Enable or disable ADC DMA continuous request */
  hadc->Instance->CR2 &= ~(ADC_CR2_DDS);
 8002756:	687b      	ldr	r3, [r7, #4]
 8002758:	681b      	ldr	r3, [r3, #0]
 800275a:	689a      	ldr	r2, [r3, #8]
 800275c:	687b      	ldr	r3, [r7, #4]
 800275e:	681b      	ldr	r3, [r3, #0]
 8002760:	f422 7200 	bic.w	r2, r2, #512	@ 0x200
 8002764:	609a      	str	r2, [r3, #8]
  hadc->Instance->CR2 |= ADC_CR2_DMAContReq((uint32_t)hadc->Init.DMAContinuousRequests);
 8002766:	687b      	ldr	r3, [r7, #4]
 8002768:	681b      	ldr	r3, [r3, #0]
 800276a:	6899      	ldr	r1, [r3, #8]
 800276c:	687b      	ldr	r3, [r7, #4]
 800276e:	f893 3030 	ldrb.w	r3, [r3, #48]	@ 0x30
 8002772:	025a      	lsls	r2, r3, #9
 8002774:	687b      	ldr	r3, [r7, #4]
 8002776:	681b      	ldr	r3, [r3, #0]
 8002778:	430a      	orrs	r2, r1
 800277a:	609a      	str	r2, [r3, #8]

  /* Enable or disable ADC end of conversion selection */
  hadc->Instance->CR2 &= ~(ADC_CR2_EOCS);
 800277c:	687b      	ldr	r3, [r7, #4]
 800277e:	681b      	ldr	r3, [r3, #0]
 8002780:	689a      	ldr	r2, [r3, #8]
 8002782:	687b      	ldr	r3, [r7, #4]
 8002784:	681b      	ldr	r3, [r3, #0]
 8002786:	f422 6280 	bic.w	r2, r2, #1024	@ 0x400
 800278a:	609a      	str	r2, [r3, #8]
  hadc->Instance->CR2 |= ADC_CR2_EOCSelection(hadc->Init.EOCSelection);
 800278c:	687b      	ldr	r3, [r7, #4]
 800278e:	681b      	ldr	r3, [r3, #0]
 8002790:	6899      	ldr	r1, [r3, #8]
 8002792:	687b      	ldr	r3, [r7, #4]
 8002794:	695b      	ldr	r3, [r3, #20]
 8002796:	029a      	lsls	r2, r3, #10
 8002798:	687b      	ldr	r3, [r7, #4]
 800279a:	681b      	ldr	r3, [r3, #0]
 800279c:	430a      	orrs	r2, r1
 800279e:	609a      	str	r2, [r3, #8]
}
 80027a0:	bf00      	nop
 80027a2:	3714      	adds	r7, #20
 80027a4:	46bd      	mov	sp, r7
 80027a6:	f85d 7b04 	ldr.w	r7, [sp], #4
 80027aa:	4770      	bx	lr
 80027ac:	40012300 	.word	0x40012300
 80027b0:	0f000001 	.word	0x0f000001

080027b4 <ADC_DMAConvCplt>:
  * @param  hdma pointer to a DMA_HandleTypeDef structure that contains
  *                the configuration information for the specified DMA module.
  * @retval None
  */
static void ADC_DMAConvCplt(DMA_HandleTypeDef *hdma)
{
 80027b4:	b580      	push	{r7, lr}
 80027b6:	b084      	sub	sp, #16
 80027b8:	af00      	add	r7, sp, #0
 80027ba:	6078      	str	r0, [r7, #4]
  /* Retrieve ADC handle corresponding to current DMA handle */
  ADC_HandleTypeDef *hadc = (ADC_HandleTypeDef *)((DMA_HandleTypeDef *)hdma)->Parent;
 80027bc:	687b      	ldr	r3, [r7, #4]
 80027be:	6b9b      	ldr	r3, [r3, #56]	@ 0x38
 80027c0:	60fb      	str	r3, [r7, #12]

  /* Update state machine on conversion status if not in error state */
  if (HAL_IS_BIT_CLR(hadc->State, HAL_ADC_STATE_ERROR_INTERNAL | HAL_ADC_STATE_ERROR_DMA))
 80027c2:	68fb      	ldr	r3, [r7, #12]
 80027c4:	6c1b      	ldr	r3, [r3, #64]	@ 0x40
 80027c6:	f003 0350 	and.w	r3, r3, #80	@ 0x50
 80027ca:	2b00      	cmp	r3, #0
 80027cc:	d13c      	bne.n	8002848 <ADC_DMAConvCplt+0x94>
  {
    /* Update ADC state machine */
    SET_BIT(hadc->State, HAL_ADC_STATE_REG_EOC);
 80027ce:	68fb      	ldr	r3, [r7, #12]
 80027d0:	6c1b      	ldr	r3, [r3, #64]	@ 0x40
 80027d2:	f443 7200 	orr.w	r2, r3, #512	@ 0x200
 80027d6:	68fb      	ldr	r3, [r7, #12]
 80027d8:	641a      	str	r2, [r3, #64]	@ 0x40
    /* by external trigger, continuous mode or scan sequence on going.      */
    /* Note: On STM32F4, there is no independent flag of end of sequence.   */
    /*       The test of scan sequence on going is done either with scan    */
    /*       sequence disabled or with end of conversion flag set to        */
    /*       of end of sequence.                                            */
    if (ADC_IS_SOFTWARE_START_REGULAR(hadc)                   &&
 80027da:	68fb      	ldr	r3, [r7, #12]
 80027dc:	681b      	ldr	r3, [r3, #0]
 80027de:	689b      	ldr	r3, [r3, #8]
 80027e0:	f003 5340 	and.w	r3, r3, #805306368	@ 0x30000000
 80027e4:	2b00      	cmp	r3, #0
 80027e6:	d12b      	bne.n	8002840 <ADC_DMAConvCplt+0x8c>
        (hadc->Init.ContinuousConvMode == DISABLE)            &&
 80027e8:	68fb      	ldr	r3, [r7, #12]
 80027ea:	7e1b      	ldrb	r3, [r3, #24]
    if (ADC_IS_SOFTWARE_START_REGULAR(hadc)                   &&
 80027ec:	2b00      	cmp	r3, #0
 80027ee:	d127      	bne.n	8002840 <ADC_DMAConvCplt+0x8c>
        (HAL_IS_BIT_CLR(hadc->Instance->SQR1, ADC_SQR1_L) ||
 80027f0:	68fb      	ldr	r3, [r7, #12]
 80027f2:	681b      	ldr	r3, [r3, #0]
 80027f4:	6adb      	ldr	r3, [r3, #44]	@ 0x2c
 80027f6:	f403 0370 	and.w	r3, r3, #15728640	@ 0xf00000
        (hadc->Init.ContinuousConvMode == DISABLE)            &&
 80027fa:	2b00      	cmp	r3, #0
 80027fc:	d006      	beq.n	800280c <ADC_DMAConvCplt+0x58>
         HAL_IS_BIT_CLR(hadc->Instance->CR2, ADC_CR2_EOCS)))
 80027fe:	68fb      	ldr	r3, [r7, #12]
 8002800:	681b      	ldr	r3, [r3, #0]
 8002802:	689b      	ldr	r3, [r3, #8]
 8002804:	f403 6380 	and.w	r3, r3, #1024	@ 0x400
        (HAL_IS_BIT_CLR(hadc->Instance->SQR1, ADC_SQR1_L) ||
 8002808:	2b00      	cmp	r3, #0
 800280a:	d119      	bne.n	8002840 <ADC_DMAConvCplt+0x8c>
    {
      /* Disable ADC end of single conversion interrupt on group regular */
      /* Note: Overrun interrupt was enabled with EOC interrupt in          */
      /* HAL_ADC_Start_IT(), but is not disabled here because can be used   */
      /* by overrun IRQ process below.                                      */
      __HAL_ADC_DISABLE_IT(hadc, ADC_IT_EOC);
 800280c:	68fb      	ldr	r3, [r7, #12]
 800280e:	681b      	ldr	r3, [r3, #0]
 8002810:	685a      	ldr	r2, [r3, #4]
 8002812:	68fb      	ldr	r3, [r7, #12]
 8002814:	681b      	ldr	r3, [r3, #0]
 8002816:	f022 0220 	bic.w	r2, r2, #32
 800281a:	605a      	str	r2, [r3, #4]

      /* Set ADC state */
      CLEAR_BIT(hadc->State, HAL_ADC_STATE_REG_BUSY);
 800281c:	68fb      	ldr	r3, [r7, #12]
 800281e:	6c1b      	ldr	r3, [r3, #64]	@ 0x40
 8002820:	f423 7280 	bic.w	r2, r3, #256	@ 0x100
 8002824:	68fb      	ldr	r3, [r7, #12]
 8002826:	641a      	str	r2, [r3, #64]	@ 0x40

      if (HAL_IS_BIT_CLR(hadc->State, HAL_ADC_STATE_INJ_BUSY))
 8002828:	68fb      	ldr	r3, [r7, #12]
 800282a:	6c1b      	ldr	r3, [r3, #64]	@ 0x40
 800282c:	f403 5380 	and.w	r3, r3, #4096	@ 0x1000
 8002830:	2b00      	cmp	r3, #0
 8002832:	d105      	bne.n	8002840 <ADC_DMAConvCplt+0x8c>
      {
        SET_BIT(hadc->State, HAL_ADC_STATE_READY);
 8002834:	68fb      	ldr	r3, [r7, #12]
 8002836:	6c1b      	ldr	r3, [r3, #64]	@ 0x40
 8002838:	f043 0201 	orr.w	r2, r3, #1
 800283c:	68fb      	ldr	r3, [r7, #12]
 800283e:	641a      	str	r2, [r3, #64]	@ 0x40

    /* Conversion complete callback */
#if (USE_HAL_ADC_REGISTER_CALLBACKS == 1)
    hadc->ConvCpltCallback(hadc);
#else
    HAL_ADC_ConvCpltCallback(hadc);
 8002840:	68f8      	ldr	r0, [r7, #12]
 8002842:	f7fe fde7 	bl	8001414 <HAL_ADC_ConvCpltCallback>
    {
      /* Call DMA error callback */
      hadc->DMA_Handle->XferErrorCallback(hdma);
    }
  }
}
 8002846:	e00e      	b.n	8002866 <ADC_DMAConvCplt+0xb2>
    if ((hadc->State & HAL_ADC_STATE_ERROR_INTERNAL) != 0UL)
 8002848:	68fb      	ldr	r3, [r7, #12]
 800284a:	6c1b      	ldr	r3, [r3, #64]	@ 0x40
 800284c:	f003 0310 	and.w	r3, r3, #16
 8002850:	2b00      	cmp	r3, #0
 8002852:	d003      	beq.n	800285c <ADC_DMAConvCplt+0xa8>
      HAL_ADC_ErrorCallback(hadc);
 8002854:	68f8      	ldr	r0, [r7, #12]
 8002856:	f7ff fd85 	bl	8002364 <HAL_ADC_ErrorCallback>
}
 800285a:	e004      	b.n	8002866 <ADC_DMAConvCplt+0xb2>
      hadc->DMA_Handle->XferErrorCallback(hdma);
 800285c:	68fb      	ldr	r3, [r7, #12]
 800285e:	6b9b      	ldr	r3, [r3, #56]	@ 0x38
 8002860:	6cdb      	ldr	r3, [r3, #76]	@ 0x4c
 8002862:	6878      	ldr	r0, [r7, #4]
 8002864:	4798      	blx	r3
}
 8002866:	bf00      	nop
 8002868:	3710      	adds	r7, #16
 800286a:	46bd      	mov	sp, r7
 800286c:	bd80      	pop	{r7, pc}

0800286e <ADC_DMAHalfConvCplt>:
  * @param  hdma pointer to a DMA_HandleTypeDef structure that contains
  *                the configuration information for the specified DMA module.
  * @retval None
  */
static void ADC_DMAHalfConvCplt(DMA_HandleTypeDef *hdma)
{
 800286e:	b580      	push	{r7, lr}
 8002870:	b084      	sub	sp, #16
 8002872:	af00      	add	r7, sp, #0
 8002874:	6078      	str	r0, [r7, #4]
  ADC_HandleTypeDef *hadc = (ADC_HandleTypeDef *)((DMA_HandleTypeDef *)hdma)->Parent;
 8002876:	687b      	ldr	r3, [r7, #4]
 8002878:	6b9b      	ldr	r3, [r3, #56]	@ 0x38
 800287a:	60fb      	str	r3, [r7, #12]
  /* Half conversion callback */
#if (USE_HAL_ADC_REGISTER_CALLBACKS == 1)
  hadc->ConvHalfCpltCallback(hadc);
#else
  HAL_ADC_ConvHalfCpltCallback(hadc);
 800287c:	68f8      	ldr	r0, [r7, #12]
 800287e:	f7ff fd67 	bl	8002350 <HAL_ADC_ConvHalfCpltCallback>
#endif /* USE_HAL_ADC_REGISTER_CALLBACKS */
}
 8002882:	bf00      	nop
 8002884:	3710      	adds	r7, #16
 8002886:	46bd      	mov	sp, r7
 8002888:	bd80      	pop	{r7, pc}

0800288a <ADC_DMAError>:
  * @param  hdma pointer to a DMA_HandleTypeDef structure that contains
  *                the configuration information for the specified DMA module.
  * @retval None
  */
static void ADC_DMAError(DMA_HandleTypeDef *hdma)
{
 800288a:	b580      	push	{r7, lr}
 800288c:	b084      	sub	sp, #16
 800288e:	af00      	add	r7, sp, #0
 8002890:	6078      	str	r0, [r7, #4]
  ADC_HandleTypeDef *hadc = (ADC_HandleTypeDef *)((DMA_HandleTypeDef *)hdma)->Parent;
 8002892:	687b      	ldr	r3, [r7, #4]
 8002894:	6b9b      	ldr	r3, [r3, #56]	@ 0x38
 8002896:	60fb      	str	r3, [r7, #12]
  hadc->State = HAL_ADC_STATE_ERROR_DMA;
 8002898:	68fb      	ldr	r3, [r7, #12]
 800289a:	2240      	movs	r2, #64	@ 0x40
 800289c:	641a      	str	r2, [r3, #64]	@ 0x40
  /* Set ADC error code to DMA error */
  hadc->ErrorCode |= HAL_ADC_ERROR_DMA;
 800289e:	68fb      	ldr	r3, [r7, #12]
 80028a0:	6c5b      	ldr	r3, [r3, #68]	@ 0x44
 80028a2:	f043 0204 	orr.w	r2, r3, #4
 80028a6:	68fb      	ldr	r3, [r7, #12]
 80028a8:	645a      	str	r2, [r3, #68]	@ 0x44
  /* Error callback */
#if (USE_HAL_ADC_REGISTER_CALLBACKS == 1)
  hadc->ErrorCallback(hadc);
#else
  HAL_ADC_ErrorCallback(hadc);
 80028aa:	68f8      	ldr	r0, [r7, #12]
 80028ac:	f7ff fd5a 	bl	8002364 <HAL_ADC_ErrorCallback>
#endif /* USE_HAL_ADC_REGISTER_CALLBACKS */
}
 80028b0:	bf00      	nop
 80028b2:	3710      	adds	r7, #16
 80028b4:	46bd      	mov	sp, r7
 80028b6:	bd80      	pop	{r7, pc}

080028b8 <__NVIC_SetPriorityGrouping>:
           In case of a conflict between priority grouping and available
           priority bits (__NVIC_PRIO_BITS), the smallest possible priority group is set.
  \param [in]      PriorityGroup  Priority grouping field.
 */
__STATIC_INLINE void __NVIC_SetPriorityGrouping(uint32_t PriorityGroup)
{
 80028b8:	b480      	push	{r7}
 80028ba:	b085      	sub	sp, #20
 80028bc:	af00      	add	r7, sp, #0
 80028be:	6078      	str	r0, [r7, #4]
  uint32_t reg_value;
  uint32_t PriorityGroupTmp = (PriorityGroup & (uint32_t)0x07UL);             /* only values 0..7 are used          */
 80028c0:	687b      	ldr	r3, [r7, #4]
 80028c2:	f003 0307 	and.w	r3, r3, #7
 80028c6:	60fb      	str	r3, [r7, #12]

  reg_value  =  SCB->AIRCR;                                                   /* read old register configuration    */
 80028c8:	4b0c      	ldr	r3, [pc, #48]	@ (80028fc <__NVIC_SetPriorityGrouping+0x44>)
 80028ca:	68db      	ldr	r3, [r3, #12]
 80028cc:	60bb      	str	r3, [r7, #8]
  reg_value &= ~((uint32_t)(SCB_AIRCR_VECTKEY_Msk | SCB_AIRCR_PRIGROUP_Msk)); /* clear bits to change               */
 80028ce:	68ba      	ldr	r2, [r7, #8]
 80028d0:	f64f 03ff 	movw	r3, #63743	@ 0xf8ff
 80028d4:	4013      	ands	r3, r2
 80028d6:	60bb      	str	r3, [r7, #8]
  reg_value  =  (reg_value                                   |
                ((uint32_t)0x5FAUL << SCB_AIRCR_VECTKEY_Pos) |
                (PriorityGroupTmp << SCB_AIRCR_PRIGROUP_Pos)  );              /* Insert write key and priority group */
 80028d8:	68fb      	ldr	r3, [r7, #12]
 80028da:	021a      	lsls	r2, r3, #8
                ((uint32_t)0x5FAUL << SCB_AIRCR_VECTKEY_Pos) |
 80028dc:	68bb      	ldr	r3, [r7, #8]
 80028de:	4313      	orrs	r3, r2
  reg_value  =  (reg_value                                   |
 80028e0:	f043 63bf 	orr.w	r3, r3, #100139008	@ 0x5f80000
 80028e4:	f443 3300 	orr.w	r3, r3, #131072	@ 0x20000
 80028e8:	60bb      	str	r3, [r7, #8]
  SCB->AIRCR =  reg_value;
 80028ea:	4a04      	ldr	r2, [pc, #16]	@ (80028fc <__NVIC_SetPriorityGrouping+0x44>)
 80028ec:	68bb      	ldr	r3, [r7, #8]
 80028ee:	60d3      	str	r3, [r2, #12]
}
 80028f0:	bf00      	nop
 80028f2:	3714      	adds	r7, #20
 80028f4:	46bd      	mov	sp, r7
 80028f6:	f85d 7b04 	ldr.w	r7, [sp], #4
 80028fa:	4770      	bx	lr
 80028fc:	e000ed00 	.word	0xe000ed00

08002900 <__NVIC_GetPriorityGrouping>:
  \brief   Get Priority Grouping
  \details Reads the priority grouping field from the NVIC Interrupt Controller.
  \return                Priority grouping field (SCB->AIRCR [10:8] PRIGROUP field).
 */
__STATIC_INLINE uint32_t __NVIC_GetPriorityGrouping(void)
{
 8002900:	b480      	push	{r7}
 8002902:	af00      	add	r7, sp, #0
  return ((uint32_t)((SCB->AIRCR & SCB_AIRCR_PRIGROUP_Msk) >> SCB_AIRCR_PRIGROUP_Pos));
 8002904:	4b04      	ldr	r3, [pc, #16]	@ (8002918 <__NVIC_GetPriorityGrouping+0x18>)
 8002906:	68db      	ldr	r3, [r3, #12]
 8002908:	0a1b      	lsrs	r3, r3, #8
 800290a:	f003 0307 	and.w	r3, r3, #7
}
 800290e:	4618      	mov	r0, r3
 8002910:	46bd      	mov	sp, r7
 8002912:	f85d 7b04 	ldr.w	r7, [sp], #4
 8002916:	4770      	bx	lr
 8002918:	e000ed00 	.word	0xe000ed00

0800291c <__NVIC_EnableIRQ>:
  \details Enables a device specific interrupt in the NVIC interrupt controller.
  \param [in]      IRQn  Device specific interrupt number.
  \note    IRQn must not be negative.
 */
__STATIC_INLINE void __NVIC_EnableIRQ(IRQn_Type IRQn)
{
 800291c:	b480      	push	{r7}
 800291e:	b083      	sub	sp, #12
 8002920:	af00      	add	r7, sp, #0
 8002922:	4603      	mov	r3, r0
 8002924:	71fb      	strb	r3, [r7, #7]
  if ((int32_t)(IRQn) >= 0)
 8002926:	f997 3007 	ldrsb.w	r3, [r7, #7]
 800292a:	2b00      	cmp	r3, #0
 800292c:	db0b      	blt.n	8002946 <__NVIC_EnableIRQ+0x2a>
  {
    __COMPILER_BARRIER();
    NVIC->ISER[(((uint32_t)IRQn) >> 5UL)] = (uint32_t)(1UL << (((uint32_t)IRQn) & 0x1FUL));
 800292e:	79fb      	ldrb	r3, [r7, #7]
 8002930:	f003 021f 	and.w	r2, r3, #31
 8002934:	4907      	ldr	r1, [pc, #28]	@ (8002954 <__NVIC_EnableIRQ+0x38>)
 8002936:	f997 3007 	ldrsb.w	r3, [r7, #7]
 800293a:	095b      	lsrs	r3, r3, #5
 800293c:	2001      	movs	r0, #1
 800293e:	fa00 f202 	lsl.w	r2, r0, r2
 8002942:	f841 2023 	str.w	r2, [r1, r3, lsl #2]
    __COMPILER_BARRIER();
  }
}
 8002946:	bf00      	nop
 8002948:	370c      	adds	r7, #12
 800294a:	46bd      	mov	sp, r7
 800294c:	f85d 7b04 	ldr.w	r7, [sp], #4
 8002950:	4770      	bx	lr
 8002952:	bf00      	nop
 8002954:	e000e100 	.word	0xe000e100

08002958 <__NVIC_SetPriority>:
  \param [in]      IRQn  Interrupt number.
  \param [in]  priority  Priority to set.
  \note    The priority cannot be set for every processor exception.
 */
__STATIC_INLINE void __NVIC_SetPriority(IRQn_Type IRQn, uint32_t priority)
{
 8002958:	b480      	push	{r7}
 800295a:	b083      	sub	sp, #12
 800295c:	af00      	add	r7, sp, #0
 800295e:	4603      	mov	r3, r0
 8002960:	6039      	str	r1, [r7, #0]
 8002962:	71fb      	strb	r3, [r7, #7]
  if ((int32_t)(IRQn) >= 0)
 8002964:	f997 3007 	ldrsb.w	r3, [r7, #7]
 8002968:	2b00      	cmp	r3, #0
 800296a:	db0a      	blt.n	8002982 <__NVIC_SetPriority+0x2a>
  {
    NVIC->IP[((uint32_t)IRQn)]               = (uint8_t)((priority << (8U - __NVIC_PRIO_BITS)) & (uint32_t)0xFFUL);
 800296c:	683b      	ldr	r3, [r7, #0]
 800296e:	b2da      	uxtb	r2, r3
 8002970:	490c      	ldr	r1, [pc, #48]	@ (80029a4 <__NVIC_SetPriority+0x4c>)
 8002972:	f997 3007 	ldrsb.w	r3, [r7, #7]
 8002976:	0112      	lsls	r2, r2, #4
 8002978:	b2d2      	uxtb	r2, r2
 800297a:	440b      	add	r3, r1
 800297c:	f883 2300 	strb.w	r2, [r3, #768]	@ 0x300
  }
  else
  {
    SCB->SHP[(((uint32_t)IRQn) & 0xFUL)-4UL] = (uint8_t)((priority << (8U - __NVIC_PRIO_BITS)) & (uint32_t)0xFFUL);
  }
}
 8002980:	e00a      	b.n	8002998 <__NVIC_SetPriority+0x40>
    SCB->SHP[(((uint32_t)IRQn) & 0xFUL)-4UL] = (uint8_t)((priority << (8U - __NVIC_PRIO_BITS)) & (uint32_t)0xFFUL);
 8002982:	683b      	ldr	r3, [r7, #0]
 8002984:	b2da      	uxtb	r2, r3
 8002986:	4908      	ldr	r1, [pc, #32]	@ (80029a8 <__NVIC_SetPriority+0x50>)
 8002988:	79fb      	ldrb	r3, [r7, #7]
 800298a:	f003 030f 	and.w	r3, r3, #15
 800298e:	3b04      	subs	r3, #4
 8002990:	0112      	lsls	r2, r2, #4
 8002992:	b2d2      	uxtb	r2, r2
 8002994:	440b      	add	r3, r1
 8002996:	761a      	strb	r2, [r3, #24]
}
 8002998:	bf00      	nop
 800299a:	370c      	adds	r7, #12
 800299c:	46bd      	mov	sp, r7
 800299e:	f85d 7b04 	ldr.w	r7, [sp], #4
 80029a2:	4770      	bx	lr
 80029a4:	e000e100 	.word	0xe000e100
 80029a8:	e000ed00 	.word	0xe000ed00

080029ac <NVIC_EncodePriority>:
  \param [in]   PreemptPriority  Preemptive priority value (starting from 0).
  \param [in]       SubPriority  Subpriority value (starting from 0).
  \return                        Encoded priority. Value can be used in the function \ref NVIC_SetPriority().
 */
__STATIC_INLINE uint32_t NVIC_EncodePriority (uint32_t PriorityGroup, uint32_t PreemptPriority, uint32_t SubPriority)
{
 80029ac:	b480      	push	{r7}
 80029ae:	b089      	sub	sp, #36	@ 0x24
 80029b0:	af00      	add	r7, sp, #0
 80029b2:	60f8      	str	r0, [r7, #12]
 80029b4:	60b9      	str	r1, [r7, #8]
 80029b6:	607a      	str	r2, [r7, #4]
  uint32_t PriorityGroupTmp = (PriorityGroup & (uint32_t)0x07UL);   /* only values 0..7 are used          */
 80029b8:	68fb      	ldr	r3, [r7, #12]
 80029ba:	f003 0307 	and.w	r3, r3, #7
 80029be:	61fb      	str	r3, [r7, #28]
  uint32_t PreemptPriorityBits;
  uint32_t SubPriorityBits;

  PreemptPriorityBits = ((7UL - PriorityGroupTmp) > (uint32_t)(__NVIC_PRIO_BITS)) ? (uint32_t)(__NVIC_PRIO_BITS) : (uint32_t)(7UL - PriorityGroupTmp);
 80029c0:	69fb      	ldr	r3, [r7, #28]
 80029c2:	f1c3 0307 	rsb	r3, r3, #7
 80029c6:	2b04      	cmp	r3, #4
 80029c8:	bf28      	it	cs
 80029ca:	2304      	movcs	r3, #4
 80029cc:	61bb      	str	r3, [r7, #24]
  SubPriorityBits     = ((PriorityGroupTmp + (uint32_t)(__NVIC_PRIO_BITS)) < (uint32_t)7UL) ? (uint32_t)0UL : (uint32_t)((PriorityGroupTmp - 7UL) + (uint32_t)(__NVIC_PRIO_BITS));
 80029ce:	69fb      	ldr	r3, [r7, #28]
 80029d0:	3304      	adds	r3, #4
 80029d2:	2b06      	cmp	r3, #6
 80029d4:	d902      	bls.n	80029dc <NVIC_EncodePriority+0x30>
 80029d6:	69fb      	ldr	r3, [r7, #28]
 80029d8:	3b03      	subs	r3, #3
 80029da:	e000      	b.n	80029de <NVIC_EncodePriority+0x32>
 80029dc:	2300      	movs	r3, #0
 80029de:	617b      	str	r3, [r7, #20]

  return (
           ((PreemptPriority & (uint32_t)((1UL << (PreemptPriorityBits)) - 1UL)) << SubPriorityBits) |
 80029e0:	f04f 32ff 	mov.w	r2, #4294967295
 80029e4:	69bb      	ldr	r3, [r7, #24]
 80029e6:	fa02 f303 	lsl.w	r3, r2, r3
 80029ea:	43da      	mvns	r2, r3
 80029ec:	68bb      	ldr	r3, [r7, #8]
 80029ee:	401a      	ands	r2, r3
 80029f0:	697b      	ldr	r3, [r7, #20]
 80029f2:	409a      	lsls	r2, r3
           ((SubPriority     & (uint32_t)((1UL << (SubPriorityBits    )) - 1UL)))
 80029f4:	f04f 31ff 	mov.w	r1, #4294967295
 80029f8:	697b      	ldr	r3, [r7, #20]
 80029fa:	fa01 f303 	lsl.w	r3, r1, r3
 80029fe:	43d9      	mvns	r1, r3
 8002a00:	687b      	ldr	r3, [r7, #4]
 8002a02:	400b      	ands	r3, r1
           ((PreemptPriority & (uint32_t)((1UL << (PreemptPriorityBits)) - 1UL)) << SubPriorityBits) |
 8002a04:	4313      	orrs	r3, r2
         );
}
 8002a06:	4618      	mov	r0, r3
 8002a08:	3724      	adds	r7, #36	@ 0x24
 8002a0a:	46bd      	mov	sp, r7
 8002a0c:	f85d 7b04 	ldr.w	r7, [sp], #4
 8002a10:	4770      	bx	lr
	...

08002a14 <SysTick_Config>:
  \note    When the variable <b>__Vendor_SysTickConfig</b> is set to 1, then the
           function <b>SysTick_Config</b> is not included. In this case, the file <b><i>device</i>.h</b>
           must contain a vendor-specific implementation of this function.
 */
__STATIC_INLINE uint32_t SysTick_Config(uint32_t ticks)
{
 8002a14:	b580      	push	{r7, lr}
 8002a16:	b082      	sub	sp, #8
 8002a18:	af00      	add	r7, sp, #0
 8002a1a:	6078      	str	r0, [r7, #4]
  if ((ticks - 1UL) > SysTick_LOAD_RELOAD_Msk)
 8002a1c:	687b      	ldr	r3, [r7, #4]
 8002a1e:	3b01      	subs	r3, #1
 8002a20:	f1b3 7f80 	cmp.w	r3, #16777216	@ 0x1000000
 8002a24:	d301      	bcc.n	8002a2a <SysTick_Config+0x16>
  {
    return (1UL);                                                   /* Reload value impossible */
 8002a26:	2301      	movs	r3, #1
 8002a28:	e00f      	b.n	8002a4a <SysTick_Config+0x36>
  }

  SysTick->LOAD  = (uint32_t)(ticks - 1UL);                         /* set reload register */
 8002a2a:	4a0a      	ldr	r2, [pc, #40]	@ (8002a54 <SysTick_Config+0x40>)
 8002a2c:	687b      	ldr	r3, [r7, #4]
 8002a2e:	3b01      	subs	r3, #1
 8002a30:	6053      	str	r3, [r2, #4]
  NVIC_SetPriority (SysTick_IRQn, (1UL << __NVIC_PRIO_BITS) - 1UL); /* set Priority for Systick Interrupt */
 8002a32:	210f      	movs	r1, #15
 8002a34:	f04f 30ff 	mov.w	r0, #4294967295
 8002a38:	f7ff ff8e 	bl	8002958 <__NVIC_SetPriority>
  SysTick->VAL   = 0UL;                                             /* Load the SysTick Counter Value */
 8002a3c:	4b05      	ldr	r3, [pc, #20]	@ (8002a54 <SysTick_Config+0x40>)
 8002a3e:	2200      	movs	r2, #0
 8002a40:	609a      	str	r2, [r3, #8]
  SysTick->CTRL  = SysTick_CTRL_CLKSOURCE_Msk |
 8002a42:	4b04      	ldr	r3, [pc, #16]	@ (8002a54 <SysTick_Config+0x40>)
 8002a44:	2207      	movs	r2, #7
 8002a46:	601a      	str	r2, [r3, #0]
                   SysTick_CTRL_TICKINT_Msk   |
                   SysTick_CTRL_ENABLE_Msk;                         /* Enable SysTick IRQ and SysTick Timer */
  return (0UL);                                                     /* Function successful */
 8002a48:	2300      	movs	r3, #0
}
 8002a4a:	4618      	mov	r0, r3
 8002a4c:	3708      	adds	r7, #8
 8002a4e:	46bd      	mov	sp, r7
 8002a50:	bd80      	pop	{r7, pc}
 8002a52:	bf00      	nop
 8002a54:	e000e010 	.word	0xe000e010

08002a58 <HAL_NVIC_SetPriorityGrouping>:
  * @note   When the NVIC_PriorityGroup_0 is selected, IRQ preemption is no more possible. 
  *         The pending IRQ priority will be managed only by the subpriority. 
  * @retval None
  */
void HAL_NVIC_SetPriorityGrouping(uint32_t PriorityGroup)
{
 8002a58:	b580      	push	{r7, lr}
 8002a5a:	b082      	sub	sp, #8
 8002a5c:	af00      	add	r7, sp, #0
 8002a5e:	6078      	str	r0, [r7, #4]
  /* Check the parameters */
  assert_param(IS_NVIC_PRIORITY_GROUP(PriorityGroup));
  
  /* Set the PRIGROUP[10:8] bits according to the PriorityGroup parameter value */
  NVIC_SetPriorityGrouping(PriorityGroup);
 8002a60:	6878      	ldr	r0, [r7, #4]
 8002a62:	f7ff ff29 	bl	80028b8 <__NVIC_SetPriorityGrouping>
}
 8002a66:	bf00      	nop
 8002a68:	3708      	adds	r7, #8
 8002a6a:	46bd      	mov	sp, r7
 8002a6c:	bd80      	pop	{r7, pc}

08002a6e <HAL_NVIC_SetPriority>:
  *         This parameter can be a value between 0 and 15
  *         A lower priority value indicates a higher priority.          
  * @retval None
  */
void HAL_NVIC_SetPriority(IRQn_Type IRQn, uint32_t PreemptPriority, uint32_t SubPriority)
{ 
 8002a6e:	b580      	push	{r7, lr}
 8002a70:	b086      	sub	sp, #24
 8002a72:	af00      	add	r7, sp, #0
 8002a74:	4603      	mov	r3, r0
 8002a76:	60b9      	str	r1, [r7, #8]
 8002a78:	607a      	str	r2, [r7, #4]
 8002a7a:	73fb      	strb	r3, [r7, #15]
  uint32_t prioritygroup = 0x00U;
 8002a7c:	2300      	movs	r3, #0
 8002a7e:	617b      	str	r3, [r7, #20]
  
  /* Check the parameters */
  assert_param(IS_NVIC_SUB_PRIORITY(SubPriority));
  assert_param(IS_NVIC_PREEMPTION_PRIORITY(PreemptPriority));
  
  prioritygroup = NVIC_GetPriorityGrouping();
 8002a80:	f7ff ff3e 	bl	8002900 <__NVIC_GetPriorityGrouping>
 8002a84:	6178      	str	r0, [r7, #20]
  
  NVIC_SetPriority(IRQn, NVIC_EncodePriority(prioritygroup, PreemptPriority, SubPriority));
 8002a86:	687a      	ldr	r2, [r7, #4]
 8002a88:	68b9      	ldr	r1, [r7, #8]
 8002a8a:	6978      	ldr	r0, [r7, #20]
 8002a8c:	f7ff ff8e 	bl	80029ac <NVIC_EncodePriority>
 8002a90:	4602      	mov	r2, r0
 8002a92:	f997 300f 	ldrsb.w	r3, [r7, #15]
 8002a96:	4611      	mov	r1, r2
 8002a98:	4618      	mov	r0, r3
 8002a9a:	f7ff ff5d 	bl	8002958 <__NVIC_SetPriority>
}
 8002a9e:	bf00      	nop
 8002aa0:	3718      	adds	r7, #24
 8002aa2:	46bd      	mov	sp, r7
 8002aa4:	bd80      	pop	{r7, pc}

08002aa6 <HAL_NVIC_EnableIRQ>:
  *         This parameter can be an enumerator of IRQn_Type enumeration
  *         (For the complete STM32 Devices IRQ Channels list, please refer to the appropriate CMSIS device file (stm32f4xxxx.h))
  * @retval None
  */
void HAL_NVIC_EnableIRQ(IRQn_Type IRQn)
{
 8002aa6:	b580      	push	{r7, lr}
 8002aa8:	b082      	sub	sp, #8
 8002aaa:	af00      	add	r7, sp, #0
 8002aac:	4603      	mov	r3, r0
 8002aae:	71fb      	strb	r3, [r7, #7]
  /* Check the parameters */
  assert_param(IS_NVIC_DEVICE_IRQ(IRQn));
  
  /* Enable interrupt */
  NVIC_EnableIRQ(IRQn);
 8002ab0:	f997 3007 	ldrsb.w	r3, [r7, #7]
 8002ab4:	4618      	mov	r0, r3
 8002ab6:	f7ff ff31 	bl	800291c <__NVIC_EnableIRQ>
}
 8002aba:	bf00      	nop
 8002abc:	3708      	adds	r7, #8
 8002abe:	46bd      	mov	sp, r7
 8002ac0:	bd80      	pop	{r7, pc}

08002ac2 <HAL_SYSTICK_Config>:
  * @param  TicksNumb Specifies the ticks Number of ticks between two interrupts.
  * @retval status:  - 0  Function succeeded.
  *                  - 1  Function failed.
  */
uint32_t HAL_SYSTICK_Config(uint32_t TicksNumb)
{
 8002ac2:	b580      	push	{r7, lr}
 8002ac4:	b082      	sub	sp, #8
 8002ac6:	af00      	add	r7, sp, #0
 8002ac8:	6078      	str	r0, [r7, #4]
   return SysTick_Config(TicksNumb);
 8002aca:	6878      	ldr	r0, [r7, #4]
 8002acc:	f7ff ffa2 	bl	8002a14 <SysTick_Config>
 8002ad0:	4603      	mov	r3, r0
}
 8002ad2:	4618      	mov	r0, r3
 8002ad4:	3708      	adds	r7, #8
 8002ad6:	46bd      	mov	sp, r7
 8002ad8:	bd80      	pop	{r7, pc}
	...

08002adc <HAL_DMA_Init>:
  * @param  hdma Pointer to a DMA_HandleTypeDef structure that contains
  *               the configuration information for the specified DMA Stream.  
  * @retval HAL status
  */
HAL_StatusTypeDef HAL_DMA_Init(DMA_HandleTypeDef *hdma)
{
 8002adc:	b580      	push	{r7, lr}
 8002ade:	b086      	sub	sp, #24
 8002ae0:	af00      	add	r7, sp, #0
 8002ae2:	6078      	str	r0, [r7, #4]
  uint32_t tmp = 0U;
 8002ae4:	2300      	movs	r3, #0
 8002ae6:	617b      	str	r3, [r7, #20]
  uint32_t tickstart = HAL_GetTick();
 8002ae8:	f7ff faaa 	bl	8002040 <HAL_GetTick>
 8002aec:	6138      	str	r0, [r7, #16]
  DMA_Base_Registers *regs;

  /* Check the DMA peripheral state */
  if(hdma == NULL)
 8002aee:	687b      	ldr	r3, [r7, #4]
 8002af0:	2b00      	cmp	r3, #0
 8002af2:	d101      	bne.n	8002af8 <HAL_DMA_Init+0x1c>
  {
    return HAL_ERROR;
 8002af4:	2301      	movs	r3, #1
 8002af6:	e099      	b.n	8002c2c <HAL_DMA_Init+0x150>
    assert_param(IS_DMA_MEMORY_BURST(hdma->Init.MemBurst));
    assert_param(IS_DMA_PERIPHERAL_BURST(hdma->Init.PeriphBurst));
  }

  /* Change DMA peripheral state */
  hdma->State = HAL_DMA_STATE_BUSY;
 8002af8:	687b      	ldr	r3, [r7, #4]
 8002afa:	2202      	movs	r2, #2
 8002afc:	f883 2035 	strb.w	r2, [r3, #53]	@ 0x35

  /* Allocate lock resource */
  __HAL_UNLOCK(hdma);
 8002b00:	687b      	ldr	r3, [r7, #4]
 8002b02:	2200      	movs	r2, #0
 8002b04:	f883 2034 	strb.w	r2, [r3, #52]	@ 0x34
  
  /* Disable the peripheral */
  __HAL_DMA_DISABLE(hdma);
 8002b08:	687b      	ldr	r3, [r7, #4]
 8002b0a:	681b      	ldr	r3, [r3, #0]
 8002b0c:	681a      	ldr	r2, [r3, #0]
 8002b0e:	687b      	ldr	r3, [r7, #4]
 8002b10:	681b      	ldr	r3, [r3, #0]
 8002b12:	f022 0201 	bic.w	r2, r2, #1
 8002b16:	601a      	str	r2, [r3, #0]
  
  /* Check if the DMA Stream is effectively disabled */
  while((hdma->Instance->CR & DMA_SxCR_EN) != RESET)
 8002b18:	e00f      	b.n	8002b3a <HAL_DMA_Init+0x5e>
  {
    /* Check for the Timeout */
    if((HAL_GetTick() - tickstart ) > HAL_TIMEOUT_DMA_ABORT)
 8002b1a:	f7ff fa91 	bl	8002040 <HAL_GetTick>
 8002b1e:	4602      	mov	r2, r0
 8002b20:	693b      	ldr	r3, [r7, #16]
 8002b22:	1ad3      	subs	r3, r2, r3
 8002b24:	2b05      	cmp	r3, #5
 8002b26:	d908      	bls.n	8002b3a <HAL_DMA_Init+0x5e>
    {
      /* Update error code */
      hdma->ErrorCode = HAL_DMA_ERROR_TIMEOUT;
 8002b28:	687b      	ldr	r3, [r7, #4]
 8002b2a:	2220      	movs	r2, #32
 8002b2c:	655a      	str	r2, [r3, #84]	@ 0x54
      
      /* Change the DMA state */
      hdma->State = HAL_DMA_STATE_TIMEOUT;
 8002b2e:	687b      	ldr	r3, [r7, #4]
 8002b30:	2203      	movs	r2, #3
 8002b32:	f883 2035 	strb.w	r2, [r3, #53]	@ 0x35
      
      return HAL_TIMEOUT;
 8002b36:	2303      	movs	r3, #3
 8002b38:	e078      	b.n	8002c2c <HAL_DMA_Init+0x150>
  while((hdma->Instance->CR & DMA_SxCR_EN) != RESET)
 8002b3a:	687b      	ldr	r3, [r7, #4]
 8002b3c:	681b      	ldr	r3, [r3, #0]
 8002b3e:	681b      	ldr	r3, [r3, #0]
 8002b40:	f003 0301 	and.w	r3, r3, #1
 8002b44:	2b00      	cmp	r3, #0
 8002b46:	d1e8      	bne.n	8002b1a <HAL_DMA_Init+0x3e>
    }
  }
  
  /* Get the CR register value */
  tmp = hdma->Instance->CR;
 8002b48:	687b      	ldr	r3, [r7, #4]
 8002b4a:	681b      	ldr	r3, [r3, #0]
 8002b4c:	681b      	ldr	r3, [r3, #0]
 8002b4e:	617b      	str	r3, [r7, #20]

  /* Clear CHSEL, MBURST, PBURST, PL, MSIZE, PSIZE, MINC, PINC, CIRC, DIR, CT and DBM bits */
  tmp &= ((uint32_t)~(DMA_SxCR_CHSEL | DMA_SxCR_MBURST | DMA_SxCR_PBURST | \
 8002b50:	697a      	ldr	r2, [r7, #20]
 8002b52:	4b38      	ldr	r3, [pc, #224]	@ (8002c34 <HAL_DMA_Init+0x158>)
 8002b54:	4013      	ands	r3, r2
 8002b56:	617b      	str	r3, [r7, #20]
                      DMA_SxCR_PL    | DMA_SxCR_MSIZE  | DMA_SxCR_PSIZE  | \
                      DMA_SxCR_MINC  | DMA_SxCR_PINC   | DMA_SxCR_CIRC   | \
                      DMA_SxCR_DIR   | DMA_SxCR_CT     | DMA_SxCR_DBM));

  /* Prepare the DMA Stream configuration */
  tmp |=  hdma->Init.Channel             | hdma->Init.Direction        |
 8002b58:	687b      	ldr	r3, [r7, #4]
 8002b5a:	685a      	ldr	r2, [r3, #4]
 8002b5c:	687b      	ldr	r3, [r7, #4]
 8002b5e:	689b      	ldr	r3, [r3, #8]
 8002b60:	431a      	orrs	r2, r3
          hdma->Init.PeriphInc           | hdma->Init.MemInc           |
 8002b62:	687b      	ldr	r3, [r7, #4]
 8002b64:	68db      	ldr	r3, [r3, #12]
  tmp |=  hdma->Init.Channel             | hdma->Init.Direction        |
 8002b66:	431a      	orrs	r2, r3
          hdma->Init.PeriphInc           | hdma->Init.MemInc           |
 8002b68:	687b      	ldr	r3, [r7, #4]
 8002b6a:	691b      	ldr	r3, [r3, #16]
 8002b6c:	431a      	orrs	r2, r3
          hdma->Init.PeriphDataAlignment | hdma->Init.MemDataAlignment |
 8002b6e:	687b      	ldr	r3, [r7, #4]
 8002b70:	695b      	ldr	r3, [r3, #20]
          hdma->Init.PeriphInc           | hdma->Init.MemInc           |
 8002b72:	431a      	orrs	r2, r3
          hdma->Init.PeriphDataAlignment | hdma->Init.MemDataAlignment |
 8002b74:	687b      	ldr	r3, [r7, #4]
 8002b76:	699b      	ldr	r3, [r3, #24]
 8002b78:	431a      	orrs	r2, r3
          hdma->Init.Mode                | hdma->Init.Priority;
 8002b7a:	687b      	ldr	r3, [r7, #4]
 8002b7c:	69db      	ldr	r3, [r3, #28]
          hdma->Init.PeriphDataAlignment | hdma->Init.MemDataAlignment |
 8002b7e:	431a      	orrs	r2, r3
          hdma->Init.Mode                | hdma->Init.Priority;
 8002b80:	687b      	ldr	r3, [r7, #4]
 8002b82:	6a1b      	ldr	r3, [r3, #32]
 8002b84:	4313      	orrs	r3, r2
  tmp |=  hdma->Init.Channel             | hdma->Init.Direction        |
 8002b86:	697a      	ldr	r2, [r7, #20]
 8002b88:	4313      	orrs	r3, r2
 8002b8a:	617b      	str	r3, [r7, #20]

  /* the Memory burst and peripheral burst are not used when the FIFO is disabled */
  if(hdma->Init.FIFOMode == DMA_FIFOMODE_ENABLE)
 8002b8c:	687b      	ldr	r3, [r7, #4]
 8002b8e:	6a5b      	ldr	r3, [r3, #36]	@ 0x24
 8002b90:	2b04      	cmp	r3, #4
 8002b92:	d107      	bne.n	8002ba4 <HAL_DMA_Init+0xc8>
  {
    /* Get memory burst and peripheral burst */
    tmp |=  hdma->Init.MemBurst | hdma->Init.PeriphBurst;
 8002b94:	687b      	ldr	r3, [r7, #4]
 8002b96:	6ada      	ldr	r2, [r3, #44]	@ 0x2c
 8002b98:	687b      	ldr	r3, [r7, #4]
 8002b9a:	6b1b      	ldr	r3, [r3, #48]	@ 0x30
 8002b9c:	4313      	orrs	r3, r2
 8002b9e:	697a      	ldr	r2, [r7, #20]
 8002ba0:	4313      	orrs	r3, r2
 8002ba2:	617b      	str	r3, [r7, #20]
  }
  
  /* Write to DMA Stream CR register */
  hdma->Instance->CR = tmp;  
 8002ba4:	687b      	ldr	r3, [r7, #4]
 8002ba6:	681b      	ldr	r3, [r3, #0]
 8002ba8:	697a      	ldr	r2, [r7, #20]
 8002baa:	601a      	str	r2, [r3, #0]

  /* Get the FCR register value */
  tmp = hdma->Instance->FCR;
 8002bac:	687b      	ldr	r3, [r7, #4]
 8002bae:	681b      	ldr	r3, [r3, #0]
 8002bb0:	695b      	ldr	r3, [r3, #20]
 8002bb2:	617b      	str	r3, [r7, #20]

  /* Clear Direct mode and FIFO threshold bits */
  tmp &= (uint32_t)~(DMA_SxFCR_DMDIS | DMA_SxFCR_FTH);
 8002bb4:	697b      	ldr	r3, [r7, #20]
 8002bb6:	f023 0307 	bic.w	r3, r3, #7
 8002bba:	617b      	str	r3, [r7, #20]

  /* Prepare the DMA Stream FIFO configuration */
  tmp |= hdma->Init.FIFOMode;
 8002bbc:	687b      	ldr	r3, [r7, #4]
 8002bbe:	6a5b      	ldr	r3, [r3, #36]	@ 0x24
 8002bc0:	697a      	ldr	r2, [r7, #20]
 8002bc2:	4313      	orrs	r3, r2
 8002bc4:	617b      	str	r3, [r7, #20]

  /* The FIFO threshold is not used when the FIFO mode is disabled */
  if(hdma->Init.FIFOMode == DMA_FIFOMODE_ENABLE)
 8002bc6:	687b      	ldr	r3, [r7, #4]
 8002bc8:	6a5b      	ldr	r3, [r3, #36]	@ 0x24
 8002bca:	2b04      	cmp	r3, #4
 8002bcc:	d117      	bne.n	8002bfe <HAL_DMA_Init+0x122>
  {
    /* Get the FIFO threshold */
    tmp |= hdma->Init.FIFOThreshold;
 8002bce:	687b      	ldr	r3, [r7, #4]
 8002bd0:	6a9b      	ldr	r3, [r3, #40]	@ 0x28
 8002bd2:	697a      	ldr	r2, [r7, #20]
 8002bd4:	4313      	orrs	r3, r2
 8002bd6:	617b      	str	r3, [r7, #20]
    
    /* Check compatibility between FIFO threshold level and size of the memory burst */
    /* for INCR4, INCR8, INCR16 bursts */
    if (hdma->Init.MemBurst != DMA_MBURST_SINGLE)
 8002bd8:	687b      	ldr	r3, [r7, #4]
 8002bda:	6adb      	ldr	r3, [r3, #44]	@ 0x2c
 8002bdc:	2b00      	cmp	r3, #0
 8002bde:	d00e      	beq.n	8002bfe <HAL_DMA_Init+0x122>
    {
      if (DMA_CheckFifoParam(hdma) != HAL_OK)
 8002be0:	6878      	ldr	r0, [r7, #4]
 8002be2:	f000 fa6f 	bl	80030c4 <DMA_CheckFifoParam>
 8002be6:	4603      	mov	r3, r0
 8002be8:	2b00      	cmp	r3, #0
 8002bea:	d008      	beq.n	8002bfe <HAL_DMA_Init+0x122>
      {
        /* Update error code */
        hdma->ErrorCode = HAL_DMA_ERROR_PARAM;
 8002bec:	687b      	ldr	r3, [r7, #4]
 8002bee:	2240      	movs	r2, #64	@ 0x40
 8002bf0:	655a      	str	r2, [r3, #84]	@ 0x54
        
        /* Change the DMA state */
        hdma->State = HAL_DMA_STATE_READY;
 8002bf2:	687b      	ldr	r3, [r7, #4]
 8002bf4:	2201      	movs	r2, #1
 8002bf6:	f883 2035 	strb.w	r2, [r3, #53]	@ 0x35
        
        return HAL_ERROR; 
 8002bfa:	2301      	movs	r3, #1
 8002bfc:	e016      	b.n	8002c2c <HAL_DMA_Init+0x150>
      }
    }
  }
  
  /* Write to DMA Stream FCR */
  hdma->Instance->FCR = tmp;
 8002bfe:	687b      	ldr	r3, [r7, #4]
 8002c00:	681b      	ldr	r3, [r3, #0]
 8002c02:	697a      	ldr	r2, [r7, #20]
 8002c04:	615a      	str	r2, [r3, #20]

  /* Initialize StreamBaseAddress and StreamIndex parameters to be used to calculate
     DMA steam Base Address needed by HAL_DMA_IRQHandler() and HAL_DMA_PollForTransfer() */
  regs = (DMA_Base_Registers *)DMA_CalcBaseAndBitshift(hdma);
 8002c06:	6878      	ldr	r0, [r7, #4]
 8002c08:	f000 fa26 	bl	8003058 <DMA_CalcBaseAndBitshift>
 8002c0c:	4603      	mov	r3, r0
 8002c0e:	60fb      	str	r3, [r7, #12]
  
  /* Clear all interrupt flags */
  regs->IFCR = 0x3FU << hdma->StreamIndex;
 8002c10:	687b      	ldr	r3, [r7, #4]
 8002c12:	6ddb      	ldr	r3, [r3, #92]	@ 0x5c
 8002c14:	223f      	movs	r2, #63	@ 0x3f
 8002c16:	409a      	lsls	r2, r3
 8002c18:	68fb      	ldr	r3, [r7, #12]
 8002c1a:	609a      	str	r2, [r3, #8]

  /* Initialize the error code */
  hdma->ErrorCode = HAL_DMA_ERROR_NONE;
 8002c1c:	687b      	ldr	r3, [r7, #4]
 8002c1e:	2200      	movs	r2, #0
 8002c20:	655a      	str	r2, [r3, #84]	@ 0x54
                                                                                     
  /* Initialize the DMA state */
  hdma->State = HAL_DMA_STATE_READY;
 8002c22:	687b      	ldr	r3, [r7, #4]
 8002c24:	2201      	movs	r2, #1
 8002c26:	f883 2035 	strb.w	r2, [r3, #53]	@ 0x35

  return HAL_OK;
 8002c2a:	2300      	movs	r3, #0
}
 8002c2c:	4618      	mov	r0, r3
 8002c2e:	3718      	adds	r7, #24
 8002c30:	46bd      	mov	sp, r7
 8002c32:	bd80      	pop	{r7, pc}
 8002c34:	f010803f 	.word	0xf010803f

08002c38 <HAL_DMA_Start_IT>:
  * @param  DstAddress The destination memory Buffer address
  * @param  DataLength The length of data to be transferred from source to destination
  * @retval HAL status
  */
HAL_StatusTypeDef HAL_DMA_Start_IT(DMA_HandleTypeDef *hdma, uint32_t SrcAddress, uint32_t DstAddress, uint32_t DataLength)
{
 8002c38:	b580      	push	{r7, lr}
 8002c3a:	b086      	sub	sp, #24
 8002c3c:	af00      	add	r7, sp, #0
 8002c3e:	60f8      	str	r0, [r7, #12]
 8002c40:	60b9      	str	r1, [r7, #8]
 8002c42:	607a      	str	r2, [r7, #4]
 8002c44:	603b      	str	r3, [r7, #0]
  HAL_StatusTypeDef status = HAL_OK;
 8002c46:	2300      	movs	r3, #0
 8002c48:	75fb      	strb	r3, [r7, #23]

  /* calculate DMA base and stream number */
  DMA_Base_Registers *regs = (DMA_Base_Registers *)hdma->StreamBaseAddress;
 8002c4a:	68fb      	ldr	r3, [r7, #12]
 8002c4c:	6d9b      	ldr	r3, [r3, #88]	@ 0x58
 8002c4e:	613b      	str	r3, [r7, #16]
  
  /* Check the parameters */
  assert_param(IS_DMA_BUFFER_SIZE(DataLength));
 
  /* Process locked */
  __HAL_LOCK(hdma);
 8002c50:	68fb      	ldr	r3, [r7, #12]
 8002c52:	f893 3034 	ldrb.w	r3, [r3, #52]	@ 0x34
 8002c56:	2b01      	cmp	r3, #1
 8002c58:	d101      	bne.n	8002c5e <HAL_DMA_Start_IT+0x26>
 8002c5a:	2302      	movs	r3, #2
 8002c5c:	e040      	b.n	8002ce0 <HAL_DMA_Start_IT+0xa8>
 8002c5e:	68fb      	ldr	r3, [r7, #12]
 8002c60:	2201      	movs	r2, #1
 8002c62:	f883 2034 	strb.w	r2, [r3, #52]	@ 0x34
  
  if(HAL_DMA_STATE_READY == hdma->State)
 8002c66:	68fb      	ldr	r3, [r7, #12]
 8002c68:	f893 3035 	ldrb.w	r3, [r3, #53]	@ 0x35
 8002c6c:	b2db      	uxtb	r3, r3
 8002c6e:	2b01      	cmp	r3, #1
 8002c70:	d12f      	bne.n	8002cd2 <HAL_DMA_Start_IT+0x9a>
  {
    /* Change DMA peripheral state */
    hdma->State = HAL_DMA_STATE_BUSY;
 8002c72:	68fb      	ldr	r3, [r7, #12]
 8002c74:	2202      	movs	r2, #2
 8002c76:	f883 2035 	strb.w	r2, [r3, #53]	@ 0x35
    
    /* Initialize the error code */
    hdma->ErrorCode = HAL_DMA_ERROR_NONE;
 8002c7a:	68fb      	ldr	r3, [r7, #12]
 8002c7c:	2200      	movs	r2, #0
 8002c7e:	655a      	str	r2, [r3, #84]	@ 0x54
    
    /* Configure the source, destination address and the data length */
    DMA_SetConfig(hdma, SrcAddress, DstAddress, DataLength);
 8002c80:	683b      	ldr	r3, [r7, #0]
 8002c82:	687a      	ldr	r2, [r7, #4]
 8002c84:	68b9      	ldr	r1, [r7, #8]
 8002c86:	68f8      	ldr	r0, [r7, #12]
 8002c88:	f000 f9b8 	bl	8002ffc <DMA_SetConfig>
    
    /* Clear all interrupt flags at correct offset within the register */
    regs->IFCR = 0x3FU << hdma->StreamIndex;
 8002c8c:	68fb      	ldr	r3, [r7, #12]
 8002c8e:	6ddb      	ldr	r3, [r3, #92]	@ 0x5c
 8002c90:	223f      	movs	r2, #63	@ 0x3f
 8002c92:	409a      	lsls	r2, r3
 8002c94:	693b      	ldr	r3, [r7, #16]
 8002c96:	609a      	str	r2, [r3, #8]
    
    /* Enable Common interrupts*/
    hdma->Instance->CR  |= DMA_IT_TC | DMA_IT_TE | DMA_IT_DME;
 8002c98:	68fb      	ldr	r3, [r7, #12]
 8002c9a:	681b      	ldr	r3, [r3, #0]
 8002c9c:	681a      	ldr	r2, [r3, #0]
 8002c9e:	68fb      	ldr	r3, [r7, #12]
 8002ca0:	681b      	ldr	r3, [r3, #0]
 8002ca2:	f042 0216 	orr.w	r2, r2, #22
 8002ca6:	601a      	str	r2, [r3, #0]
    
    if(hdma->XferHalfCpltCallback != NULL)
 8002ca8:	68fb      	ldr	r3, [r7, #12]
 8002caa:	6c1b      	ldr	r3, [r3, #64]	@ 0x40
 8002cac:	2b00      	cmp	r3, #0
 8002cae:	d007      	beq.n	8002cc0 <HAL_DMA_Start_IT+0x88>
    {
      hdma->Instance->CR  |= DMA_IT_HT;
 8002cb0:	68fb      	ldr	r3, [r7, #12]
 8002cb2:	681b      	ldr	r3, [r3, #0]
 8002cb4:	681a      	ldr	r2, [r3, #0]
 8002cb6:	68fb      	ldr	r3, [r7, #12]
 8002cb8:	681b      	ldr	r3, [r3, #0]
 8002cba:	f042 0208 	orr.w	r2, r2, #8
 8002cbe:	601a      	str	r2, [r3, #0]
    }
    
    /* Enable the Peripheral */
    __HAL_DMA_ENABLE(hdma);
 8002cc0:	68fb      	ldr	r3, [r7, #12]
 8002cc2:	681b      	ldr	r3, [r3, #0]
 8002cc4:	681a      	ldr	r2, [r3, #0]
 8002cc6:	68fb      	ldr	r3, [r7, #12]
 8002cc8:	681b      	ldr	r3, [r3, #0]
 8002cca:	f042 0201 	orr.w	r2, r2, #1
 8002cce:	601a      	str	r2, [r3, #0]
 8002cd0:	e005      	b.n	8002cde <HAL_DMA_Start_IT+0xa6>
  }
  else
  {
    /* Process unlocked */
    __HAL_UNLOCK(hdma);	  
 8002cd2:	68fb      	ldr	r3, [r7, #12]
 8002cd4:	2200      	movs	r2, #0
 8002cd6:	f883 2034 	strb.w	r2, [r3, #52]	@ 0x34
    
    /* Return error status */
    status = HAL_BUSY;
 8002cda:	2302      	movs	r3, #2
 8002cdc:	75fb      	strb	r3, [r7, #23]
  }
  
  return status;
 8002cde:	7dfb      	ldrb	r3, [r7, #23]
}
 8002ce0:	4618      	mov	r0, r3
 8002ce2:	3718      	adds	r7, #24
 8002ce4:	46bd      	mov	sp, r7
 8002ce6:	bd80      	pop	{r7, pc}

08002ce8 <HAL_DMA_IRQHandler>:
  * @param  hdma pointer to a DMA_HandleTypeDef structure that contains
  *               the configuration information for the specified DMA Stream.  
  * @retval None
  */
void HAL_DMA_IRQHandler(DMA_HandleTypeDef *hdma)
{
 8002ce8:	b580      	push	{r7, lr}
 8002cea:	b086      	sub	sp, #24
 8002cec:	af00      	add	r7, sp, #0
 8002cee:	6078      	str	r0, [r7, #4]
  uint32_t tmpisr;
  __IO uint32_t count = 0U;
 8002cf0:	2300      	movs	r3, #0
 8002cf2:	60bb      	str	r3, [r7, #8]
  uint32_t timeout = SystemCoreClock / 9600U;
 8002cf4:	4b8e      	ldr	r3, [pc, #568]	@ (8002f30 <HAL_DMA_IRQHandler+0x248>)
 8002cf6:	681b      	ldr	r3, [r3, #0]
 8002cf8:	4a8e      	ldr	r2, [pc, #568]	@ (8002f34 <HAL_DMA_IRQHandler+0x24c>)
 8002cfa:	fba2 2303 	umull	r2, r3, r2, r3
 8002cfe:	0a9b      	lsrs	r3, r3, #10
 8002d00:	617b      	str	r3, [r7, #20]

  /* calculate DMA base and stream number */
  DMA_Base_Registers *regs = (DMA_Base_Registers *)hdma->StreamBaseAddress;
 8002d02:	687b      	ldr	r3, [r7, #4]
 8002d04:	6d9b      	ldr	r3, [r3, #88]	@ 0x58
 8002d06:	613b      	str	r3, [r7, #16]

  tmpisr = regs->ISR;
 8002d08:	693b      	ldr	r3, [r7, #16]
 8002d0a:	681b      	ldr	r3, [r3, #0]
 8002d0c:	60fb      	str	r3, [r7, #12]

  /* Transfer Error Interrupt management ***************************************/
  if ((tmpisr & (DMA_FLAG_TEIF0_4 << hdma->StreamIndex)) != RESET)
 8002d0e:	687b      	ldr	r3, [r7, #4]
 8002d10:	6ddb      	ldr	r3, [r3, #92]	@ 0x5c
 8002d12:	2208      	movs	r2, #8
 8002d14:	409a      	lsls	r2, r3
 8002d16:	68fb      	ldr	r3, [r7, #12]
 8002d18:	4013      	ands	r3, r2
 8002d1a:	2b00      	cmp	r3, #0
 8002d1c:	d01a      	beq.n	8002d54 <HAL_DMA_IRQHandler+0x6c>
  {
    if(__HAL_DMA_GET_IT_SOURCE(hdma, DMA_IT_TE) != RESET)
 8002d1e:	687b      	ldr	r3, [r7, #4]
 8002d20:	681b      	ldr	r3, [r3, #0]
 8002d22:	681b      	ldr	r3, [r3, #0]
 8002d24:	f003 0304 	and.w	r3, r3, #4
 8002d28:	2b00      	cmp	r3, #0
 8002d2a:	d013      	beq.n	8002d54 <HAL_DMA_IRQHandler+0x6c>
    {
      /* Disable the transfer error interrupt */
      hdma->Instance->CR  &= ~(DMA_IT_TE);
 8002d2c:	687b      	ldr	r3, [r7, #4]
 8002d2e:	681b      	ldr	r3, [r3, #0]
 8002d30:	681a      	ldr	r2, [r3, #0]
 8002d32:	687b      	ldr	r3, [r7, #4]
 8002d34:	681b      	ldr	r3, [r3, #0]
 8002d36:	f022 0204 	bic.w	r2, r2, #4
 8002d3a:	601a      	str	r2, [r3, #0]
      
      /* Clear the transfer error flag */
      regs->IFCR = DMA_FLAG_TEIF0_4 << hdma->StreamIndex;
 8002d3c:	687b      	ldr	r3, [r7, #4]
 8002d3e:	6ddb      	ldr	r3, [r3, #92]	@ 0x5c
 8002d40:	2208      	movs	r2, #8
 8002d42:	409a      	lsls	r2, r3
 8002d44:	693b      	ldr	r3, [r7, #16]
 8002d46:	609a      	str	r2, [r3, #8]
      
      /* Update error code */
      hdma->ErrorCode |= HAL_DMA_ERROR_TE;
 8002d48:	687b      	ldr	r3, [r7, #4]
 8002d4a:	6d5b      	ldr	r3, [r3, #84]	@ 0x54
 8002d4c:	f043 0201 	orr.w	r2, r3, #1
 8002d50:	687b      	ldr	r3, [r7, #4]
 8002d52:	655a      	str	r2, [r3, #84]	@ 0x54
    }
  }
  /* FIFO Error Interrupt management ******************************************/
  if ((tmpisr & (DMA_FLAG_FEIF0_4 << hdma->StreamIndex)) != RESET)
 8002d54:	687b      	ldr	r3, [r7, #4]
 8002d56:	6ddb      	ldr	r3, [r3, #92]	@ 0x5c
 8002d58:	2201      	movs	r2, #1
 8002d5a:	409a      	lsls	r2, r3
 8002d5c:	68fb      	ldr	r3, [r7, #12]
 8002d5e:	4013      	ands	r3, r2
 8002d60:	2b00      	cmp	r3, #0
 8002d62:	d012      	beq.n	8002d8a <HAL_DMA_IRQHandler+0xa2>
  {
    if(__HAL_DMA_GET_IT_SOURCE(hdma, DMA_IT_FE) != RESET)
 8002d64:	687b      	ldr	r3, [r7, #4]
 8002d66:	681b      	ldr	r3, [r3, #0]
 8002d68:	695b      	ldr	r3, [r3, #20]
 8002d6a:	f003 0380 	and.w	r3, r3, #128	@ 0x80
 8002d6e:	2b00      	cmp	r3, #0
 8002d70:	d00b      	beq.n	8002d8a <HAL_DMA_IRQHandler+0xa2>
    {
      /* Clear the FIFO error flag */
      regs->IFCR = DMA_FLAG_FEIF0_4 << hdma->StreamIndex;
 8002d72:	687b      	ldr	r3, [r7, #4]
 8002d74:	6ddb      	ldr	r3, [r3, #92]	@ 0x5c
 8002d76:	2201      	movs	r2, #1
 8002d78:	409a      	lsls	r2, r3
 8002d7a:	693b      	ldr	r3, [r7, #16]
 8002d7c:	609a      	str	r2, [r3, #8]

      /* Update error code */
      hdma->ErrorCode |= HAL_DMA_ERROR_FE;
 8002d7e:	687b      	ldr	r3, [r7, #4]
 8002d80:	6d5b      	ldr	r3, [r3, #84]	@ 0x54
 8002d82:	f043 0202 	orr.w	r2, r3, #2
 8002d86:	687b      	ldr	r3, [r7, #4]
 8002d88:	655a      	str	r2, [r3, #84]	@ 0x54
    }
  }
  /* Direct Mode Error Interrupt management ***********************************/
  if ((tmpisr & (DMA_FLAG_DMEIF0_4 << hdma->StreamIndex)) != RESET)
 8002d8a:	687b      	ldr	r3, [r7, #4]
 8002d8c:	6ddb      	ldr	r3, [r3, #92]	@ 0x5c
 8002d8e:	2204      	movs	r2, #4
 8002d90:	409a      	lsls	r2, r3
 8002d92:	68fb      	ldr	r3, [r7, #12]
 8002d94:	4013      	ands	r3, r2
 8002d96:	2b00      	cmp	r3, #0
 8002d98:	d012      	beq.n	8002dc0 <HAL_DMA_IRQHandler+0xd8>
  {
    if(__HAL_DMA_GET_IT_SOURCE(hdma, DMA_IT_DME) != RESET)
 8002d9a:	687b      	ldr	r3, [r7, #4]
 8002d9c:	681b      	ldr	r3, [r3, #0]
 8002d9e:	681b      	ldr	r3, [r3, #0]
 8002da0:	f003 0302 	and.w	r3, r3, #2
 8002da4:	2b00      	cmp	r3, #0
 8002da6:	d00b      	beq.n	8002dc0 <HAL_DMA_IRQHandler+0xd8>
    {
      /* Clear the direct mode error flag */
      regs->IFCR = DMA_FLAG_DMEIF0_4 << hdma->StreamIndex;
 8002da8:	687b      	ldr	r3, [r7, #4]
 8002daa:	6ddb      	ldr	r3, [r3, #92]	@ 0x5c
 8002dac:	2204      	movs	r2, #4
 8002dae:	409a      	lsls	r2, r3
 8002db0:	693b      	ldr	r3, [r7, #16]
 8002db2:	609a      	str	r2, [r3, #8]

      /* Update error code */
      hdma->ErrorCode |= HAL_DMA_ERROR_DME;
 8002db4:	687b      	ldr	r3, [r7, #4]
 8002db6:	6d5b      	ldr	r3, [r3, #84]	@ 0x54
 8002db8:	f043 0204 	orr.w	r2, r3, #4
 8002dbc:	687b      	ldr	r3, [r7, #4]
 8002dbe:	655a      	str	r2, [r3, #84]	@ 0x54
    }
  }
  /* Half Transfer Complete Interrupt management ******************************/
  if ((tmpisr & (DMA_FLAG_HTIF0_4 << hdma->StreamIndex)) != RESET)
 8002dc0:	687b      	ldr	r3, [r7, #4]
 8002dc2:	6ddb      	ldr	r3, [r3, #92]	@ 0x5c
 8002dc4:	2210      	movs	r2, #16
 8002dc6:	409a      	lsls	r2, r3
 8002dc8:	68fb      	ldr	r3, [r7, #12]
 8002dca:	4013      	ands	r3, r2
 8002dcc:	2b00      	cmp	r3, #0
 8002dce:	d043      	beq.n	8002e58 <HAL_DMA_IRQHandler+0x170>
  {
    if(__HAL_DMA_GET_IT_SOURCE(hdma, DMA_IT_HT) != RESET)
 8002dd0:	687b      	ldr	r3, [r7, #4]
 8002dd2:	681b      	ldr	r3, [r3, #0]
 8002dd4:	681b      	ldr	r3, [r3, #0]
 8002dd6:	f003 0308 	and.w	r3, r3, #8
 8002dda:	2b00      	cmp	r3, #0
 8002ddc:	d03c      	beq.n	8002e58 <HAL_DMA_IRQHandler+0x170>
    {
      /* Clear the half transfer complete flag */
      regs->IFCR = DMA_FLAG_HTIF0_4 << hdma->StreamIndex;
 8002dde:	687b      	ldr	r3, [r7, #4]
 8002de0:	6ddb      	ldr	r3, [r3, #92]	@ 0x5c
 8002de2:	2210      	movs	r2, #16
 8002de4:	409a      	lsls	r2, r3
 8002de6:	693b      	ldr	r3, [r7, #16]
 8002de8:	609a      	str	r2, [r3, #8]
      
      /* Multi_Buffering mode enabled */
      if(((hdma->Instance->CR) & (uint32_t)(DMA_SxCR_DBM)) != RESET)
 8002dea:	687b      	ldr	r3, [r7, #4]
 8002dec:	681b      	ldr	r3, [r3, #0]
 8002dee:	681b      	ldr	r3, [r3, #0]
 8002df0:	f403 2380 	and.w	r3, r3, #262144	@ 0x40000
 8002df4:	2b00      	cmp	r3, #0
 8002df6:	d018      	beq.n	8002e2a <HAL_DMA_IRQHandler+0x142>
      {
        /* Current memory buffer used is Memory 0 */
        if((hdma->Instance->CR & DMA_SxCR_CT) == RESET)
 8002df8:	687b      	ldr	r3, [r7, #4]
 8002dfa:	681b      	ldr	r3, [r3, #0]
 8002dfc:	681b      	ldr	r3, [r3, #0]
 8002dfe:	f403 2300 	and.w	r3, r3, #524288	@ 0x80000
 8002e02:	2b00      	cmp	r3, #0
 8002e04:	d108      	bne.n	8002e18 <HAL_DMA_IRQHandler+0x130>
        {
          if(hdma->XferHalfCpltCallback != NULL)
 8002e06:	687b      	ldr	r3, [r7, #4]
 8002e08:	6c1b      	ldr	r3, [r3, #64]	@ 0x40
 8002e0a:	2b00      	cmp	r3, #0
 8002e0c:	d024      	beq.n	8002e58 <HAL_DMA_IRQHandler+0x170>
          {
            /* Half transfer callback */
            hdma->XferHalfCpltCallback(hdma);
 8002e0e:	687b      	ldr	r3, [r7, #4]
 8002e10:	6c1b      	ldr	r3, [r3, #64]	@ 0x40
 8002e12:	6878      	ldr	r0, [r7, #4]
 8002e14:	4798      	blx	r3
 8002e16:	e01f      	b.n	8002e58 <HAL_DMA_IRQHandler+0x170>
          }
        }
        /* Current memory buffer used is Memory 1 */
        else
        {
          if(hdma->XferM1HalfCpltCallback != NULL)
 8002e18:	687b      	ldr	r3, [r7, #4]
 8002e1a:	6c9b      	ldr	r3, [r3, #72]	@ 0x48
 8002e1c:	2b00      	cmp	r3, #0
 8002e1e:	d01b      	beq.n	8002e58 <HAL_DMA_IRQHandler+0x170>
          {
            /* Half transfer callback */
            hdma->XferM1HalfCpltCallback(hdma);
 8002e20:	687b      	ldr	r3, [r7, #4]
 8002e22:	6c9b      	ldr	r3, [r3, #72]	@ 0x48
 8002e24:	6878      	ldr	r0, [r7, #4]
 8002e26:	4798      	blx	r3
 8002e28:	e016      	b.n	8002e58 <HAL_DMA_IRQHandler+0x170>
        }
      }
      else
      {
        /* Disable the half transfer interrupt if the DMA mode is not CIRCULAR */
        if((hdma->Instance->CR & DMA_SxCR_CIRC) == RESET)
 8002e2a:	687b      	ldr	r3, [r7, #4]
 8002e2c:	681b      	ldr	r3, [r3, #0]
 8002e2e:	681b      	ldr	r3, [r3, #0]
 8002e30:	f403 7380 	and.w	r3, r3, #256	@ 0x100
 8002e34:	2b00      	cmp	r3, #0
 8002e36:	d107      	bne.n	8002e48 <HAL_DMA_IRQHandler+0x160>
        {
          /* Disable the half transfer interrupt */
          hdma->Instance->CR  &= ~(DMA_IT_HT);
 8002e38:	687b      	ldr	r3, [r7, #4]
 8002e3a:	681b      	ldr	r3, [r3, #0]
 8002e3c:	681a      	ldr	r2, [r3, #0]
 8002e3e:	687b      	ldr	r3, [r7, #4]
 8002e40:	681b      	ldr	r3, [r3, #0]
 8002e42:	f022 0208 	bic.w	r2, r2, #8
 8002e46:	601a      	str	r2, [r3, #0]
        }
        
        if(hdma->XferHalfCpltCallback != NULL)
 8002e48:	687b      	ldr	r3, [r7, #4]
 8002e4a:	6c1b      	ldr	r3, [r3, #64]	@ 0x40
 8002e4c:	2b00      	cmp	r3, #0
 8002e4e:	d003      	beq.n	8002e58 <HAL_DMA_IRQHandler+0x170>
        {
          /* Half transfer callback */
          hdma->XferHalfCpltCallback(hdma);
 8002e50:	687b      	ldr	r3, [r7, #4]
 8002e52:	6c1b      	ldr	r3, [r3, #64]	@ 0x40
 8002e54:	6878      	ldr	r0, [r7, #4]
 8002e56:	4798      	blx	r3
        }
      }
    }
  }
  /* Transfer Complete Interrupt management ***********************************/
  if ((tmpisr & (DMA_FLAG_TCIF0_4 << hdma->StreamIndex)) != RESET)
 8002e58:	687b      	ldr	r3, [r7, #4]
 8002e5a:	6ddb      	ldr	r3, [r3, #92]	@ 0x5c
 8002e5c:	2220      	movs	r2, #32
 8002e5e:	409a      	lsls	r2, r3
 8002e60:	68fb      	ldr	r3, [r7, #12]
 8002e62:	4013      	ands	r3, r2
 8002e64:	2b00      	cmp	r3, #0
 8002e66:	f000 808f 	beq.w	8002f88 <HAL_DMA_IRQHandler+0x2a0>
  {
    if(__HAL_DMA_GET_IT_SOURCE(hdma, DMA_IT_TC) != RESET)
 8002e6a:	687b      	ldr	r3, [r7, #4]
 8002e6c:	681b      	ldr	r3, [r3, #0]
 8002e6e:	681b      	ldr	r3, [r3, #0]
 8002e70:	f003 0310 	and.w	r3, r3, #16
 8002e74:	2b00      	cmp	r3, #0
 8002e76:	f000 8087 	beq.w	8002f88 <HAL_DMA_IRQHandler+0x2a0>
    {
      /* Clear the transfer complete flag */
      regs->IFCR = DMA_FLAG_TCIF0_4 << hdma->StreamIndex;
 8002e7a:	687b      	ldr	r3, [r7, #4]
 8002e7c:	6ddb      	ldr	r3, [r3, #92]	@ 0x5c
 8002e7e:	2220      	movs	r2, #32
 8002e80:	409a      	lsls	r2, r3
 8002e82:	693b      	ldr	r3, [r7, #16]
 8002e84:	609a      	str	r2, [r3, #8]
      
      if(HAL_DMA_STATE_ABORT == hdma->State)
 8002e86:	687b      	ldr	r3, [r7, #4]
 8002e88:	f893 3035 	ldrb.w	r3, [r3, #53]	@ 0x35
 8002e8c:	b2db      	uxtb	r3, r3
 8002e8e:	2b05      	cmp	r3, #5
 8002e90:	d136      	bne.n	8002f00 <HAL_DMA_IRQHandler+0x218>
      {
        /* Disable all the transfer interrupts */
        hdma->Instance->CR  &= ~(DMA_IT_TC | DMA_IT_TE | DMA_IT_DME);
 8002e92:	687b      	ldr	r3, [r7, #4]
 8002e94:	681b      	ldr	r3, [r3, #0]
 8002e96:	681a      	ldr	r2, [r3, #0]
 8002e98:	687b      	ldr	r3, [r7, #4]
 8002e9a:	681b      	ldr	r3, [r3, #0]
 8002e9c:	f022 0216 	bic.w	r2, r2, #22
 8002ea0:	601a      	str	r2, [r3, #0]
        hdma->Instance->FCR &= ~(DMA_IT_FE);
 8002ea2:	687b      	ldr	r3, [r7, #4]
 8002ea4:	681b      	ldr	r3, [r3, #0]
 8002ea6:	695a      	ldr	r2, [r3, #20]
 8002ea8:	687b      	ldr	r3, [r7, #4]
 8002eaa:	681b      	ldr	r3, [r3, #0]
 8002eac:	f022 0280 	bic.w	r2, r2, #128	@ 0x80
 8002eb0:	615a      	str	r2, [r3, #20]
        
        if((hdma->XferHalfCpltCallback != NULL) || (hdma->XferM1HalfCpltCallback != NULL))
 8002eb2:	687b      	ldr	r3, [r7, #4]
 8002eb4:	6c1b      	ldr	r3, [r3, #64]	@ 0x40
 8002eb6:	2b00      	cmp	r3, #0
 8002eb8:	d103      	bne.n	8002ec2 <HAL_DMA_IRQHandler+0x1da>
 8002eba:	687b      	ldr	r3, [r7, #4]
 8002ebc:	6c9b      	ldr	r3, [r3, #72]	@ 0x48
 8002ebe:	2b00      	cmp	r3, #0
 8002ec0:	d007      	beq.n	8002ed2 <HAL_DMA_IRQHandler+0x1ea>
        {
          hdma->Instance->CR  &= ~(DMA_IT_HT);
 8002ec2:	687b      	ldr	r3, [r7, #4]
 8002ec4:	681b      	ldr	r3, [r3, #0]
 8002ec6:	681a      	ldr	r2, [r3, #0]
 8002ec8:	687b      	ldr	r3, [r7, #4]
 8002eca:	681b      	ldr	r3, [r3, #0]
 8002ecc:	f022 0208 	bic.w	r2, r2, #8
 8002ed0:	601a      	str	r2, [r3, #0]
        }

        /* Clear all interrupt flags at correct offset within the register */
        regs->IFCR = 0x3FU << hdma->StreamIndex;
 8002ed2:	687b      	ldr	r3, [r7, #4]
 8002ed4:	6ddb      	ldr	r3, [r3, #92]	@ 0x5c
 8002ed6:	223f      	movs	r2, #63	@ 0x3f
 8002ed8:	409a      	lsls	r2, r3
 8002eda:	693b      	ldr	r3, [r7, #16]
 8002edc:	609a      	str	r2, [r3, #8]

        /* Change the DMA state */
        hdma->State = HAL_DMA_STATE_READY;
 8002ede:	687b      	ldr	r3, [r7, #4]
 8002ee0:	2201      	movs	r2, #1
 8002ee2:	f883 2035 	strb.w	r2, [r3, #53]	@ 0x35

        /* Process Unlocked */
        __HAL_UNLOCK(hdma);
 8002ee6:	687b      	ldr	r3, [r7, #4]
 8002ee8:	2200      	movs	r2, #0
 8002eea:	f883 2034 	strb.w	r2, [r3, #52]	@ 0x34

        if(hdma->XferAbortCallback != NULL)
 8002eee:	687b      	ldr	r3, [r7, #4]
 8002ef0:	6d1b      	ldr	r3, [r3, #80]	@ 0x50
 8002ef2:	2b00      	cmp	r3, #0
 8002ef4:	d07e      	beq.n	8002ff4 <HAL_DMA_IRQHandler+0x30c>
        {
          hdma->XferAbortCallback(hdma);
 8002ef6:	687b      	ldr	r3, [r7, #4]
 8002ef8:	6d1b      	ldr	r3, [r3, #80]	@ 0x50
 8002efa:	6878      	ldr	r0, [r7, #4]
 8002efc:	4798      	blx	r3
        }
        return;
 8002efe:	e079      	b.n	8002ff4 <HAL_DMA_IRQHandler+0x30c>
      }

      if(((hdma->Instance->CR) & (uint32_t)(DMA_SxCR_DBM)) != RESET)
 8002f00:	687b      	ldr	r3, [r7, #4]
 8002f02:	681b      	ldr	r3, [r3, #0]
 8002f04:	681b      	ldr	r3, [r3, #0]
 8002f06:	f403 2380 	and.w	r3, r3, #262144	@ 0x40000
 8002f0a:	2b00      	cmp	r3, #0
 8002f0c:	d01d      	beq.n	8002f4a <HAL_DMA_IRQHandler+0x262>
      {
        /* Current memory buffer used is Memory 0 */
        if((hdma->Instance->CR & DMA_SxCR_CT) == RESET)
 8002f0e:	687b      	ldr	r3, [r7, #4]
 8002f10:	681b      	ldr	r3, [r3, #0]
 8002f12:	681b      	ldr	r3, [r3, #0]
 8002f14:	f403 2300 	and.w	r3, r3, #524288	@ 0x80000
 8002f18:	2b00      	cmp	r3, #0
 8002f1a:	d10d      	bne.n	8002f38 <HAL_DMA_IRQHandler+0x250>
        {
          if(hdma->XferM1CpltCallback != NULL)
 8002f1c:	687b      	ldr	r3, [r7, #4]
 8002f1e:	6c5b      	ldr	r3, [r3, #68]	@ 0x44
 8002f20:	2b00      	cmp	r3, #0
 8002f22:	d031      	beq.n	8002f88 <HAL_DMA_IRQHandler+0x2a0>
          {
            /* Transfer complete Callback for memory1 */
            hdma->XferM1CpltCallback(hdma);
 8002f24:	687b      	ldr	r3, [r7, #4]
 8002f26:	6c5b      	ldr	r3, [r3, #68]	@ 0x44
 8002f28:	6878      	ldr	r0, [r7, #4]
 8002f2a:	4798      	blx	r3
 8002f2c:	e02c      	b.n	8002f88 <HAL_DMA_IRQHandler+0x2a0>
 8002f2e:	bf00      	nop
 8002f30:	20000008 	.word	0x20000008
 8002f34:	1b4e81b5 	.word	0x1b4e81b5
          }
        }
        /* Current memory buffer used is Memory 1 */
        else
        {
          if(hdma->XferCpltCallback != NULL)
 8002f38:	687b      	ldr	r3, [r7, #4]
 8002f3a:	6bdb      	ldr	r3, [r3, #60]	@ 0x3c
 8002f3c:	2b00      	cmp	r3, #0
 8002f3e:	d023      	beq.n	8002f88 <HAL_DMA_IRQHandler+0x2a0>
          {
            /* Transfer complete Callback for memory0 */
            hdma->XferCpltCallback(hdma);
 8002f40:	687b      	ldr	r3, [r7, #4]
 8002f42:	6bdb      	ldr	r3, [r3, #60]	@ 0x3c
 8002f44:	6878      	ldr	r0, [r7, #4]
 8002f46:	4798      	blx	r3
 8002f48:	e01e      	b.n	8002f88 <HAL_DMA_IRQHandler+0x2a0>
        }
      }
      /* Disable the transfer complete interrupt if the DMA mode is not CIRCULAR */
      else
      {
        if((hdma->Instance->CR & DMA_SxCR_CIRC) == RESET)
 8002f4a:	687b      	ldr	r3, [r7, #4]
 8002f4c:	681b      	ldr	r3, [r3, #0]
 8002f4e:	681b      	ldr	r3, [r3, #0]
 8002f50:	f403 7380 	and.w	r3, r3, #256	@ 0x100
 8002f54:	2b00      	cmp	r3, #0
 8002f56:	d10f      	bne.n	8002f78 <HAL_DMA_IRQHandler+0x290>
        {
          /* Disable the transfer complete interrupt */
          hdma->Instance->CR  &= ~(DMA_IT_TC);
 8002f58:	687b      	ldr	r3, [r7, #4]
 8002f5a:	681b      	ldr	r3, [r3, #0]
 8002f5c:	681a      	ldr	r2, [r3, #0]
 8002f5e:	687b      	ldr	r3, [r7, #4]
 8002f60:	681b      	ldr	r3, [r3, #0]
 8002f62:	f022 0210 	bic.w	r2, r2, #16
 8002f66:	601a      	str	r2, [r3, #0]

          /* Change the DMA state */
          hdma->State = HAL_DMA_STATE_READY;
 8002f68:	687b      	ldr	r3, [r7, #4]
 8002f6a:	2201      	movs	r2, #1
 8002f6c:	f883 2035 	strb.w	r2, [r3, #53]	@ 0x35

          /* Process Unlocked */
          __HAL_UNLOCK(hdma);
 8002f70:	687b      	ldr	r3, [r7, #4]
 8002f72:	2200      	movs	r2, #0
 8002f74:	f883 2034 	strb.w	r2, [r3, #52]	@ 0x34
        }

        if(hdma->XferCpltCallback != NULL)
 8002f78:	687b      	ldr	r3, [r7, #4]
 8002f7a:	6bdb      	ldr	r3, [r3, #60]	@ 0x3c
 8002f7c:	2b00      	cmp	r3, #0
 8002f7e:	d003      	beq.n	8002f88 <HAL_DMA_IRQHandler+0x2a0>
        {
          /* Transfer complete callback */
          hdma->XferCpltCallback(hdma);
 8002f80:	687b      	ldr	r3, [r7, #4]
 8002f82:	6bdb      	ldr	r3, [r3, #60]	@ 0x3c
 8002f84:	6878      	ldr	r0, [r7, #4]
 8002f86:	4798      	blx	r3
      }
    }
  }
  
  /* manage error case */
  if(hdma->ErrorCode != HAL_DMA_ERROR_NONE)
 8002f88:	687b      	ldr	r3, [r7, #4]
 8002f8a:	6d5b      	ldr	r3, [r3, #84]	@ 0x54
 8002f8c:	2b00      	cmp	r3, #0
 8002f8e:	d032      	beq.n	8002ff6 <HAL_DMA_IRQHandler+0x30e>
  {
    if((hdma->ErrorCode & HAL_DMA_ERROR_TE) != RESET)
 8002f90:	687b      	ldr	r3, [r7, #4]
 8002f92:	6d5b      	ldr	r3, [r3, #84]	@ 0x54
 8002f94:	f003 0301 	and.w	r3, r3, #1
 8002f98:	2b00      	cmp	r3, #0
 8002f9a:	d022      	beq.n	8002fe2 <HAL_DMA_IRQHandler+0x2fa>
    {
      hdma->State = HAL_DMA_STATE_ABORT;
 8002f9c:	687b      	ldr	r3, [r7, #4]
 8002f9e:	2205      	movs	r2, #5
 8002fa0:	f883 2035 	strb.w	r2, [r3, #53]	@ 0x35

      /* Disable the stream */
      __HAL_DMA_DISABLE(hdma);
 8002fa4:	687b      	ldr	r3, [r7, #4]
 8002fa6:	681b      	ldr	r3, [r3, #0]
 8002fa8:	681a      	ldr	r2, [r3, #0]
 8002faa:	687b      	ldr	r3, [r7, #4]
 8002fac:	681b      	ldr	r3, [r3, #0]
 8002fae:	f022 0201 	bic.w	r2, r2, #1
 8002fb2:	601a      	str	r2, [r3, #0]

      do
      {
        if (++count > timeout)
 8002fb4:	68bb      	ldr	r3, [r7, #8]
 8002fb6:	3301      	adds	r3, #1
 8002fb8:	60bb      	str	r3, [r7, #8]
 8002fba:	697a      	ldr	r2, [r7, #20]
 8002fbc:	429a      	cmp	r2, r3
 8002fbe:	d307      	bcc.n	8002fd0 <HAL_DMA_IRQHandler+0x2e8>
        {
          break;
        }
      }
      while((hdma->Instance->CR & DMA_SxCR_EN) != RESET);
 8002fc0:	687b      	ldr	r3, [r7, #4]
 8002fc2:	681b      	ldr	r3, [r3, #0]
 8002fc4:	681b      	ldr	r3, [r3, #0]
 8002fc6:	f003 0301 	and.w	r3, r3, #1
 8002fca:	2b00      	cmp	r3, #0
 8002fcc:	d1f2      	bne.n	8002fb4 <HAL_DMA_IRQHandler+0x2cc>
 8002fce:	e000      	b.n	8002fd2 <HAL_DMA_IRQHandler+0x2ea>
          break;
 8002fd0:	bf00      	nop

      /* Change the DMA state */
      hdma->State = HAL_DMA_STATE_READY;
 8002fd2:	687b      	ldr	r3, [r7, #4]
 8002fd4:	2201      	movs	r2, #1
 8002fd6:	f883 2035 	strb.w	r2, [r3, #53]	@ 0x35

      /* Process Unlocked */
      __HAL_UNLOCK(hdma);
 8002fda:	687b      	ldr	r3, [r7, #4]
 8002fdc:	2200      	movs	r2, #0
 8002fde:	f883 2034 	strb.w	r2, [r3, #52]	@ 0x34
    }

    if(hdma->XferErrorCallback != NULL)
 8002fe2:	687b      	ldr	r3, [r7, #4]
 8002fe4:	6cdb      	ldr	r3, [r3, #76]	@ 0x4c
 8002fe6:	2b00      	cmp	r3, #0
 8002fe8:	d005      	beq.n	8002ff6 <HAL_DMA_IRQHandler+0x30e>
    {
      /* Transfer error callback */
      hdma->XferErrorCallback(hdma);
 8002fea:	687b      	ldr	r3, [r7, #4]
 8002fec:	6cdb      	ldr	r3, [r3, #76]	@ 0x4c
 8002fee:	6878      	ldr	r0, [r7, #4]
 8002ff0:	4798      	blx	r3
 8002ff2:	e000      	b.n	8002ff6 <HAL_DMA_IRQHandler+0x30e>
        return;
 8002ff4:	bf00      	nop
    }
  }
}
 8002ff6:	3718      	adds	r7, #24
 8002ff8:	46bd      	mov	sp, r7
 8002ffa:	bd80      	pop	{r7, pc}

08002ffc <DMA_SetConfig>:
  * @param  DstAddress The destination memory Buffer address
  * @param  DataLength The length of data to be transferred from source to destination
  * @retval HAL status
  */
static void DMA_SetConfig(DMA_HandleTypeDef *hdma, uint32_t SrcAddress, uint32_t DstAddress, uint32_t DataLength)
{
 8002ffc:	b480      	push	{r7}
 8002ffe:	b085      	sub	sp, #20
 8003000:	af00      	add	r7, sp, #0
 8003002:	60f8      	str	r0, [r7, #12]
 8003004:	60b9      	str	r1, [r7, #8]
 8003006:	607a      	str	r2, [r7, #4]
 8003008:	603b      	str	r3, [r7, #0]
  /* Clear DBM bit */
  hdma->Instance->CR &= (uint32_t)(~DMA_SxCR_DBM);
 800300a:	68fb      	ldr	r3, [r7, #12]
 800300c:	681b      	ldr	r3, [r3, #0]
 800300e:	681a      	ldr	r2, [r3, #0]
 8003010:	68fb      	ldr	r3, [r7, #12]
 8003012:	681b      	ldr	r3, [r3, #0]
 8003014:	f422 2280 	bic.w	r2, r2, #262144	@ 0x40000
 8003018:	601a      	str	r2, [r3, #0]

  /* Configure DMA Stream data length */
  hdma->Instance->NDTR = DataLength;
 800301a:	68fb      	ldr	r3, [r7, #12]
 800301c:	681b      	ldr	r3, [r3, #0]
 800301e:	683a      	ldr	r2, [r7, #0]
 8003020:	605a      	str	r2, [r3, #4]

  /* Memory to Peripheral */
  if((hdma->Init.Direction) == DMA_MEMORY_TO_PERIPH)
 8003022:	68fb      	ldr	r3, [r7, #12]
 8003024:	689b      	ldr	r3, [r3, #8]
 8003026:	2b40      	cmp	r3, #64	@ 0x40
 8003028:	d108      	bne.n	800303c <DMA_SetConfig+0x40>
  {
    /* Configure DMA Stream destination address */
    hdma->Instance->PAR = DstAddress;
 800302a:	68fb      	ldr	r3, [r7, #12]
 800302c:	681b      	ldr	r3, [r3, #0]
 800302e:	687a      	ldr	r2, [r7, #4]
 8003030:	609a      	str	r2, [r3, #8]

    /* Configure DMA Stream source address */
    hdma->Instance->M0AR = SrcAddress;
 8003032:	68fb      	ldr	r3, [r7, #12]
 8003034:	681b      	ldr	r3, [r3, #0]
 8003036:	68ba      	ldr	r2, [r7, #8]
 8003038:	60da      	str	r2, [r3, #12]
    hdma->Instance->PAR = SrcAddress;

    /* Configure DMA Stream destination address */
    hdma->Instance->M0AR = DstAddress;
  }
}
 800303a:	e007      	b.n	800304c <DMA_SetConfig+0x50>
    hdma->Instance->PAR = SrcAddress;
 800303c:	68fb      	ldr	r3, [r7, #12]
 800303e:	681b      	ldr	r3, [r3, #0]
 8003040:	68ba      	ldr	r2, [r7, #8]
 8003042:	609a      	str	r2, [r3, #8]
    hdma->Instance->M0AR = DstAddress;
 8003044:	68fb      	ldr	r3, [r7, #12]
 8003046:	681b      	ldr	r3, [r3, #0]
 8003048:	687a      	ldr	r2, [r7, #4]
 800304a:	60da      	str	r2, [r3, #12]
}
 800304c:	bf00      	nop
 800304e:	3714      	adds	r7, #20
 8003050:	46bd      	mov	sp, r7
 8003052:	f85d 7b04 	ldr.w	r7, [sp], #4
 8003056:	4770      	bx	lr

08003058 <DMA_CalcBaseAndBitshift>:
  * @param  hdma       pointer to a DMA_HandleTypeDef structure that contains
  *                     the configuration information for the specified DMA Stream. 
  * @retval Stream base address
  */
static uint32_t DMA_CalcBaseAndBitshift(DMA_HandleTypeDef *hdma)
{
 8003058:	b480      	push	{r7}
 800305a:	b085      	sub	sp, #20
 800305c:	af00      	add	r7, sp, #0
 800305e:	6078      	str	r0, [r7, #4]
  uint32_t stream_number = (((uint32_t)hdma->Instance & 0xFFU) - 16U) / 24U;
 8003060:	687b      	ldr	r3, [r7, #4]
 8003062:	681b      	ldr	r3, [r3, #0]
 8003064:	b2db      	uxtb	r3, r3
 8003066:	3b10      	subs	r3, #16
 8003068:	4a14      	ldr	r2, [pc, #80]	@ (80030bc <DMA_CalcBaseAndBitshift+0x64>)
 800306a:	fba2 2303 	umull	r2, r3, r2, r3
 800306e:	091b      	lsrs	r3, r3, #4
 8003070:	60fb      	str	r3, [r7, #12]
  
  /* lookup table for necessary bitshift of flags within status registers */
  static const uint8_t flagBitshiftOffset[8U] = {0U, 6U, 16U, 22U, 0U, 6U, 16U, 22U};
  hdma->StreamIndex = flagBitshiftOffset[stream_number];
 8003072:	4a13      	ldr	r2, [pc, #76]	@ (80030c0 <DMA_CalcBaseAndBitshift+0x68>)
 8003074:	68fb      	ldr	r3, [r7, #12]
 8003076:	4413      	add	r3, r2
 8003078:	781b      	ldrb	r3, [r3, #0]
 800307a:	461a      	mov	r2, r3
 800307c:	687b      	ldr	r3, [r7, #4]
 800307e:	65da      	str	r2, [r3, #92]	@ 0x5c
  
  if (stream_number > 3U)
 8003080:	68fb      	ldr	r3, [r7, #12]
 8003082:	2b03      	cmp	r3, #3
 8003084:	d909      	bls.n	800309a <DMA_CalcBaseAndBitshift+0x42>
  {
    /* return pointer to HISR and HIFCR */
    hdma->StreamBaseAddress = (((uint32_t)hdma->Instance & (uint32_t)(~0x3FFU)) + 4U);
 8003086:	687b      	ldr	r3, [r7, #4]
 8003088:	681b      	ldr	r3, [r3, #0]
 800308a:	f423 737f 	bic.w	r3, r3, #1020	@ 0x3fc
 800308e:	f023 0303 	bic.w	r3, r3, #3
 8003092:	1d1a      	adds	r2, r3, #4
 8003094:	687b      	ldr	r3, [r7, #4]
 8003096:	659a      	str	r2, [r3, #88]	@ 0x58
 8003098:	e007      	b.n	80030aa <DMA_CalcBaseAndBitshift+0x52>
  }
  else
  {
    /* return pointer to LISR and LIFCR */
    hdma->StreamBaseAddress = ((uint32_t)hdma->Instance & (uint32_t)(~0x3FFU));
 800309a:	687b      	ldr	r3, [r7, #4]
 800309c:	681b      	ldr	r3, [r3, #0]
 800309e:	f423 737f 	bic.w	r3, r3, #1020	@ 0x3fc
 80030a2:	f023 0303 	bic.w	r3, r3, #3
 80030a6:	687a      	ldr	r2, [r7, #4]
 80030a8:	6593      	str	r3, [r2, #88]	@ 0x58
  }
  
  return hdma->StreamBaseAddress;
 80030aa:	687b      	ldr	r3, [r7, #4]
 80030ac:	6d9b      	ldr	r3, [r3, #88]	@ 0x58
}
 80030ae:	4618      	mov	r0, r3
 80030b0:	3714      	adds	r7, #20
 80030b2:	46bd      	mov	sp, r7
 80030b4:	f85d 7b04 	ldr.w	r7, [sp], #4
 80030b8:	4770      	bx	lr
 80030ba:	bf00      	nop
 80030bc:	aaaaaaab 	.word	0xaaaaaaab
 80030c0:	08006de8 	.word	0x08006de8

080030c4 <DMA_CheckFifoParam>:
  * @param  hdma       pointer to a DMA_HandleTypeDef structure that contains
  *                     the configuration information for the specified DMA Stream. 
  * @retval HAL status
  */
static HAL_StatusTypeDef DMA_CheckFifoParam(DMA_HandleTypeDef *hdma)
{
 80030c4:	b480      	push	{r7}
 80030c6:	b085      	sub	sp, #20
 80030c8:	af00      	add	r7, sp, #0
 80030ca:	6078      	str	r0, [r7, #4]
  HAL_StatusTypeDef status = HAL_OK;
 80030cc:	2300      	movs	r3, #0
 80030ce:	73fb      	strb	r3, [r7, #15]
  uint32_t tmp = hdma->Init.FIFOThreshold;
 80030d0:	687b      	ldr	r3, [r7, #4]
 80030d2:	6a9b      	ldr	r3, [r3, #40]	@ 0x28
 80030d4:	60bb      	str	r3, [r7, #8]
  
  /* Memory Data size equal to Byte */
  if(hdma->Init.MemDataAlignment == DMA_MDATAALIGN_BYTE)
 80030d6:	687b      	ldr	r3, [r7, #4]
 80030d8:	699b      	ldr	r3, [r3, #24]
 80030da:	2b00      	cmp	r3, #0
 80030dc:	d11f      	bne.n	800311e <DMA_CheckFifoParam+0x5a>
  {
    switch (tmp)
 80030de:	68bb      	ldr	r3, [r7, #8]
 80030e0:	2b03      	cmp	r3, #3
 80030e2:	d856      	bhi.n	8003192 <DMA_CheckFifoParam+0xce>
 80030e4:	a201      	add	r2, pc, #4	@ (adr r2, 80030ec <DMA_CheckFifoParam+0x28>)
 80030e6:	f852 f023 	ldr.w	pc, [r2, r3, lsl #2]
 80030ea:	bf00      	nop
 80030ec:	080030fd 	.word	0x080030fd
 80030f0:	0800310f 	.word	0x0800310f
 80030f4:	080030fd 	.word	0x080030fd
 80030f8:	08003193 	.word	0x08003193
    {
    case DMA_FIFO_THRESHOLD_1QUARTERFULL:
    case DMA_FIFO_THRESHOLD_3QUARTERSFULL:
      if ((hdma->Init.MemBurst & DMA_SxCR_MBURST_1) == DMA_SxCR_MBURST_1)
 80030fc:	687b      	ldr	r3, [r7, #4]
 80030fe:	6adb      	ldr	r3, [r3, #44]	@ 0x2c
 8003100:	f003 7380 	and.w	r3, r3, #16777216	@ 0x1000000
 8003104:	2b00      	cmp	r3, #0
 8003106:	d046      	beq.n	8003196 <DMA_CheckFifoParam+0xd2>
      {
        status = HAL_ERROR;
 8003108:	2301      	movs	r3, #1
 800310a:	73fb      	strb	r3, [r7, #15]
      }
      break;
 800310c:	e043      	b.n	8003196 <DMA_CheckFifoParam+0xd2>
    case DMA_FIFO_THRESHOLD_HALFFULL:
      if (hdma->Init.MemBurst == DMA_MBURST_INC16)
 800310e:	687b      	ldr	r3, [r7, #4]
 8003110:	6adb      	ldr	r3, [r3, #44]	@ 0x2c
 8003112:	f1b3 7fc0 	cmp.w	r3, #25165824	@ 0x1800000
 8003116:	d140      	bne.n	800319a <DMA_CheckFifoParam+0xd6>
      {
        status = HAL_ERROR;
 8003118:	2301      	movs	r3, #1
 800311a:	73fb      	strb	r3, [r7, #15]
      }
      break;
 800311c:	e03d      	b.n	800319a <DMA_CheckFifoParam+0xd6>
      break;
    }
  }
  
  /* Memory Data size equal to Half-Word */
  else if (hdma->Init.MemDataAlignment == DMA_MDATAALIGN_HALFWORD)
 800311e:	687b      	ldr	r3, [r7, #4]
 8003120:	699b      	ldr	r3, [r3, #24]
 8003122:	f5b3 5f00 	cmp.w	r3, #8192	@ 0x2000
 8003126:	d121      	bne.n	800316c <DMA_CheckFifoParam+0xa8>
  {
    switch (tmp)
 8003128:	68bb      	ldr	r3, [r7, #8]
 800312a:	2b03      	cmp	r3, #3
 800312c:	d837      	bhi.n	800319e <DMA_CheckFifoParam+0xda>
 800312e:	a201      	add	r2, pc, #4	@ (adr r2, 8003134 <DMA_CheckFifoParam+0x70>)
 8003130:	f852 f023 	ldr.w	pc, [r2, r3, lsl #2]
 8003134:	08003145 	.word	0x08003145
 8003138:	0800314b 	.word	0x0800314b
 800313c:	08003145 	.word	0x08003145
 8003140:	0800315d 	.word	0x0800315d
    {
    case DMA_FIFO_THRESHOLD_1QUARTERFULL:
    case DMA_FIFO_THRESHOLD_3QUARTERSFULL:
      status = HAL_ERROR;
 8003144:	2301      	movs	r3, #1
 8003146:	73fb      	strb	r3, [r7, #15]
      break;
 8003148:	e030      	b.n	80031ac <DMA_CheckFifoParam+0xe8>
    case DMA_FIFO_THRESHOLD_HALFFULL:
      if ((hdma->Init.MemBurst & DMA_SxCR_MBURST_1) == DMA_SxCR_MBURST_1)
 800314a:	687b      	ldr	r3, [r7, #4]
 800314c:	6adb      	ldr	r3, [r3, #44]	@ 0x2c
 800314e:	f003 7380 	and.w	r3, r3, #16777216	@ 0x1000000
 8003152:	2b00      	cmp	r3, #0
 8003154:	d025      	beq.n	80031a2 <DMA_CheckFifoParam+0xde>
      {
        status = HAL_ERROR;
 8003156:	2301      	movs	r3, #1
 8003158:	73fb      	strb	r3, [r7, #15]
      }
      break;
 800315a:	e022      	b.n	80031a2 <DMA_CheckFifoParam+0xde>
    case DMA_FIFO_THRESHOLD_FULL:
      if (hdma->Init.MemBurst == DMA_MBURST_INC16)
 800315c:	687b      	ldr	r3, [r7, #4]
 800315e:	6adb      	ldr	r3, [r3, #44]	@ 0x2c
 8003160:	f1b3 7fc0 	cmp.w	r3, #25165824	@ 0x1800000
 8003164:	d11f      	bne.n	80031a6 <DMA_CheckFifoParam+0xe2>
      {
        status = HAL_ERROR;
 8003166:	2301      	movs	r3, #1
 8003168:	73fb      	strb	r3, [r7, #15]
      }
      break;   
 800316a:	e01c      	b.n	80031a6 <DMA_CheckFifoParam+0xe2>
  }
  
  /* Memory Data size equal to Word */
  else
  {
    switch (tmp)
 800316c:	68bb      	ldr	r3, [r7, #8]
 800316e:	2b02      	cmp	r3, #2
 8003170:	d903      	bls.n	800317a <DMA_CheckFifoParam+0xb6>
 8003172:	68bb      	ldr	r3, [r7, #8]
 8003174:	2b03      	cmp	r3, #3
 8003176:	d003      	beq.n	8003180 <DMA_CheckFifoParam+0xbc>
      {
        status = HAL_ERROR;
      }
      break;
    default:
      break;
 8003178:	e018      	b.n	80031ac <DMA_CheckFifoParam+0xe8>
      status = HAL_ERROR;
 800317a:	2301      	movs	r3, #1
 800317c:	73fb      	strb	r3, [r7, #15]
      break;
 800317e:	e015      	b.n	80031ac <DMA_CheckFifoParam+0xe8>
      if ((hdma->Init.MemBurst & DMA_SxCR_MBURST_1) == DMA_SxCR_MBURST_1)
 8003180:	687b      	ldr	r3, [r7, #4]
 8003182:	6adb      	ldr	r3, [r3, #44]	@ 0x2c
 8003184:	f003 7380 	and.w	r3, r3, #16777216	@ 0x1000000
 8003188:	2b00      	cmp	r3, #0
 800318a:	d00e      	beq.n	80031aa <DMA_CheckFifoParam+0xe6>
        status = HAL_ERROR;
 800318c:	2301      	movs	r3, #1
 800318e:	73fb      	strb	r3, [r7, #15]
      break;
 8003190:	e00b      	b.n	80031aa <DMA_CheckFifoParam+0xe6>
      break;
 8003192:	bf00      	nop
 8003194:	e00a      	b.n	80031ac <DMA_CheckFifoParam+0xe8>
      break;
 8003196:	bf00      	nop
 8003198:	e008      	b.n	80031ac <DMA_CheckFifoParam+0xe8>
      break;
 800319a:	bf00      	nop
 800319c:	e006      	b.n	80031ac <DMA_CheckFifoParam+0xe8>
      break;
 800319e:	bf00      	nop
 80031a0:	e004      	b.n	80031ac <DMA_CheckFifoParam+0xe8>
      break;
 80031a2:	bf00      	nop
 80031a4:	e002      	b.n	80031ac <DMA_CheckFifoParam+0xe8>
      break;   
 80031a6:	bf00      	nop
 80031a8:	e000      	b.n	80031ac <DMA_CheckFifoParam+0xe8>
      break;
 80031aa:	bf00      	nop
    }
  } 
  
  return status; 
 80031ac:	7bfb      	ldrb	r3, [r7, #15]
}
 80031ae:	4618      	mov	r0, r3
 80031b0:	3714      	adds	r7, #20
 80031b2:	46bd      	mov	sp, r7
 80031b4:	f85d 7b04 	ldr.w	r7, [sp], #4
 80031b8:	4770      	bx	lr
 80031ba:	bf00      	nop

080031bc <HAL_GPIO_Init>:
  * @param  GPIO_Init pointer to a GPIO_InitTypeDef structure that contains
  *         the configuration information for the specified GPIO peripheral.
  * @retval None
  */
void HAL_GPIO_Init(GPIO_TypeDef  *GPIOx, GPIO_InitTypeDef *GPIO_Init)
{
 80031bc:	b480      	push	{r7}
 80031be:	b089      	sub	sp, #36	@ 0x24
 80031c0:	af00      	add	r7, sp, #0
 80031c2:	6078      	str	r0, [r7, #4]
 80031c4:	6039      	str	r1, [r7, #0]
  uint32_t position;
  uint32_t ioposition = 0x00U;
 80031c6:	2300      	movs	r3, #0
 80031c8:	617b      	str	r3, [r7, #20]
  uint32_t iocurrent = 0x00U;
 80031ca:	2300      	movs	r3, #0
 80031cc:	613b      	str	r3, [r7, #16]
  uint32_t temp = 0x00U;
 80031ce:	2300      	movs	r3, #0
 80031d0:	61bb      	str	r3, [r7, #24]
  assert_param(IS_GPIO_ALL_INSTANCE(GPIOx));
  assert_param(IS_GPIO_PIN(GPIO_Init->Pin));
  assert_param(IS_GPIO_MODE(GPIO_Init->Mode));

  /* Configure the port pins */
  for(position = 0U; position < GPIO_NUMBER; position++)
 80031d2:	2300      	movs	r3, #0
 80031d4:	61fb      	str	r3, [r7, #28]
 80031d6:	e16b      	b.n	80034b0 <HAL_GPIO_Init+0x2f4>
  {
    /* Get the IO position */
    ioposition = 0x01U << position;
 80031d8:	2201      	movs	r2, #1
 80031da:	69fb      	ldr	r3, [r7, #28]
 80031dc:	fa02 f303 	lsl.w	r3, r2, r3
 80031e0:	617b      	str	r3, [r7, #20]
    /* Get the current IO position */
    iocurrent = (uint32_t)(GPIO_Init->Pin) & ioposition;
 80031e2:	683b      	ldr	r3, [r7, #0]
 80031e4:	681b      	ldr	r3, [r3, #0]
 80031e6:	697a      	ldr	r2, [r7, #20]
 80031e8:	4013      	ands	r3, r2
 80031ea:	613b      	str	r3, [r7, #16]

    if(iocurrent == ioposition)
 80031ec:	693a      	ldr	r2, [r7, #16]
 80031ee:	697b      	ldr	r3, [r7, #20]
 80031f0:	429a      	cmp	r2, r3
 80031f2:	f040 815a 	bne.w	80034aa <HAL_GPIO_Init+0x2ee>
    {
      /*--------------------- GPIO Mode Configuration ------------------------*/
      /* In case of Output or Alternate function mode selection */
      if(((GPIO_Init->Mode & GPIO_MODE) == MODE_OUTPUT) || \
 80031f6:	683b      	ldr	r3, [r7, #0]
 80031f8:	685b      	ldr	r3, [r3, #4]
 80031fa:	f003 0303 	and.w	r3, r3, #3
 80031fe:	2b01      	cmp	r3, #1
 8003200:	d005      	beq.n	800320e <HAL_GPIO_Init+0x52>
          (GPIO_Init->Mode & GPIO_MODE) == MODE_AF)
 8003202:	683b      	ldr	r3, [r7, #0]
 8003204:	685b      	ldr	r3, [r3, #4]
 8003206:	f003 0303 	and.w	r3, r3, #3
      if(((GPIO_Init->Mode & GPIO_MODE) == MODE_OUTPUT) || \
 800320a:	2b02      	cmp	r3, #2
 800320c:	d130      	bne.n	8003270 <HAL_GPIO_Init+0xb4>
      {
        /* Check the Speed parameter */
        assert_param(IS_GPIO_SPEED(GPIO_Init->Speed));
        /* Configure the IO Speed */
        temp = GPIOx->OSPEEDR; 
 800320e:	687b      	ldr	r3, [r7, #4]
 8003210:	689b      	ldr	r3, [r3, #8]
 8003212:	61bb      	str	r3, [r7, #24]
        temp &= ~(GPIO_OSPEEDER_OSPEEDR0 << (position * 2U));
 8003214:	69fb      	ldr	r3, [r7, #28]
 8003216:	005b      	lsls	r3, r3, #1
 8003218:	2203      	movs	r2, #3
 800321a:	fa02 f303 	lsl.w	r3, r2, r3
 800321e:	43db      	mvns	r3, r3
 8003220:	69ba      	ldr	r2, [r7, #24]
 8003222:	4013      	ands	r3, r2
 8003224:	61bb      	str	r3, [r7, #24]
        temp |= (GPIO_Init->Speed << (position * 2U));
 8003226:	683b      	ldr	r3, [r7, #0]
 8003228:	68da      	ldr	r2, [r3, #12]
 800322a:	69fb      	ldr	r3, [r7, #28]
 800322c:	005b      	lsls	r3, r3, #1
 800322e:	fa02 f303 	lsl.w	r3, r2, r3
 8003232:	69ba      	ldr	r2, [r7, #24]
 8003234:	4313      	orrs	r3, r2
 8003236:	61bb      	str	r3, [r7, #24]
        GPIOx->OSPEEDR = temp;
 8003238:	687b      	ldr	r3, [r7, #4]
 800323a:	69ba      	ldr	r2, [r7, #24]
 800323c:	609a      	str	r2, [r3, #8]

        /* Configure the IO Output Type */
        temp = GPIOx->OTYPER;
 800323e:	687b      	ldr	r3, [r7, #4]
 8003240:	685b      	ldr	r3, [r3, #4]
 8003242:	61bb      	str	r3, [r7, #24]
        temp &= ~(GPIO_OTYPER_OT_0 << position) ;
 8003244:	2201      	movs	r2, #1
 8003246:	69fb      	ldr	r3, [r7, #28]
 8003248:	fa02 f303 	lsl.w	r3, r2, r3
 800324c:	43db      	mvns	r3, r3
 800324e:	69ba      	ldr	r2, [r7, #24]
 8003250:	4013      	ands	r3, r2
 8003252:	61bb      	str	r3, [r7, #24]
        temp |= (((GPIO_Init->Mode & OUTPUT_TYPE) >> OUTPUT_TYPE_Pos) << position);
 8003254:	683b      	ldr	r3, [r7, #0]
 8003256:	685b      	ldr	r3, [r3, #4]
 8003258:	091b      	lsrs	r3, r3, #4
 800325a:	f003 0201 	and.w	r2, r3, #1
 800325e:	69fb      	ldr	r3, [r7, #28]
 8003260:	fa02 f303 	lsl.w	r3, r2, r3
 8003264:	69ba      	ldr	r2, [r7, #24]
 8003266:	4313      	orrs	r3, r2
 8003268:	61bb      	str	r3, [r7, #24]
        GPIOx->OTYPER = temp;
 800326a:	687b      	ldr	r3, [r7, #4]
 800326c:	69ba      	ldr	r2, [r7, #24]
 800326e:	605a      	str	r2, [r3, #4]
       }

      if((GPIO_Init->Mode & GPIO_MODE) != MODE_ANALOG)
 8003270:	683b      	ldr	r3, [r7, #0]
 8003272:	685b      	ldr	r3, [r3, #4]
 8003274:	f003 0303 	and.w	r3, r3, #3
 8003278:	2b03      	cmp	r3, #3
 800327a:	d017      	beq.n	80032ac <HAL_GPIO_Init+0xf0>
      {
        /* Check the parameters */
        assert_param(IS_GPIO_PULL(GPIO_Init->Pull));
        
        /* Activate the Pull-up or Pull down resistor for the current IO */
        temp = GPIOx->PUPDR;
 800327c:	687b      	ldr	r3, [r7, #4]
 800327e:	68db      	ldr	r3, [r3, #12]
 8003280:	61bb      	str	r3, [r7, #24]
        temp &= ~(GPIO_PUPDR_PUPDR0 << (position * 2U));
 8003282:	69fb      	ldr	r3, [r7, #28]
 8003284:	005b      	lsls	r3, r3, #1
 8003286:	2203      	movs	r2, #3
 8003288:	fa02 f303 	lsl.w	r3, r2, r3
 800328c:	43db      	mvns	r3, r3
 800328e:	69ba      	ldr	r2, [r7, #24]
 8003290:	4013      	ands	r3, r2
 8003292:	61bb      	str	r3, [r7, #24]
        temp |= ((GPIO_Init->Pull) << (position * 2U));
 8003294:	683b      	ldr	r3, [r7, #0]
 8003296:	689a      	ldr	r2, [r3, #8]
 8003298:	69fb      	ldr	r3, [r7, #28]
 800329a:	005b      	lsls	r3, r3, #1
 800329c:	fa02 f303 	lsl.w	r3, r2, r3
 80032a0:	69ba      	ldr	r2, [r7, #24]
 80032a2:	4313      	orrs	r3, r2
 80032a4:	61bb      	str	r3, [r7, #24]
        GPIOx->PUPDR = temp;
 80032a6:	687b      	ldr	r3, [r7, #4]
 80032a8:	69ba      	ldr	r2, [r7, #24]
 80032aa:	60da      	str	r2, [r3, #12]
      }

      /* In case of Alternate function mode selection */
      if((GPIO_Init->Mode & GPIO_MODE) == MODE_AF)
 80032ac:	683b      	ldr	r3, [r7, #0]
 80032ae:	685b      	ldr	r3, [r3, #4]
 80032b0:	f003 0303 	and.w	r3, r3, #3
 80032b4:	2b02      	cmp	r3, #2
 80032b6:	d123      	bne.n	8003300 <HAL_GPIO_Init+0x144>
      {
        /* Check the Alternate function parameter */
        assert_param(IS_GPIO_AF(GPIO_Init->Alternate));
        /* Configure Alternate function mapped with the current IO */
        temp = GPIOx->AFR[position >> 3U];
 80032b8:	69fb      	ldr	r3, [r7, #28]
 80032ba:	08da      	lsrs	r2, r3, #3
 80032bc:	687b      	ldr	r3, [r7, #4]
 80032be:	3208      	adds	r2, #8
 80032c0:	f853 3022 	ldr.w	r3, [r3, r2, lsl #2]
 80032c4:	61bb      	str	r3, [r7, #24]
        temp &= ~(0xFU << ((uint32_t)(position & 0x07U) * 4U)) ;
 80032c6:	69fb      	ldr	r3, [r7, #28]
 80032c8:	f003 0307 	and.w	r3, r3, #7
 80032cc:	009b      	lsls	r3, r3, #2
 80032ce:	220f      	movs	r2, #15
 80032d0:	fa02 f303 	lsl.w	r3, r2, r3
 80032d4:	43db      	mvns	r3, r3
 80032d6:	69ba      	ldr	r2, [r7, #24]
 80032d8:	4013      	ands	r3, r2
 80032da:	61bb      	str	r3, [r7, #24]
        temp |= ((uint32_t)(GPIO_Init->Alternate) << (((uint32_t)position & 0x07U) * 4U));
 80032dc:	683b      	ldr	r3, [r7, #0]
 80032de:	691a      	ldr	r2, [r3, #16]
 80032e0:	69fb      	ldr	r3, [r7, #28]
 80032e2:	f003 0307 	and.w	r3, r3, #7
 80032e6:	009b      	lsls	r3, r3, #2
 80032e8:	fa02 f303 	lsl.w	r3, r2, r3
 80032ec:	69ba      	ldr	r2, [r7, #24]
 80032ee:	4313      	orrs	r3, r2
 80032f0:	61bb      	str	r3, [r7, #24]
        GPIOx->AFR[position >> 3U] = temp;
 80032f2:	69fb      	ldr	r3, [r7, #28]
 80032f4:	08da      	lsrs	r2, r3, #3
 80032f6:	687b      	ldr	r3, [r7, #4]
 80032f8:	3208      	adds	r2, #8
 80032fa:	69b9      	ldr	r1, [r7, #24]
 80032fc:	f843 1022 	str.w	r1, [r3, r2, lsl #2]
      }

      /* Configure IO Direction mode (Input, Output, Alternate or Analog) */
      temp = GPIOx->MODER;
 8003300:	687b      	ldr	r3, [r7, #4]
 8003302:	681b      	ldr	r3, [r3, #0]
 8003304:	61bb      	str	r3, [r7, #24]
      temp &= ~(GPIO_MODER_MODER0 << (position * 2U));
 8003306:	69fb      	ldr	r3, [r7, #28]
 8003308:	005b      	lsls	r3, r3, #1
 800330a:	2203      	movs	r2, #3
 800330c:	fa02 f303 	lsl.w	r3, r2, r3
 8003310:	43db      	mvns	r3, r3
 8003312:	69ba      	ldr	r2, [r7, #24]
 8003314:	4013      	ands	r3, r2
 8003316:	61bb      	str	r3, [r7, #24]
      temp |= ((GPIO_Init->Mode & GPIO_MODE) << (position * 2U));
 8003318:	683b      	ldr	r3, [r7, #0]
 800331a:	685b      	ldr	r3, [r3, #4]
 800331c:	f003 0203 	and.w	r2, r3, #3
 8003320:	69fb      	ldr	r3, [r7, #28]
 8003322:	005b      	lsls	r3, r3, #1
 8003324:	fa02 f303 	lsl.w	r3, r2, r3
 8003328:	69ba      	ldr	r2, [r7, #24]
 800332a:	4313      	orrs	r3, r2
 800332c:	61bb      	str	r3, [r7, #24]
      GPIOx->MODER = temp;
 800332e:	687b      	ldr	r3, [r7, #4]
 8003330:	69ba      	ldr	r2, [r7, #24]
 8003332:	601a      	str	r2, [r3, #0]

      /*--------------------- EXTI Mode Configuration ------------------------*/
      /* Configure the External Interrupt or event for the current IO */
      if((GPIO_Init->Mode & EXTI_MODE) != 0x00U)
 8003334:	683b      	ldr	r3, [r7, #0]
 8003336:	685b      	ldr	r3, [r3, #4]
 8003338:	f403 3340 	and.w	r3, r3, #196608	@ 0x30000
 800333c:	2b00      	cmp	r3, #0
 800333e:	f000 80b4 	beq.w	80034aa <HAL_GPIO_Init+0x2ee>
      {
        /* Enable SYSCFG Clock */
        __HAL_RCC_SYSCFG_CLK_ENABLE();
 8003342:	2300      	movs	r3, #0
 8003344:	60fb      	str	r3, [r7, #12]
 8003346:	4b60      	ldr	r3, [pc, #384]	@ (80034c8 <HAL_GPIO_Init+0x30c>)
 8003348:	6c5b      	ldr	r3, [r3, #68]	@ 0x44
 800334a:	4a5f      	ldr	r2, [pc, #380]	@ (80034c8 <HAL_GPIO_Init+0x30c>)
 800334c:	f443 4380 	orr.w	r3, r3, #16384	@ 0x4000
 8003350:	6453      	str	r3, [r2, #68]	@ 0x44
 8003352:	4b5d      	ldr	r3, [pc, #372]	@ (80034c8 <HAL_GPIO_Init+0x30c>)
 8003354:	6c5b      	ldr	r3, [r3, #68]	@ 0x44
 8003356:	f403 4380 	and.w	r3, r3, #16384	@ 0x4000
 800335a:	60fb      	str	r3, [r7, #12]
 800335c:	68fb      	ldr	r3, [r7, #12]

        temp = SYSCFG->EXTICR[position >> 2U];
 800335e:	4a5b      	ldr	r2, [pc, #364]	@ (80034cc <HAL_GPIO_Init+0x310>)
 8003360:	69fb      	ldr	r3, [r7, #28]
 8003362:	089b      	lsrs	r3, r3, #2
 8003364:	3302      	adds	r3, #2
 8003366:	f852 3023 	ldr.w	r3, [r2, r3, lsl #2]
 800336a:	61bb      	str	r3, [r7, #24]
        temp &= ~(0x0FU << (4U * (position & 0x03U)));
 800336c:	69fb      	ldr	r3, [r7, #28]
 800336e:	f003 0303 	and.w	r3, r3, #3
 8003372:	009b      	lsls	r3, r3, #2
 8003374:	220f      	movs	r2, #15
 8003376:	fa02 f303 	lsl.w	r3, r2, r3
 800337a:	43db      	mvns	r3, r3
 800337c:	69ba      	ldr	r2, [r7, #24]
 800337e:	4013      	ands	r3, r2
 8003380:	61bb      	str	r3, [r7, #24]
        temp |= ((uint32_t)(GPIO_GET_INDEX(GPIOx)) << (4U * (position & 0x03U)));
 8003382:	687b      	ldr	r3, [r7, #4]
 8003384:	4a52      	ldr	r2, [pc, #328]	@ (80034d0 <HAL_GPIO_Init+0x314>)
 8003386:	4293      	cmp	r3, r2
 8003388:	d02b      	beq.n	80033e2 <HAL_GPIO_Init+0x226>
 800338a:	687b      	ldr	r3, [r7, #4]
 800338c:	4a51      	ldr	r2, [pc, #324]	@ (80034d4 <HAL_GPIO_Init+0x318>)
 800338e:	4293      	cmp	r3, r2
 8003390:	d025      	beq.n	80033de <HAL_GPIO_Init+0x222>
 8003392:	687b      	ldr	r3, [r7, #4]
 8003394:	4a50      	ldr	r2, [pc, #320]	@ (80034d8 <HAL_GPIO_Init+0x31c>)
 8003396:	4293      	cmp	r3, r2
 8003398:	d01f      	beq.n	80033da <HAL_GPIO_Init+0x21e>
 800339a:	687b      	ldr	r3, [r7, #4]
 800339c:	4a4f      	ldr	r2, [pc, #316]	@ (80034dc <HAL_GPIO_Init+0x320>)
 800339e:	4293      	cmp	r3, r2
 80033a0:	d019      	beq.n	80033d6 <HAL_GPIO_Init+0x21a>
 80033a2:	687b      	ldr	r3, [r7, #4]
 80033a4:	4a4e      	ldr	r2, [pc, #312]	@ (80034e0 <HAL_GPIO_Init+0x324>)
 80033a6:	4293      	cmp	r3, r2
 80033a8:	d013      	beq.n	80033d2 <HAL_GPIO_Init+0x216>
 80033aa:	687b      	ldr	r3, [r7, #4]
 80033ac:	4a4d      	ldr	r2, [pc, #308]	@ (80034e4 <HAL_GPIO_Init+0x328>)
 80033ae:	4293      	cmp	r3, r2
 80033b0:	d00d      	beq.n	80033ce <HAL_GPIO_Init+0x212>
 80033b2:	687b      	ldr	r3, [r7, #4]
 80033b4:	4a4c      	ldr	r2, [pc, #304]	@ (80034e8 <HAL_GPIO_Init+0x32c>)
 80033b6:	4293      	cmp	r3, r2
 80033b8:	d007      	beq.n	80033ca <HAL_GPIO_Init+0x20e>
 80033ba:	687b      	ldr	r3, [r7, #4]
 80033bc:	4a4b      	ldr	r2, [pc, #300]	@ (80034ec <HAL_GPIO_Init+0x330>)
 80033be:	4293      	cmp	r3, r2
 80033c0:	d101      	bne.n	80033c6 <HAL_GPIO_Init+0x20a>
 80033c2:	2307      	movs	r3, #7
 80033c4:	e00e      	b.n	80033e4 <HAL_GPIO_Init+0x228>
 80033c6:	2308      	movs	r3, #8
 80033c8:	e00c      	b.n	80033e4 <HAL_GPIO_Init+0x228>
 80033ca:	2306      	movs	r3, #6
 80033cc:	e00a      	b.n	80033e4 <HAL_GPIO_Init+0x228>
 80033ce:	2305      	movs	r3, #5
 80033d0:	e008      	b.n	80033e4 <HAL_GPIO_Init+0x228>
 80033d2:	2304      	movs	r3, #4
 80033d4:	e006      	b.n	80033e4 <HAL_GPIO_Init+0x228>
 80033d6:	2303      	movs	r3, #3
 80033d8:	e004      	b.n	80033e4 <HAL_GPIO_Init+0x228>
 80033da:	2302      	movs	r3, #2
 80033dc:	e002      	b.n	80033e4 <HAL_GPIO_Init+0x228>
 80033de:	2301      	movs	r3, #1
 80033e0:	e000      	b.n	80033e4 <HAL_GPIO_Init+0x228>
 80033e2:	2300      	movs	r3, #0
 80033e4:	69fa      	ldr	r2, [r7, #28]
 80033e6:	f002 0203 	and.w	r2, r2, #3
 80033ea:	0092      	lsls	r2, r2, #2
 80033ec:	4093      	lsls	r3, r2
 80033ee:	69ba      	ldr	r2, [r7, #24]
 80033f0:	4313      	orrs	r3, r2
 80033f2:	61bb      	str	r3, [r7, #24]
        SYSCFG->EXTICR[position >> 2U] = temp;
 80033f4:	4935      	ldr	r1, [pc, #212]	@ (80034cc <HAL_GPIO_Init+0x310>)
 80033f6:	69fb      	ldr	r3, [r7, #28]
 80033f8:	089b      	lsrs	r3, r3, #2
 80033fa:	3302      	adds	r3, #2
 80033fc:	69ba      	ldr	r2, [r7, #24]
 80033fe:	f841 2023 	str.w	r2, [r1, r3, lsl #2]

        /* Clear Rising Falling edge configuration */
        temp = EXTI->RTSR;
 8003402:	4b3b      	ldr	r3, [pc, #236]	@ (80034f0 <HAL_GPIO_Init+0x334>)
 8003404:	689b      	ldr	r3, [r3, #8]
 8003406:	61bb      	str	r3, [r7, #24]
        temp &= ~((uint32_t)iocurrent);
 8003408:	693b      	ldr	r3, [r7, #16]
 800340a:	43db      	mvns	r3, r3
 800340c:	69ba      	ldr	r2, [r7, #24]
 800340e:	4013      	ands	r3, r2
 8003410:	61bb      	str	r3, [r7, #24]
        if((GPIO_Init->Mode & TRIGGER_RISING) != 0x00U)
 8003412:	683b      	ldr	r3, [r7, #0]
 8003414:	685b      	ldr	r3, [r3, #4]
 8003416:	f403 1380 	and.w	r3, r3, #1048576	@ 0x100000
 800341a:	2b00      	cmp	r3, #0
 800341c:	d003      	beq.n	8003426 <HAL_GPIO_Init+0x26a>
        {
          temp |= iocurrent;
 800341e:	69ba      	ldr	r2, [r7, #24]
 8003420:	693b      	ldr	r3, [r7, #16]
 8003422:	4313      	orrs	r3, r2
 8003424:	61bb      	str	r3, [r7, #24]
        }
        EXTI->RTSR = temp;
 8003426:	4a32      	ldr	r2, [pc, #200]	@ (80034f0 <HAL_GPIO_Init+0x334>)
 8003428:	69bb      	ldr	r3, [r7, #24]
 800342a:	6093      	str	r3, [r2, #8]

        temp = EXTI->FTSR;
 800342c:	4b30      	ldr	r3, [pc, #192]	@ (80034f0 <HAL_GPIO_Init+0x334>)
 800342e:	68db      	ldr	r3, [r3, #12]
 8003430:	61bb      	str	r3, [r7, #24]
        temp &= ~((uint32_t)iocurrent);
 8003432:	693b      	ldr	r3, [r7, #16]
 8003434:	43db      	mvns	r3, r3
 8003436:	69ba      	ldr	r2, [r7, #24]
 8003438:	4013      	ands	r3, r2
 800343a:	61bb      	str	r3, [r7, #24]
        if((GPIO_Init->Mode & TRIGGER_FALLING) != 0x00U)
 800343c:	683b      	ldr	r3, [r7, #0]
 800343e:	685b      	ldr	r3, [r3, #4]
 8003440:	f403 1300 	and.w	r3, r3, #2097152	@ 0x200000
 8003444:	2b00      	cmp	r3, #0
 8003446:	d003      	beq.n	8003450 <HAL_GPIO_Init+0x294>
        {
          temp |= iocurrent;
 8003448:	69ba      	ldr	r2, [r7, #24]
 800344a:	693b      	ldr	r3, [r7, #16]
 800344c:	4313      	orrs	r3, r2
 800344e:	61bb      	str	r3, [r7, #24]
        }
        EXTI->FTSR = temp;
 8003450:	4a27      	ldr	r2, [pc, #156]	@ (80034f0 <HAL_GPIO_Init+0x334>)
 8003452:	69bb      	ldr	r3, [r7, #24]
 8003454:	60d3      	str	r3, [r2, #12]

        temp = EXTI->EMR;
 8003456:	4b26      	ldr	r3, [pc, #152]	@ (80034f0 <HAL_GPIO_Init+0x334>)
 8003458:	685b      	ldr	r3, [r3, #4]
 800345a:	61bb      	str	r3, [r7, #24]
        temp &= ~((uint32_t)iocurrent);
 800345c:	693b      	ldr	r3, [r7, #16]
 800345e:	43db      	mvns	r3, r3
 8003460:	69ba      	ldr	r2, [r7, #24]
 8003462:	4013      	ands	r3, r2
 8003464:	61bb      	str	r3, [r7, #24]
        if((GPIO_Init->Mode & EXTI_EVT) != 0x00U)
 8003466:	683b      	ldr	r3, [r7, #0]
 8003468:	685b      	ldr	r3, [r3, #4]
 800346a:	f403 3300 	and.w	r3, r3, #131072	@ 0x20000
 800346e:	2b00      	cmp	r3, #0
 8003470:	d003      	beq.n	800347a <HAL_GPIO_Init+0x2be>
        {
          temp |= iocurrent;
 8003472:	69ba      	ldr	r2, [r7, #24]
 8003474:	693b      	ldr	r3, [r7, #16]
 8003476:	4313      	orrs	r3, r2
 8003478:	61bb      	str	r3, [r7, #24]
        }
        EXTI->EMR = temp;
 800347a:	4a1d      	ldr	r2, [pc, #116]	@ (80034f0 <HAL_GPIO_Init+0x334>)
 800347c:	69bb      	ldr	r3, [r7, #24]
 800347e:	6053      	str	r3, [r2, #4]

        /* Clear EXTI line configuration */
        temp = EXTI->IMR;
 8003480:	4b1b      	ldr	r3, [pc, #108]	@ (80034f0 <HAL_GPIO_Init+0x334>)
 8003482:	681b      	ldr	r3, [r3, #0]
 8003484:	61bb      	str	r3, [r7, #24]
        temp &= ~((uint32_t)iocurrent);
 8003486:	693b      	ldr	r3, [r7, #16]
 8003488:	43db      	mvns	r3, r3
 800348a:	69ba      	ldr	r2, [r7, #24]
 800348c:	4013      	ands	r3, r2
 800348e:	61bb      	str	r3, [r7, #24]
        if((GPIO_Init->Mode & EXTI_IT) != 0x00U)
 8003490:	683b      	ldr	r3, [r7, #0]
 8003492:	685b      	ldr	r3, [r3, #4]
 8003494:	f403 3380 	and.w	r3, r3, #65536	@ 0x10000
 8003498:	2b00      	cmp	r3, #0
 800349a:	d003      	beq.n	80034a4 <HAL_GPIO_Init+0x2e8>
        {
          temp |= iocurrent;
 800349c:	69ba      	ldr	r2, [r7, #24]
 800349e:	693b      	ldr	r3, [r7, #16]
 80034a0:	4313      	orrs	r3, r2
 80034a2:	61bb      	str	r3, [r7, #24]
        }
        EXTI->IMR = temp;
 80034a4:	4a12      	ldr	r2, [pc, #72]	@ (80034f0 <HAL_GPIO_Init+0x334>)
 80034a6:	69bb      	ldr	r3, [r7, #24]
 80034a8:	6013      	str	r3, [r2, #0]
  for(position = 0U; position < GPIO_NUMBER; position++)
 80034aa:	69fb      	ldr	r3, [r7, #28]
 80034ac:	3301      	adds	r3, #1
 80034ae:	61fb      	str	r3, [r7, #28]
 80034b0:	69fb      	ldr	r3, [r7, #28]
 80034b2:	2b0f      	cmp	r3, #15
 80034b4:	f67f ae90 	bls.w	80031d8 <HAL_GPIO_Init+0x1c>
      }
    }
  }
}
 80034b8:	bf00      	nop
 80034ba:	bf00      	nop
 80034bc:	3724      	adds	r7, #36	@ 0x24
 80034be:	46bd      	mov	sp, r7
 80034c0:	f85d 7b04 	ldr.w	r7, [sp], #4
 80034c4:	4770      	bx	lr
 80034c6:	bf00      	nop
 80034c8:	40023800 	.word	0x40023800
 80034cc:	40013800 	.word	0x40013800
 80034d0:	40020000 	.word	0x40020000
 80034d4:	40020400 	.word	0x40020400
 80034d8:	40020800 	.word	0x40020800
 80034dc:	40020c00 	.word	0x40020c00
 80034e0:	40021000 	.word	0x40021000
 80034e4:	40021400 	.word	0x40021400
 80034e8:	40021800 	.word	0x40021800
 80034ec:	40021c00 	.word	0x40021c00
 80034f0:	40013c00 	.word	0x40013c00

080034f4 <HAL_GPIO_WritePin>:
  *            @arg GPIO_PIN_RESET: to clear the port pin
  *            @arg GPIO_PIN_SET: to set the port pin
  * @retval None
  */
void HAL_GPIO_WritePin(GPIO_TypeDef* GPIOx, uint16_t GPIO_Pin, GPIO_PinState PinState)
{
 80034f4:	b480      	push	{r7}
 80034f6:	b083      	sub	sp, #12
 80034f8:	af00      	add	r7, sp, #0
 80034fa:	6078      	str	r0, [r7, #4]
 80034fc:	460b      	mov	r3, r1
 80034fe:	807b      	strh	r3, [r7, #2]
 8003500:	4613      	mov	r3, r2
 8003502:	707b      	strb	r3, [r7, #1]
  /* Check the parameters */
  assert_param(IS_GPIO_PIN(GPIO_Pin));
  assert_param(IS_GPIO_PIN_ACTION(PinState));

  if(PinState != GPIO_PIN_RESET)
 8003504:	787b      	ldrb	r3, [r7, #1]
 8003506:	2b00      	cmp	r3, #0
 8003508:	d003      	beq.n	8003512 <HAL_GPIO_WritePin+0x1e>
  {
    GPIOx->BSRR = GPIO_Pin;
 800350a:	887a      	ldrh	r2, [r7, #2]
 800350c:	687b      	ldr	r3, [r7, #4]
 800350e:	619a      	str	r2, [r3, #24]
  }
  else
  {
    GPIOx->BSRR = (uint32_t)GPIO_Pin << 16U;
  }
}
 8003510:	e003      	b.n	800351a <HAL_GPIO_WritePin+0x26>
    GPIOx->BSRR = (uint32_t)GPIO_Pin << 16U;
 8003512:	887b      	ldrh	r3, [r7, #2]
 8003514:	041a      	lsls	r2, r3, #16
 8003516:	687b      	ldr	r3, [r7, #4]
 8003518:	619a      	str	r2, [r3, #24]
}
 800351a:	bf00      	nop
 800351c:	370c      	adds	r7, #12
 800351e:	46bd      	mov	sp, r7
 8003520:	f85d 7b04 	ldr.w	r7, [sp], #4
 8003524:	4770      	bx	lr
	...

08003528 <HAL_GPIO_EXTI_IRQHandler>:
  * @brief  This function handles EXTI interrupt request.
  * @param  GPIO_Pin Specifies the pins connected EXTI line
  * @retval None
  */
void HAL_GPIO_EXTI_IRQHandler(uint16_t GPIO_Pin)
{
 8003528:	b580      	push	{r7, lr}
 800352a:	b082      	sub	sp, #8
 800352c:	af00      	add	r7, sp, #0
 800352e:	4603      	mov	r3, r0
 8003530:	80fb      	strh	r3, [r7, #6]
  /* EXTI line interrupt detected */
  if(__HAL_GPIO_EXTI_GET_IT(GPIO_Pin) != RESET)
 8003532:	4b08      	ldr	r3, [pc, #32]	@ (8003554 <HAL_GPIO_EXTI_IRQHandler+0x2c>)
 8003534:	695a      	ldr	r2, [r3, #20]
 8003536:	88fb      	ldrh	r3, [r7, #6]
 8003538:	4013      	ands	r3, r2
 800353a:	2b00      	cmp	r3, #0
 800353c:	d006      	beq.n	800354c <HAL_GPIO_EXTI_IRQHandler+0x24>
  {
    __HAL_GPIO_EXTI_CLEAR_IT(GPIO_Pin);
 800353e:	4a05      	ldr	r2, [pc, #20]	@ (8003554 <HAL_GPIO_EXTI_IRQHandler+0x2c>)
 8003540:	88fb      	ldrh	r3, [r7, #6]
 8003542:	6153      	str	r3, [r2, #20]
    HAL_GPIO_EXTI_Callback(GPIO_Pin);
 8003544:	88fb      	ldrh	r3, [r7, #6]
 8003546:	4618      	mov	r0, r3
 8003548:	f7fd ff8a 	bl	8001460 <HAL_GPIO_EXTI_Callback>
  }
}
 800354c:	bf00      	nop
 800354e:	3708      	adds	r7, #8
 8003550:	46bd      	mov	sp, r7
 8003552:	bd80      	pop	{r7, pc}
 8003554:	40013c00 	.word	0x40013c00

08003558 <HAL_I2C_Init>:
  * @param  hi2c Pointer to a I2C_HandleTypeDef structure that contains
  *                the configuration information for the specified I2C.
  * @retval HAL status
  */
HAL_StatusTypeDef HAL_I2C_Init(I2C_HandleTypeDef *hi2c)
{
 8003558:	b580      	push	{r7, lr}
 800355a:	b084      	sub	sp, #16
 800355c:	af00      	add	r7, sp, #0
 800355e:	6078      	str	r0, [r7, #4]
  uint32_t freqrange;
  uint32_t pclk1;

  /* Check the I2C handle allocation */
  if (hi2c == NULL)
 8003560:	687b      	ldr	r3, [r7, #4]
 8003562:	2b00      	cmp	r3, #0
 8003564:	d101      	bne.n	800356a <HAL_I2C_Init+0x12>
  {
    return HAL_ERROR;
 8003566:	2301      	movs	r3, #1
 8003568:	e12b      	b.n	80037c2 <HAL_I2C_Init+0x26a>
  assert_param(IS_I2C_DUAL_ADDRESS(hi2c->Init.DualAddressMode));
  assert_param(IS_I2C_OWN_ADDRESS2(hi2c->Init.OwnAddress2));
  assert_param(IS_I2C_GENERAL_CALL(hi2c->Init.GeneralCallMode));
  assert_param(IS_I2C_NO_STRETCH(hi2c->Init.NoStretchMode));

  if (hi2c->State == HAL_I2C_STATE_RESET)
 800356a:	687b      	ldr	r3, [r7, #4]
 800356c:	f893 303d 	ldrb.w	r3, [r3, #61]	@ 0x3d
 8003570:	b2db      	uxtb	r3, r3
 8003572:	2b00      	cmp	r3, #0
 8003574:	d106      	bne.n	8003584 <HAL_I2C_Init+0x2c>
  {
    /* Allocate lock resource and initialize it */
    hi2c->Lock = HAL_UNLOCKED;
 8003576:	687b      	ldr	r3, [r7, #4]
 8003578:	2200      	movs	r2, #0
 800357a:	f883 203c 	strb.w	r2, [r3, #60]	@ 0x3c

    /* Init the low level hardware : GPIO, CLOCK, NVIC */
    hi2c->MspInitCallback(hi2c);
#else
    /* Init the low level hardware : GPIO, CLOCK, NVIC */
    HAL_I2C_MspInit(hi2c);
 800357e:	6878      	ldr	r0, [r7, #4]
 8003580:	f7fe f828 	bl	80015d4 <HAL_I2C_MspInit>
#endif /* USE_HAL_I2C_REGISTER_CALLBACKS */
  }

  hi2c->State = HAL_I2C_STATE_BUSY;
 8003584:	687b      	ldr	r3, [r7, #4]
 8003586:	2224      	movs	r2, #36	@ 0x24
 8003588:	f883 203d 	strb.w	r2, [r3, #61]	@ 0x3d

  /* Disable the selected I2C peripheral */
  __HAL_I2C_DISABLE(hi2c);
 800358c:	687b      	ldr	r3, [r7, #4]
 800358e:	681b      	ldr	r3, [r3, #0]
 8003590:	681a      	ldr	r2, [r3, #0]
 8003592:	687b      	ldr	r3, [r7, #4]
 8003594:	681b      	ldr	r3, [r3, #0]
 8003596:	f022 0201 	bic.w	r2, r2, #1
 800359a:	601a      	str	r2, [r3, #0]

  /*Reset I2C*/
  hi2c->Instance->CR1 |= I2C_CR1_SWRST;
 800359c:	687b      	ldr	r3, [r7, #4]
 800359e:	681b      	ldr	r3, [r3, #0]
 80035a0:	681a      	ldr	r2, [r3, #0]
 80035a2:	687b      	ldr	r3, [r7, #4]
 80035a4:	681b      	ldr	r3, [r3, #0]
 80035a6:	f442 4200 	orr.w	r2, r2, #32768	@ 0x8000
 80035aa:	601a      	str	r2, [r3, #0]
  hi2c->Instance->CR1 &= ~I2C_CR1_SWRST;
 80035ac:	687b      	ldr	r3, [r7, #4]
 80035ae:	681b      	ldr	r3, [r3, #0]
 80035b0:	681a      	ldr	r2, [r3, #0]
 80035b2:	687b      	ldr	r3, [r7, #4]
 80035b4:	681b      	ldr	r3, [r3, #0]
 80035b6:	f422 4200 	bic.w	r2, r2, #32768	@ 0x8000
 80035ba:	601a      	str	r2, [r3, #0]

  /* Get PCLK1 frequency */
  pclk1 = HAL_RCC_GetPCLK1Freq();
 80035bc:	f001 fc60 	bl	8004e80 <HAL_RCC_GetPCLK1Freq>
 80035c0:	60f8      	str	r0, [r7, #12]

  /* Check the minimum allowed PCLK1 frequency */
  if (I2C_MIN_PCLK_FREQ(pclk1, hi2c->Init.ClockSpeed) == 1U)
 80035c2:	687b      	ldr	r3, [r7, #4]
 80035c4:	685b      	ldr	r3, [r3, #4]
 80035c6:	4a81      	ldr	r2, [pc, #516]	@ (80037cc <HAL_I2C_Init+0x274>)
 80035c8:	4293      	cmp	r3, r2
 80035ca:	d807      	bhi.n	80035dc <HAL_I2C_Init+0x84>
 80035cc:	68fb      	ldr	r3, [r7, #12]
 80035ce:	4a80      	ldr	r2, [pc, #512]	@ (80037d0 <HAL_I2C_Init+0x278>)
 80035d0:	4293      	cmp	r3, r2
 80035d2:	bf94      	ite	ls
 80035d4:	2301      	movls	r3, #1
 80035d6:	2300      	movhi	r3, #0
 80035d8:	b2db      	uxtb	r3, r3
 80035da:	e006      	b.n	80035ea <HAL_I2C_Init+0x92>
 80035dc:	68fb      	ldr	r3, [r7, #12]
 80035de:	4a7d      	ldr	r2, [pc, #500]	@ (80037d4 <HAL_I2C_Init+0x27c>)
 80035e0:	4293      	cmp	r3, r2
 80035e2:	bf94      	ite	ls
 80035e4:	2301      	movls	r3, #1
 80035e6:	2300      	movhi	r3, #0
 80035e8:	b2db      	uxtb	r3, r3
 80035ea:	2b00      	cmp	r3, #0
 80035ec:	d001      	beq.n	80035f2 <HAL_I2C_Init+0x9a>
  {
    return HAL_ERROR;
 80035ee:	2301      	movs	r3, #1
 80035f0:	e0e7      	b.n	80037c2 <HAL_I2C_Init+0x26a>
  }

  /* Calculate frequency range */
  freqrange = I2C_FREQRANGE(pclk1);
 80035f2:	68fb      	ldr	r3, [r7, #12]
 80035f4:	4a78      	ldr	r2, [pc, #480]	@ (80037d8 <HAL_I2C_Init+0x280>)
 80035f6:	fba2 2303 	umull	r2, r3, r2, r3
 80035fa:	0c9b      	lsrs	r3, r3, #18
 80035fc:	60bb      	str	r3, [r7, #8]

  /*---------------------------- I2Cx CR2 Configuration ----------------------*/
  /* Configure I2Cx: Frequency range */
  MODIFY_REG(hi2c->Instance->CR2, I2C_CR2_FREQ, freqrange);
 80035fe:	687b      	ldr	r3, [r7, #4]
 8003600:	681b      	ldr	r3, [r3, #0]
 8003602:	685b      	ldr	r3, [r3, #4]
 8003604:	f023 013f 	bic.w	r1, r3, #63	@ 0x3f
 8003608:	687b      	ldr	r3, [r7, #4]
 800360a:	681b      	ldr	r3, [r3, #0]
 800360c:	68ba      	ldr	r2, [r7, #8]
 800360e:	430a      	orrs	r2, r1
 8003610:	605a      	str	r2, [r3, #4]

  /*---------------------------- I2Cx TRISE Configuration --------------------*/
  /* Configure I2Cx: Rise Time */
  MODIFY_REG(hi2c->Instance->TRISE, I2C_TRISE_TRISE, I2C_RISE_TIME(freqrange, hi2c->Init.ClockSpeed));
 8003612:	687b      	ldr	r3, [r7, #4]
 8003614:	681b      	ldr	r3, [r3, #0]
 8003616:	6a1b      	ldr	r3, [r3, #32]
 8003618:	f023 013f 	bic.w	r1, r3, #63	@ 0x3f
 800361c:	687b      	ldr	r3, [r7, #4]
 800361e:	685b      	ldr	r3, [r3, #4]
 8003620:	4a6a      	ldr	r2, [pc, #424]	@ (80037cc <HAL_I2C_Init+0x274>)
 8003622:	4293      	cmp	r3, r2
 8003624:	d802      	bhi.n	800362c <HAL_I2C_Init+0xd4>
 8003626:	68bb      	ldr	r3, [r7, #8]
 8003628:	3301      	adds	r3, #1
 800362a:	e009      	b.n	8003640 <HAL_I2C_Init+0xe8>
 800362c:	68bb      	ldr	r3, [r7, #8]
 800362e:	f44f 7296 	mov.w	r2, #300	@ 0x12c
 8003632:	fb02 f303 	mul.w	r3, r2, r3
 8003636:	4a69      	ldr	r2, [pc, #420]	@ (80037dc <HAL_I2C_Init+0x284>)
 8003638:	fba2 2303 	umull	r2, r3, r2, r3
 800363c:	099b      	lsrs	r3, r3, #6
 800363e:	3301      	adds	r3, #1
 8003640:	687a      	ldr	r2, [r7, #4]
 8003642:	6812      	ldr	r2, [r2, #0]
 8003644:	430b      	orrs	r3, r1
 8003646:	6213      	str	r3, [r2, #32]

  /*---------------------------- I2Cx CCR Configuration ----------------------*/
  /* Configure I2Cx: Speed */
  MODIFY_REG(hi2c->Instance->CCR, (I2C_CCR_FS | I2C_CCR_DUTY | I2C_CCR_CCR), I2C_SPEED(pclk1, hi2c->Init.ClockSpeed, hi2c->Init.DutyCycle));
 8003648:	687b      	ldr	r3, [r7, #4]
 800364a:	681b      	ldr	r3, [r3, #0]
 800364c:	69db      	ldr	r3, [r3, #28]
 800364e:	f423 424f 	bic.w	r2, r3, #52992	@ 0xcf00
 8003652:	f022 02ff 	bic.w	r2, r2, #255	@ 0xff
 8003656:	687b      	ldr	r3, [r7, #4]
 8003658:	685b      	ldr	r3, [r3, #4]
 800365a:	495c      	ldr	r1, [pc, #368]	@ (80037cc <HAL_I2C_Init+0x274>)
 800365c:	428b      	cmp	r3, r1
 800365e:	d819      	bhi.n	8003694 <HAL_I2C_Init+0x13c>
 8003660:	68fb      	ldr	r3, [r7, #12]
 8003662:	1e59      	subs	r1, r3, #1
 8003664:	687b      	ldr	r3, [r7, #4]
 8003666:	685b      	ldr	r3, [r3, #4]
 8003668:	005b      	lsls	r3, r3, #1
 800366a:	fbb1 f3f3 	udiv	r3, r1, r3
 800366e:	1c59      	adds	r1, r3, #1
 8003670:	f640 73fc 	movw	r3, #4092	@ 0xffc
 8003674:	400b      	ands	r3, r1
 8003676:	2b00      	cmp	r3, #0
 8003678:	d00a      	beq.n	8003690 <HAL_I2C_Init+0x138>
 800367a:	68fb      	ldr	r3, [r7, #12]
 800367c:	1e59      	subs	r1, r3, #1
 800367e:	687b      	ldr	r3, [r7, #4]
 8003680:	685b      	ldr	r3, [r3, #4]
 8003682:	005b      	lsls	r3, r3, #1
 8003684:	fbb1 f3f3 	udiv	r3, r1, r3
 8003688:	3301      	adds	r3, #1
 800368a:	f3c3 030b 	ubfx	r3, r3, #0, #12
 800368e:	e051      	b.n	8003734 <HAL_I2C_Init+0x1dc>
 8003690:	2304      	movs	r3, #4
 8003692:	e04f      	b.n	8003734 <HAL_I2C_Init+0x1dc>
 8003694:	687b      	ldr	r3, [r7, #4]
 8003696:	689b      	ldr	r3, [r3, #8]
 8003698:	2b00      	cmp	r3, #0
 800369a:	d111      	bne.n	80036c0 <HAL_I2C_Init+0x168>
 800369c:	68fb      	ldr	r3, [r7, #12]
 800369e:	1e58      	subs	r0, r3, #1
 80036a0:	687b      	ldr	r3, [r7, #4]
 80036a2:	6859      	ldr	r1, [r3, #4]
 80036a4:	460b      	mov	r3, r1
 80036a6:	005b      	lsls	r3, r3, #1
 80036a8:	440b      	add	r3, r1
 80036aa:	fbb0 f3f3 	udiv	r3, r0, r3
 80036ae:	3301      	adds	r3, #1
 80036b0:	f3c3 030b 	ubfx	r3, r3, #0, #12
 80036b4:	2b00      	cmp	r3, #0
 80036b6:	bf0c      	ite	eq
 80036b8:	2301      	moveq	r3, #1
 80036ba:	2300      	movne	r3, #0
 80036bc:	b2db      	uxtb	r3, r3
 80036be:	e012      	b.n	80036e6 <HAL_I2C_Init+0x18e>
 80036c0:	68fb      	ldr	r3, [r7, #12]
 80036c2:	1e58      	subs	r0, r3, #1
 80036c4:	687b      	ldr	r3, [r7, #4]
 80036c6:	6859      	ldr	r1, [r3, #4]
 80036c8:	460b      	mov	r3, r1
 80036ca:	009b      	lsls	r3, r3, #2
 80036cc:	440b      	add	r3, r1
 80036ce:	0099      	lsls	r1, r3, #2
 80036d0:	440b      	add	r3, r1
 80036d2:	fbb0 f3f3 	udiv	r3, r0, r3
 80036d6:	3301      	adds	r3, #1
 80036d8:	f3c3 030b 	ubfx	r3, r3, #0, #12
 80036dc:	2b00      	cmp	r3, #0
 80036de:	bf0c      	ite	eq
 80036e0:	2301      	moveq	r3, #1
 80036e2:	2300      	movne	r3, #0
 80036e4:	b2db      	uxtb	r3, r3
 80036e6:	2b00      	cmp	r3, #0
 80036e8:	d001      	beq.n	80036ee <HAL_I2C_Init+0x196>
 80036ea:	2301      	movs	r3, #1
 80036ec:	e022      	b.n	8003734 <HAL_I2C_Init+0x1dc>
 80036ee:	687b      	ldr	r3, [r7, #4]
 80036f0:	689b      	ldr	r3, [r3, #8]
 80036f2:	2b00      	cmp	r3, #0
 80036f4:	d10e      	bne.n	8003714 <HAL_I2C_Init+0x1bc>
 80036f6:	68fb      	ldr	r3, [r7, #12]
 80036f8:	1e58      	subs	r0, r3, #1
 80036fa:	687b      	ldr	r3, [r7, #4]
 80036fc:	6859      	ldr	r1, [r3, #4]
 80036fe:	460b      	mov	r3, r1
 8003700:	005b      	lsls	r3, r3, #1
 8003702:	440b      	add	r3, r1
 8003704:	fbb0 f3f3 	udiv	r3, r0, r3
 8003708:	3301      	adds	r3, #1
 800370a:	f3c3 030b 	ubfx	r3, r3, #0, #12
 800370e:	f443 4300 	orr.w	r3, r3, #32768	@ 0x8000
 8003712:	e00f      	b.n	8003734 <HAL_I2C_Init+0x1dc>
 8003714:	68fb      	ldr	r3, [r7, #12]
 8003716:	1e58      	subs	r0, r3, #1
 8003718:	687b      	ldr	r3, [r7, #4]
 800371a:	6859      	ldr	r1, [r3, #4]
 800371c:	460b      	mov	r3, r1
 800371e:	009b      	lsls	r3, r3, #2
 8003720:	440b      	add	r3, r1
 8003722:	0099      	lsls	r1, r3, #2
 8003724:	440b      	add	r3, r1
 8003726:	fbb0 f3f3 	udiv	r3, r0, r3
 800372a:	3301      	adds	r3, #1
 800372c:	f3c3 030b 	ubfx	r3, r3, #0, #12
 8003730:	f443 4340 	orr.w	r3, r3, #49152	@ 0xc000
 8003734:	6879      	ldr	r1, [r7, #4]
 8003736:	6809      	ldr	r1, [r1, #0]
 8003738:	4313      	orrs	r3, r2
 800373a:	61cb      	str	r3, [r1, #28]

  /*---------------------------- I2Cx CR1 Configuration ----------------------*/
  /* Configure I2Cx: Generalcall and NoStretch mode */
  MODIFY_REG(hi2c->Instance->CR1, (I2C_CR1_ENGC | I2C_CR1_NOSTRETCH), (hi2c->Init.GeneralCallMode | hi2c->Init.NoStretchMode));
 800373c:	687b      	ldr	r3, [r7, #4]
 800373e:	681b      	ldr	r3, [r3, #0]
 8003740:	681b      	ldr	r3, [r3, #0]
 8003742:	f023 01c0 	bic.w	r1, r3, #192	@ 0xc0
 8003746:	687b      	ldr	r3, [r7, #4]
 8003748:	69da      	ldr	r2, [r3, #28]
 800374a:	687b      	ldr	r3, [r7, #4]
 800374c:	6a1b      	ldr	r3, [r3, #32]
 800374e:	431a      	orrs	r2, r3
 8003750:	687b      	ldr	r3, [r7, #4]
 8003752:	681b      	ldr	r3, [r3, #0]
 8003754:	430a      	orrs	r2, r1
 8003756:	601a      	str	r2, [r3, #0]

  /*---------------------------- I2Cx OAR1 Configuration ---------------------*/
  /* Configure I2Cx: Own Address1 and addressing mode */
  MODIFY_REG(hi2c->Instance->OAR1, (I2C_OAR1_ADDMODE | I2C_OAR1_ADD8_9 | I2C_OAR1_ADD1_7 | I2C_OAR1_ADD0), (hi2c->Init.AddressingMode | hi2c->Init.OwnAddress1));
 8003758:	687b      	ldr	r3, [r7, #4]
 800375a:	681b      	ldr	r3, [r3, #0]
 800375c:	689b      	ldr	r3, [r3, #8]
 800375e:	f423 4303 	bic.w	r3, r3, #33536	@ 0x8300
 8003762:	f023 03ff 	bic.w	r3, r3, #255	@ 0xff
 8003766:	687a      	ldr	r2, [r7, #4]
 8003768:	6911      	ldr	r1, [r2, #16]
 800376a:	687a      	ldr	r2, [r7, #4]
 800376c:	68d2      	ldr	r2, [r2, #12]
 800376e:	4311      	orrs	r1, r2
 8003770:	687a      	ldr	r2, [r7, #4]
 8003772:	6812      	ldr	r2, [r2, #0]
 8003774:	430b      	orrs	r3, r1
 8003776:	6093      	str	r3, [r2, #8]

  /*---------------------------- I2Cx OAR2 Configuration ---------------------*/
  /* Configure I2Cx: Dual mode and Own Address2 */
  MODIFY_REG(hi2c->Instance->OAR2, (I2C_OAR2_ENDUAL | I2C_OAR2_ADD2), (hi2c->Init.DualAddressMode | hi2c->Init.OwnAddress2));
 8003778:	687b      	ldr	r3, [r7, #4]
 800377a:	681b      	ldr	r3, [r3, #0]
 800377c:	68db      	ldr	r3, [r3, #12]
 800377e:	f023 01ff 	bic.w	r1, r3, #255	@ 0xff
 8003782:	687b      	ldr	r3, [r7, #4]
 8003784:	695a      	ldr	r2, [r3, #20]
 8003786:	687b      	ldr	r3, [r7, #4]
 8003788:	699b      	ldr	r3, [r3, #24]
 800378a:	431a      	orrs	r2, r3
 800378c:	687b      	ldr	r3, [r7, #4]
 800378e:	681b      	ldr	r3, [r3, #0]
 8003790:	430a      	orrs	r2, r1
 8003792:	60da      	str	r2, [r3, #12]

  /* Enable the selected I2C peripheral */
  __HAL_I2C_ENABLE(hi2c);
 8003794:	687b      	ldr	r3, [r7, #4]
 8003796:	681b      	ldr	r3, [r3, #0]
 8003798:	681a      	ldr	r2, [r3, #0]
 800379a:	687b      	ldr	r3, [r7, #4]
 800379c:	681b      	ldr	r3, [r3, #0]
 800379e:	f042 0201 	orr.w	r2, r2, #1
 80037a2:	601a      	str	r2, [r3, #0]

  hi2c->ErrorCode = HAL_I2C_ERROR_NONE;
 80037a4:	687b      	ldr	r3, [r7, #4]
 80037a6:	2200      	movs	r2, #0
 80037a8:	641a      	str	r2, [r3, #64]	@ 0x40
  hi2c->State = HAL_I2C_STATE_READY;
 80037aa:	687b      	ldr	r3, [r7, #4]
 80037ac:	2220      	movs	r2, #32
 80037ae:	f883 203d 	strb.w	r2, [r3, #61]	@ 0x3d
  hi2c->PreviousState = I2C_STATE_NONE;
 80037b2:	687b      	ldr	r3, [r7, #4]
 80037b4:	2200      	movs	r2, #0
 80037b6:	631a      	str	r2, [r3, #48]	@ 0x30
  hi2c->Mode = HAL_I2C_MODE_NONE;
 80037b8:	687b      	ldr	r3, [r7, #4]
 80037ba:	2200      	movs	r2, #0
 80037bc:	f883 203e 	strb.w	r2, [r3, #62]	@ 0x3e

  return HAL_OK;
 80037c0:	2300      	movs	r3, #0
}
 80037c2:	4618      	mov	r0, r3
 80037c4:	3710      	adds	r7, #16
 80037c6:	46bd      	mov	sp, r7
 80037c8:	bd80      	pop	{r7, pc}
 80037ca:	bf00      	nop
 80037cc:	000186a0 	.word	0x000186a0
 80037d0:	001e847f 	.word	0x001e847f
 80037d4:	003d08ff 	.word	0x003d08ff
 80037d8:	431bde83 	.word	0x431bde83
 80037dc:	10624dd3 	.word	0x10624dd3

080037e0 <HAL_I2C_Mem_Write>:
  * @param  Size Amount of data to be sent
  * @param  Timeout Timeout duration
  * @retval HAL status
  */
HAL_StatusTypeDef HAL_I2C_Mem_Write(I2C_HandleTypeDef *hi2c, uint16_t DevAddress, uint16_t MemAddress, uint16_t MemAddSize, uint8_t *pData, uint16_t Size, uint32_t Timeout)
{
 80037e0:	b580      	push	{r7, lr}
 80037e2:	b088      	sub	sp, #32
 80037e4:	af02      	add	r7, sp, #8
 80037e6:	60f8      	str	r0, [r7, #12]
 80037e8:	4608      	mov	r0, r1
 80037ea:	4611      	mov	r1, r2
 80037ec:	461a      	mov	r2, r3
 80037ee:	4603      	mov	r3, r0
 80037f0:	817b      	strh	r3, [r7, #10]
 80037f2:	460b      	mov	r3, r1
 80037f4:	813b      	strh	r3, [r7, #8]
 80037f6:	4613      	mov	r3, r2
 80037f8:	80fb      	strh	r3, [r7, #6]
  /* Init tickstart for timeout management*/
  uint32_t tickstart = HAL_GetTick();
 80037fa:	f7fe fc21 	bl	8002040 <HAL_GetTick>
 80037fe:	6178      	str	r0, [r7, #20]

  /* Check the parameters */
  assert_param(IS_I2C_MEMADD_SIZE(MemAddSize));

  if (hi2c->State == HAL_I2C_STATE_READY)
 8003800:	68fb      	ldr	r3, [r7, #12]
 8003802:	f893 303d 	ldrb.w	r3, [r3, #61]	@ 0x3d
 8003806:	b2db      	uxtb	r3, r3
 8003808:	2b20      	cmp	r3, #32
 800380a:	f040 80d9 	bne.w	80039c0 <HAL_I2C_Mem_Write+0x1e0>
  {
    /* Wait until BUSY flag is reset */
    if (I2C_WaitOnFlagUntilTimeout(hi2c, I2C_FLAG_BUSY, SET, I2C_TIMEOUT_BUSY_FLAG, tickstart) != HAL_OK)
 800380e:	697b      	ldr	r3, [r7, #20]
 8003810:	9300      	str	r3, [sp, #0]
 8003812:	2319      	movs	r3, #25
 8003814:	2201      	movs	r2, #1
 8003816:	496d      	ldr	r1, [pc, #436]	@ (80039cc <HAL_I2C_Mem_Write+0x1ec>)
 8003818:	68f8      	ldr	r0, [r7, #12]
 800381a:	f000 fc8b 	bl	8004134 <I2C_WaitOnFlagUntilTimeout>
 800381e:	4603      	mov	r3, r0
 8003820:	2b00      	cmp	r3, #0
 8003822:	d001      	beq.n	8003828 <HAL_I2C_Mem_Write+0x48>
    {
      return HAL_BUSY;
 8003824:	2302      	movs	r3, #2
 8003826:	e0cc      	b.n	80039c2 <HAL_I2C_Mem_Write+0x1e2>
    }

    /* Process Locked */
    __HAL_LOCK(hi2c);
 8003828:	68fb      	ldr	r3, [r7, #12]
 800382a:	f893 303c 	ldrb.w	r3, [r3, #60]	@ 0x3c
 800382e:	2b01      	cmp	r3, #1
 8003830:	d101      	bne.n	8003836 <HAL_I2C_Mem_Write+0x56>
 8003832:	2302      	movs	r3, #2
 8003834:	e0c5      	b.n	80039c2 <HAL_I2C_Mem_Write+0x1e2>
 8003836:	68fb      	ldr	r3, [r7, #12]
 8003838:	2201      	movs	r2, #1
 800383a:	f883 203c 	strb.w	r2, [r3, #60]	@ 0x3c

    /* Check if the I2C is already enabled */
    if ((hi2c->Instance->CR1 & I2C_CR1_PE) != I2C_CR1_PE)
 800383e:	68fb      	ldr	r3, [r7, #12]
 8003840:	681b      	ldr	r3, [r3, #0]
 8003842:	681b      	ldr	r3, [r3, #0]
 8003844:	f003 0301 	and.w	r3, r3, #1
 8003848:	2b01      	cmp	r3, #1
 800384a:	d007      	beq.n	800385c <HAL_I2C_Mem_Write+0x7c>
    {
      /* Enable I2C peripheral */
      __HAL_I2C_ENABLE(hi2c);
 800384c:	68fb      	ldr	r3, [r7, #12]
 800384e:	681b      	ldr	r3, [r3, #0]
 8003850:	681a      	ldr	r2, [r3, #0]
 8003852:	68fb      	ldr	r3, [r7, #12]
 8003854:	681b      	ldr	r3, [r3, #0]
 8003856:	f042 0201 	orr.w	r2, r2, #1
 800385a:	601a      	str	r2, [r3, #0]
    }

    /* Disable Pos */
    CLEAR_BIT(hi2c->Instance->CR1, I2C_CR1_POS);
 800385c:	68fb      	ldr	r3, [r7, #12]
 800385e:	681b      	ldr	r3, [r3, #0]
 8003860:	681a      	ldr	r2, [r3, #0]
 8003862:	68fb      	ldr	r3, [r7, #12]
 8003864:	681b      	ldr	r3, [r3, #0]
 8003866:	f422 6200 	bic.w	r2, r2, #2048	@ 0x800
 800386a:	601a      	str	r2, [r3, #0]

    hi2c->State     = HAL_I2C_STATE_BUSY_TX;
 800386c:	68fb      	ldr	r3, [r7, #12]
 800386e:	2221      	movs	r2, #33	@ 0x21
 8003870:	f883 203d 	strb.w	r2, [r3, #61]	@ 0x3d
    hi2c->Mode      = HAL_I2C_MODE_MEM;
 8003874:	68fb      	ldr	r3, [r7, #12]
 8003876:	2240      	movs	r2, #64	@ 0x40
 8003878:	f883 203e 	strb.w	r2, [r3, #62]	@ 0x3e
    hi2c->ErrorCode = HAL_I2C_ERROR_NONE;
 800387c:	68fb      	ldr	r3, [r7, #12]
 800387e:	2200      	movs	r2, #0
 8003880:	641a      	str	r2, [r3, #64]	@ 0x40

    /* Prepare transfer parameters */
    hi2c->pBuffPtr    = pData;
 8003882:	68fb      	ldr	r3, [r7, #12]
 8003884:	6a3a      	ldr	r2, [r7, #32]
 8003886:	625a      	str	r2, [r3, #36]	@ 0x24
    hi2c->XferCount   = Size;
 8003888:	68fb      	ldr	r3, [r7, #12]
 800388a:	8cba      	ldrh	r2, [r7, #36]	@ 0x24
 800388c:	855a      	strh	r2, [r3, #42]	@ 0x2a
    hi2c->XferSize    = hi2c->XferCount;
 800388e:	68fb      	ldr	r3, [r7, #12]
 8003890:	8d5b      	ldrh	r3, [r3, #42]	@ 0x2a
 8003892:	b29a      	uxth	r2, r3
 8003894:	68fb      	ldr	r3, [r7, #12]
 8003896:	851a      	strh	r2, [r3, #40]	@ 0x28
    hi2c->XferOptions = I2C_NO_OPTION_FRAME;
 8003898:	68fb      	ldr	r3, [r7, #12]
 800389a:	4a4d      	ldr	r2, [pc, #308]	@ (80039d0 <HAL_I2C_Mem_Write+0x1f0>)
 800389c:	62da      	str	r2, [r3, #44]	@ 0x2c

    /* Send Slave Address and Memory Address */
    if (I2C_RequestMemoryWrite(hi2c, DevAddress, MemAddress, MemAddSize, Timeout, tickstart) != HAL_OK)
 800389e:	88f8      	ldrh	r0, [r7, #6]
 80038a0:	893a      	ldrh	r2, [r7, #8]
 80038a2:	8979      	ldrh	r1, [r7, #10]
 80038a4:	697b      	ldr	r3, [r7, #20]
 80038a6:	9301      	str	r3, [sp, #4]
 80038a8:	6abb      	ldr	r3, [r7, #40]	@ 0x28
 80038aa:	9300      	str	r3, [sp, #0]
 80038ac:	4603      	mov	r3, r0
 80038ae:	68f8      	ldr	r0, [r7, #12]
 80038b0:	f000 fac2 	bl	8003e38 <I2C_RequestMemoryWrite>
 80038b4:	4603      	mov	r3, r0
 80038b6:	2b00      	cmp	r3, #0
 80038b8:	d052      	beq.n	8003960 <HAL_I2C_Mem_Write+0x180>
    {
      return HAL_ERROR;
 80038ba:	2301      	movs	r3, #1
 80038bc:	e081      	b.n	80039c2 <HAL_I2C_Mem_Write+0x1e2>
    }

    while (hi2c->XferSize > 0U)
    {
      /* Wait until TXE flag is set */
      if (I2C_WaitOnTXEFlagUntilTimeout(hi2c, Timeout, tickstart) != HAL_OK)
 80038be:	697a      	ldr	r2, [r7, #20]
 80038c0:	6ab9      	ldr	r1, [r7, #40]	@ 0x28
 80038c2:	68f8      	ldr	r0, [r7, #12]
 80038c4:	f000 fd50 	bl	8004368 <I2C_WaitOnTXEFlagUntilTimeout>
 80038c8:	4603      	mov	r3, r0
 80038ca:	2b00      	cmp	r3, #0
 80038cc:	d00d      	beq.n	80038ea <HAL_I2C_Mem_Write+0x10a>
      {
        if (hi2c->ErrorCode == HAL_I2C_ERROR_AF)
 80038ce:	68fb      	ldr	r3, [r7, #12]
 80038d0:	6c1b      	ldr	r3, [r3, #64]	@ 0x40
 80038d2:	2b04      	cmp	r3, #4
 80038d4:	d107      	bne.n	80038e6 <HAL_I2C_Mem_Write+0x106>
        {
          /* Generate Stop */
          SET_BIT(hi2c->Instance->CR1, I2C_CR1_STOP);
 80038d6:	68fb      	ldr	r3, [r7, #12]
 80038d8:	681b      	ldr	r3, [r3, #0]
 80038da:	681a      	ldr	r2, [r3, #0]
 80038dc:	68fb      	ldr	r3, [r7, #12]
 80038de:	681b      	ldr	r3, [r3, #0]
 80038e0:	f442 7200 	orr.w	r2, r2, #512	@ 0x200
 80038e4:	601a      	str	r2, [r3, #0]
        }
        return HAL_ERROR;
 80038e6:	2301      	movs	r3, #1
 80038e8:	e06b      	b.n	80039c2 <HAL_I2C_Mem_Write+0x1e2>
      }

      /* Write data to DR */
      hi2c->Instance->DR = *hi2c->pBuffPtr;
 80038ea:	68fb      	ldr	r3, [r7, #12]
 80038ec:	6a5b      	ldr	r3, [r3, #36]	@ 0x24
 80038ee:	781a      	ldrb	r2, [r3, #0]
 80038f0:	68fb      	ldr	r3, [r7, #12]
 80038f2:	681b      	ldr	r3, [r3, #0]
 80038f4:	611a      	str	r2, [r3, #16]

      /* Increment Buffer pointer */
      hi2c->pBuffPtr++;
 80038f6:	68fb      	ldr	r3, [r7, #12]
 80038f8:	6a5b      	ldr	r3, [r3, #36]	@ 0x24
 80038fa:	1c5a      	adds	r2, r3, #1
 80038fc:	68fb      	ldr	r3, [r7, #12]
 80038fe:	625a      	str	r2, [r3, #36]	@ 0x24

      /* Update counter */
      hi2c->XferSize--;
 8003900:	68fb      	ldr	r3, [r7, #12]
 8003902:	8d1b      	ldrh	r3, [r3, #40]	@ 0x28
 8003904:	3b01      	subs	r3, #1
 8003906:	b29a      	uxth	r2, r3
 8003908:	68fb      	ldr	r3, [r7, #12]
 800390a:	851a      	strh	r2, [r3, #40]	@ 0x28
      hi2c->XferCount--;
 800390c:	68fb      	ldr	r3, [r7, #12]
 800390e:	8d5b      	ldrh	r3, [r3, #42]	@ 0x2a
 8003910:	b29b      	uxth	r3, r3
 8003912:	3b01      	subs	r3, #1
 8003914:	b29a      	uxth	r2, r3
 8003916:	68fb      	ldr	r3, [r7, #12]
 8003918:	855a      	strh	r2, [r3, #42]	@ 0x2a

      if ((__HAL_I2C_GET_FLAG(hi2c, I2C_FLAG_BTF) == SET) && (hi2c->XferSize != 0U))
 800391a:	68fb      	ldr	r3, [r7, #12]
 800391c:	681b      	ldr	r3, [r3, #0]
 800391e:	695b      	ldr	r3, [r3, #20]
 8003920:	f003 0304 	and.w	r3, r3, #4
 8003924:	2b04      	cmp	r3, #4
 8003926:	d11b      	bne.n	8003960 <HAL_I2C_Mem_Write+0x180>
 8003928:	68fb      	ldr	r3, [r7, #12]
 800392a:	8d1b      	ldrh	r3, [r3, #40]	@ 0x28
 800392c:	2b00      	cmp	r3, #0
 800392e:	d017      	beq.n	8003960 <HAL_I2C_Mem_Write+0x180>
      {
        /* Write data to DR */
        hi2c->Instance->DR = *hi2c->pBuffPtr;
 8003930:	68fb      	ldr	r3, [r7, #12]
 8003932:	6a5b      	ldr	r3, [r3, #36]	@ 0x24
 8003934:	781a      	ldrb	r2, [r3, #0]
 8003936:	68fb      	ldr	r3, [r7, #12]
 8003938:	681b      	ldr	r3, [r3, #0]
 800393a:	611a      	str	r2, [r3, #16]

        /* Increment Buffer pointer */
        hi2c->pBuffPtr++;
 800393c:	68fb      	ldr	r3, [r7, #12]
 800393e:	6a5b      	ldr	r3, [r3, #36]	@ 0x24
 8003940:	1c5a      	adds	r2, r3, #1
 8003942:	68fb      	ldr	r3, [r7, #12]
 8003944:	625a      	str	r2, [r3, #36]	@ 0x24

        /* Update counter */
        hi2c->XferSize--;
 8003946:	68fb      	ldr	r3, [r7, #12]
 8003948:	8d1b      	ldrh	r3, [r3, #40]	@ 0x28
 800394a:	3b01      	subs	r3, #1
 800394c:	b29a      	uxth	r2, r3
 800394e:	68fb      	ldr	r3, [r7, #12]
 8003950:	851a      	strh	r2, [r3, #40]	@ 0x28
        hi2c->XferCount--;
 8003952:	68fb      	ldr	r3, [r7, #12]
 8003954:	8d5b      	ldrh	r3, [r3, #42]	@ 0x2a
 8003956:	b29b      	uxth	r3, r3
 8003958:	3b01      	subs	r3, #1
 800395a:	b29a      	uxth	r2, r3
 800395c:	68fb      	ldr	r3, [r7, #12]
 800395e:	855a      	strh	r2, [r3, #42]	@ 0x2a
    while (hi2c->XferSize > 0U)
 8003960:	68fb      	ldr	r3, [r7, #12]
 8003962:	8d1b      	ldrh	r3, [r3, #40]	@ 0x28
 8003964:	2b00      	cmp	r3, #0
 8003966:	d1aa      	bne.n	80038be <HAL_I2C_Mem_Write+0xde>
      }
    }

    /* Wait until BTF flag is set */
    if (I2C_WaitOnBTFFlagUntilTimeout(hi2c, Timeout, tickstart) != HAL_OK)
 8003968:	697a      	ldr	r2, [r7, #20]
 800396a:	6ab9      	ldr	r1, [r7, #40]	@ 0x28
 800396c:	68f8      	ldr	r0, [r7, #12]
 800396e:	f000 fd43 	bl	80043f8 <I2C_WaitOnBTFFlagUntilTimeout>
 8003972:	4603      	mov	r3, r0
 8003974:	2b00      	cmp	r3, #0
 8003976:	d00d      	beq.n	8003994 <HAL_I2C_Mem_Write+0x1b4>
    {
      if (hi2c->ErrorCode == HAL_I2C_ERROR_AF)
 8003978:	68fb      	ldr	r3, [r7, #12]
 800397a:	6c1b      	ldr	r3, [r3, #64]	@ 0x40
 800397c:	2b04      	cmp	r3, #4
 800397e:	d107      	bne.n	8003990 <HAL_I2C_Mem_Write+0x1b0>
      {
        /* Generate Stop */
        SET_BIT(hi2c->Instance->CR1, I2C_CR1_STOP);
 8003980:	68fb      	ldr	r3, [r7, #12]
 8003982:	681b      	ldr	r3, [r3, #0]
 8003984:	681a      	ldr	r2, [r3, #0]
 8003986:	68fb      	ldr	r3, [r7, #12]
 8003988:	681b      	ldr	r3, [r3, #0]
 800398a:	f442 7200 	orr.w	r2, r2, #512	@ 0x200
 800398e:	601a      	str	r2, [r3, #0]
      }
      return HAL_ERROR;
 8003990:	2301      	movs	r3, #1
 8003992:	e016      	b.n	80039c2 <HAL_I2C_Mem_Write+0x1e2>
    }

    /* Generate Stop */
    SET_BIT(hi2c->Instance->CR1, I2C_CR1_STOP);
 8003994:	68fb      	ldr	r3, [r7, #12]
 8003996:	681b      	ldr	r3, [r3, #0]
 8003998:	681a      	ldr	r2, [r3, #0]
 800399a:	68fb      	ldr	r3, [r7, #12]
 800399c:	681b      	ldr	r3, [r3, #0]
 800399e:	f442 7200 	orr.w	r2, r2, #512	@ 0x200
 80039a2:	601a      	str	r2, [r3, #0]

    hi2c->State = HAL_I2C_STATE_READY;
 80039a4:	68fb      	ldr	r3, [r7, #12]
 80039a6:	2220      	movs	r2, #32
 80039a8:	f883 203d 	strb.w	r2, [r3, #61]	@ 0x3d
    hi2c->Mode = HAL_I2C_MODE_NONE;
 80039ac:	68fb      	ldr	r3, [r7, #12]
 80039ae:	2200      	movs	r2, #0
 80039b0:	f883 203e 	strb.w	r2, [r3, #62]	@ 0x3e

    /* Process Unlocked */
    __HAL_UNLOCK(hi2c);
 80039b4:	68fb      	ldr	r3, [r7, #12]
 80039b6:	2200      	movs	r2, #0
 80039b8:	f883 203c 	strb.w	r2, [r3, #60]	@ 0x3c

    return HAL_OK;
 80039bc:	2300      	movs	r3, #0
 80039be:	e000      	b.n	80039c2 <HAL_I2C_Mem_Write+0x1e2>
  }
  else
  {
    return HAL_BUSY;
 80039c0:	2302      	movs	r3, #2
  }
}
 80039c2:	4618      	mov	r0, r3
 80039c4:	3718      	adds	r7, #24
 80039c6:	46bd      	mov	sp, r7
 80039c8:	bd80      	pop	{r7, pc}
 80039ca:	bf00      	nop
 80039cc:	00100002 	.word	0x00100002
 80039d0:	ffff0000 	.word	0xffff0000

080039d4 <HAL_I2C_Mem_Read>:
  * @param  Size Amount of data to be sent
  * @param  Timeout Timeout duration
  * @retval HAL status
  */
HAL_StatusTypeDef HAL_I2C_Mem_Read(I2C_HandleTypeDef *hi2c, uint16_t DevAddress, uint16_t MemAddress, uint16_t MemAddSize, uint8_t *pData, uint16_t Size, uint32_t Timeout)
{
 80039d4:	b580      	push	{r7, lr}
 80039d6:	b08c      	sub	sp, #48	@ 0x30
 80039d8:	af02      	add	r7, sp, #8
 80039da:	60f8      	str	r0, [r7, #12]
 80039dc:	4608      	mov	r0, r1
 80039de:	4611      	mov	r1, r2
 80039e0:	461a      	mov	r2, r3
 80039e2:	4603      	mov	r3, r0
 80039e4:	817b      	strh	r3, [r7, #10]
 80039e6:	460b      	mov	r3, r1
 80039e8:	813b      	strh	r3, [r7, #8]
 80039ea:	4613      	mov	r3, r2
 80039ec:	80fb      	strh	r3, [r7, #6]
  /* Init tickstart for timeout management*/
  uint32_t tickstart = HAL_GetTick();
 80039ee:	f7fe fb27 	bl	8002040 <HAL_GetTick>
 80039f2:	6278      	str	r0, [r7, #36]	@ 0x24

  /* Check the parameters */
  assert_param(IS_I2C_MEMADD_SIZE(MemAddSize));

  if (hi2c->State == HAL_I2C_STATE_READY)
 80039f4:	68fb      	ldr	r3, [r7, #12]
 80039f6:	f893 303d 	ldrb.w	r3, [r3, #61]	@ 0x3d
 80039fa:	b2db      	uxtb	r3, r3
 80039fc:	2b20      	cmp	r3, #32
 80039fe:	f040 8214 	bne.w	8003e2a <HAL_I2C_Mem_Read+0x456>
  {
    /* Wait until BUSY flag is reset */
    if (I2C_WaitOnFlagUntilTimeout(hi2c, I2C_FLAG_BUSY, SET, I2C_TIMEOUT_BUSY_FLAG, tickstart) != HAL_OK)
 8003a02:	6a7b      	ldr	r3, [r7, #36]	@ 0x24
 8003a04:	9300      	str	r3, [sp, #0]
 8003a06:	2319      	movs	r3, #25
 8003a08:	2201      	movs	r2, #1
 8003a0a:	497b      	ldr	r1, [pc, #492]	@ (8003bf8 <HAL_I2C_Mem_Read+0x224>)
 8003a0c:	68f8      	ldr	r0, [r7, #12]
 8003a0e:	f000 fb91 	bl	8004134 <I2C_WaitOnFlagUntilTimeout>
 8003a12:	4603      	mov	r3, r0
 8003a14:	2b00      	cmp	r3, #0
 8003a16:	d001      	beq.n	8003a1c <HAL_I2C_Mem_Read+0x48>
    {
      return HAL_BUSY;
 8003a18:	2302      	movs	r3, #2
 8003a1a:	e207      	b.n	8003e2c <HAL_I2C_Mem_Read+0x458>
    }

    /* Process Locked */
    __HAL_LOCK(hi2c);
 8003a1c:	68fb      	ldr	r3, [r7, #12]
 8003a1e:	f893 303c 	ldrb.w	r3, [r3, #60]	@ 0x3c
 8003a22:	2b01      	cmp	r3, #1
 8003a24:	d101      	bne.n	8003a2a <HAL_I2C_Mem_Read+0x56>
 8003a26:	2302      	movs	r3, #2
 8003a28:	e200      	b.n	8003e2c <HAL_I2C_Mem_Read+0x458>
 8003a2a:	68fb      	ldr	r3, [r7, #12]
 8003a2c:	2201      	movs	r2, #1
 8003a2e:	f883 203c 	strb.w	r2, [r3, #60]	@ 0x3c

    /* Check if the I2C is already enabled */
    if ((hi2c->Instance->CR1 & I2C_CR1_PE) != I2C_CR1_PE)
 8003a32:	68fb      	ldr	r3, [r7, #12]
 8003a34:	681b      	ldr	r3, [r3, #0]
 8003a36:	681b      	ldr	r3, [r3, #0]
 8003a38:	f003 0301 	and.w	r3, r3, #1
 8003a3c:	2b01      	cmp	r3, #1
 8003a3e:	d007      	beq.n	8003a50 <HAL_I2C_Mem_Read+0x7c>
    {
      /* Enable I2C peripheral */
      __HAL_I2C_ENABLE(hi2c);
 8003a40:	68fb      	ldr	r3, [r7, #12]
 8003a42:	681b      	ldr	r3, [r3, #0]
 8003a44:	681a      	ldr	r2, [r3, #0]
 8003a46:	68fb      	ldr	r3, [r7, #12]
 8003a48:	681b      	ldr	r3, [r3, #0]
 8003a4a:	f042 0201 	orr.w	r2, r2, #1
 8003a4e:	601a      	str	r2, [r3, #0]
    }

    /* Disable Pos */
    CLEAR_BIT(hi2c->Instance->CR1, I2C_CR1_POS);
 8003a50:	68fb      	ldr	r3, [r7, #12]
 8003a52:	681b      	ldr	r3, [r3, #0]
 8003a54:	681a      	ldr	r2, [r3, #0]
 8003a56:	68fb      	ldr	r3, [r7, #12]
 8003a58:	681b      	ldr	r3, [r3, #0]
 8003a5a:	f422 6200 	bic.w	r2, r2, #2048	@ 0x800
 8003a5e:	601a      	str	r2, [r3, #0]

    hi2c->State     = HAL_I2C_STATE_BUSY_RX;
 8003a60:	68fb      	ldr	r3, [r7, #12]
 8003a62:	2222      	movs	r2, #34	@ 0x22
 8003a64:	f883 203d 	strb.w	r2, [r3, #61]	@ 0x3d
    hi2c->Mode      = HAL_I2C_MODE_MEM;
 8003a68:	68fb      	ldr	r3, [r7, #12]
 8003a6a:	2240      	movs	r2, #64	@ 0x40
 8003a6c:	f883 203e 	strb.w	r2, [r3, #62]	@ 0x3e
    hi2c->ErrorCode = HAL_I2C_ERROR_NONE;
 8003a70:	68fb      	ldr	r3, [r7, #12]
 8003a72:	2200      	movs	r2, #0
 8003a74:	641a      	str	r2, [r3, #64]	@ 0x40

    /* Prepare transfer parameters */
    hi2c->pBuffPtr    = pData;
 8003a76:	68fb      	ldr	r3, [r7, #12]
 8003a78:	6b3a      	ldr	r2, [r7, #48]	@ 0x30
 8003a7a:	625a      	str	r2, [r3, #36]	@ 0x24
    hi2c->XferCount   = Size;
 8003a7c:	68fb      	ldr	r3, [r7, #12]
 8003a7e:	8eba      	ldrh	r2, [r7, #52]	@ 0x34
 8003a80:	855a      	strh	r2, [r3, #42]	@ 0x2a
    hi2c->XferSize    = hi2c->XferCount;
 8003a82:	68fb      	ldr	r3, [r7, #12]
 8003a84:	8d5b      	ldrh	r3, [r3, #42]	@ 0x2a
 8003a86:	b29a      	uxth	r2, r3
 8003a88:	68fb      	ldr	r3, [r7, #12]
 8003a8a:	851a      	strh	r2, [r3, #40]	@ 0x28
    hi2c->XferOptions = I2C_NO_OPTION_FRAME;
 8003a8c:	68fb      	ldr	r3, [r7, #12]
 8003a8e:	4a5b      	ldr	r2, [pc, #364]	@ (8003bfc <HAL_I2C_Mem_Read+0x228>)
 8003a90:	62da      	str	r2, [r3, #44]	@ 0x2c

    /* Send Slave Address and Memory Address */
    if (I2C_RequestMemoryRead(hi2c, DevAddress, MemAddress, MemAddSize, Timeout, tickstart) != HAL_OK)
 8003a92:	88f8      	ldrh	r0, [r7, #6]
 8003a94:	893a      	ldrh	r2, [r7, #8]
 8003a96:	8979      	ldrh	r1, [r7, #10]
 8003a98:	6a7b      	ldr	r3, [r7, #36]	@ 0x24
 8003a9a:	9301      	str	r3, [sp, #4]
 8003a9c:	6bbb      	ldr	r3, [r7, #56]	@ 0x38
 8003a9e:	9300      	str	r3, [sp, #0]
 8003aa0:	4603      	mov	r3, r0
 8003aa2:	68f8      	ldr	r0, [r7, #12]
 8003aa4:	f000 fa5e 	bl	8003f64 <I2C_RequestMemoryRead>
 8003aa8:	4603      	mov	r3, r0
 8003aaa:	2b00      	cmp	r3, #0
 8003aac:	d001      	beq.n	8003ab2 <HAL_I2C_Mem_Read+0xde>
    {
      return HAL_ERROR;
 8003aae:	2301      	movs	r3, #1
 8003ab0:	e1bc      	b.n	8003e2c <HAL_I2C_Mem_Read+0x458>
    }

    if (hi2c->XferSize == 0U)
 8003ab2:	68fb      	ldr	r3, [r7, #12]
 8003ab4:	8d1b      	ldrh	r3, [r3, #40]	@ 0x28
 8003ab6:	2b00      	cmp	r3, #0
 8003ab8:	d113      	bne.n	8003ae2 <HAL_I2C_Mem_Read+0x10e>
    {
      /* Clear ADDR flag */
      __HAL_I2C_CLEAR_ADDRFLAG(hi2c);
 8003aba:	2300      	movs	r3, #0
 8003abc:	623b      	str	r3, [r7, #32]
 8003abe:	68fb      	ldr	r3, [r7, #12]
 8003ac0:	681b      	ldr	r3, [r3, #0]
 8003ac2:	695b      	ldr	r3, [r3, #20]
 8003ac4:	623b      	str	r3, [r7, #32]
 8003ac6:	68fb      	ldr	r3, [r7, #12]
 8003ac8:	681b      	ldr	r3, [r3, #0]
 8003aca:	699b      	ldr	r3, [r3, #24]
 8003acc:	623b      	str	r3, [r7, #32]
 8003ace:	6a3b      	ldr	r3, [r7, #32]

      /* Generate Stop */
      SET_BIT(hi2c->Instance->CR1, I2C_CR1_STOP);
 8003ad0:	68fb      	ldr	r3, [r7, #12]
 8003ad2:	681b      	ldr	r3, [r3, #0]
 8003ad4:	681a      	ldr	r2, [r3, #0]
 8003ad6:	68fb      	ldr	r3, [r7, #12]
 8003ad8:	681b      	ldr	r3, [r3, #0]
 8003ada:	f442 7200 	orr.w	r2, r2, #512	@ 0x200
 8003ade:	601a      	str	r2, [r3, #0]
 8003ae0:	e190      	b.n	8003e04 <HAL_I2C_Mem_Read+0x430>
    }
    else if (hi2c->XferSize == 1U)
 8003ae2:	68fb      	ldr	r3, [r7, #12]
 8003ae4:	8d1b      	ldrh	r3, [r3, #40]	@ 0x28
 8003ae6:	2b01      	cmp	r3, #1
 8003ae8:	d11b      	bne.n	8003b22 <HAL_I2C_Mem_Read+0x14e>
    {
      /* Disable Acknowledge */
      CLEAR_BIT(hi2c->Instance->CR1, I2C_CR1_ACK);
 8003aea:	68fb      	ldr	r3, [r7, #12]
 8003aec:	681b      	ldr	r3, [r3, #0]
 8003aee:	681a      	ldr	r2, [r3, #0]
 8003af0:	68fb      	ldr	r3, [r7, #12]
 8003af2:	681b      	ldr	r3, [r3, #0]
 8003af4:	f422 6280 	bic.w	r2, r2, #1024	@ 0x400
 8003af8:	601a      	str	r2, [r3, #0]

      /* Clear ADDR flag */
      __HAL_I2C_CLEAR_ADDRFLAG(hi2c);
 8003afa:	2300      	movs	r3, #0
 8003afc:	61fb      	str	r3, [r7, #28]
 8003afe:	68fb      	ldr	r3, [r7, #12]
 8003b00:	681b      	ldr	r3, [r3, #0]
 8003b02:	695b      	ldr	r3, [r3, #20]
 8003b04:	61fb      	str	r3, [r7, #28]
 8003b06:	68fb      	ldr	r3, [r7, #12]
 8003b08:	681b      	ldr	r3, [r3, #0]
 8003b0a:	699b      	ldr	r3, [r3, #24]
 8003b0c:	61fb      	str	r3, [r7, #28]
 8003b0e:	69fb      	ldr	r3, [r7, #28]

      /* Generate Stop */
      SET_BIT(hi2c->Instance->CR1, I2C_CR1_STOP);
 8003b10:	68fb      	ldr	r3, [r7, #12]
 8003b12:	681b      	ldr	r3, [r3, #0]
 8003b14:	681a      	ldr	r2, [r3, #0]
 8003b16:	68fb      	ldr	r3, [r7, #12]
 8003b18:	681b      	ldr	r3, [r3, #0]
 8003b1a:	f442 7200 	orr.w	r2, r2, #512	@ 0x200
 8003b1e:	601a      	str	r2, [r3, #0]
 8003b20:	e170      	b.n	8003e04 <HAL_I2C_Mem_Read+0x430>
    }
    else if (hi2c->XferSize == 2U)
 8003b22:	68fb      	ldr	r3, [r7, #12]
 8003b24:	8d1b      	ldrh	r3, [r3, #40]	@ 0x28
 8003b26:	2b02      	cmp	r3, #2
 8003b28:	d11b      	bne.n	8003b62 <HAL_I2C_Mem_Read+0x18e>
    {
      /* Disable Acknowledge */
      CLEAR_BIT(hi2c->Instance->CR1, I2C_CR1_ACK);
 8003b2a:	68fb      	ldr	r3, [r7, #12]
 8003b2c:	681b      	ldr	r3, [r3, #0]
 8003b2e:	681a      	ldr	r2, [r3, #0]
 8003b30:	68fb      	ldr	r3, [r7, #12]
 8003b32:	681b      	ldr	r3, [r3, #0]
 8003b34:	f422 6280 	bic.w	r2, r2, #1024	@ 0x400
 8003b38:	601a      	str	r2, [r3, #0]

      /* Enable Pos */
      SET_BIT(hi2c->Instance->CR1, I2C_CR1_POS);
 8003b3a:	68fb      	ldr	r3, [r7, #12]
 8003b3c:	681b      	ldr	r3, [r3, #0]
 8003b3e:	681a      	ldr	r2, [r3, #0]
 8003b40:	68fb      	ldr	r3, [r7, #12]
 8003b42:	681b      	ldr	r3, [r3, #0]
 8003b44:	f442 6200 	orr.w	r2, r2, #2048	@ 0x800
 8003b48:	601a      	str	r2, [r3, #0]

      /* Clear ADDR flag */
      __HAL_I2C_CLEAR_ADDRFLAG(hi2c);
 8003b4a:	2300      	movs	r3, #0
 8003b4c:	61bb      	str	r3, [r7, #24]
 8003b4e:	68fb      	ldr	r3, [r7, #12]
 8003b50:	681b      	ldr	r3, [r3, #0]
 8003b52:	695b      	ldr	r3, [r3, #20]
 8003b54:	61bb      	str	r3, [r7, #24]
 8003b56:	68fb      	ldr	r3, [r7, #12]
 8003b58:	681b      	ldr	r3, [r3, #0]
 8003b5a:	699b      	ldr	r3, [r3, #24]
 8003b5c:	61bb      	str	r3, [r7, #24]
 8003b5e:	69bb      	ldr	r3, [r7, #24]
 8003b60:	e150      	b.n	8003e04 <HAL_I2C_Mem_Read+0x430>
    }
    else
    {
      /* Clear ADDR flag */
      __HAL_I2C_CLEAR_ADDRFLAG(hi2c);
 8003b62:	2300      	movs	r3, #0
 8003b64:	617b      	str	r3, [r7, #20]
 8003b66:	68fb      	ldr	r3, [r7, #12]
 8003b68:	681b      	ldr	r3, [r3, #0]
 8003b6a:	695b      	ldr	r3, [r3, #20]
 8003b6c:	617b      	str	r3, [r7, #20]
 8003b6e:	68fb      	ldr	r3, [r7, #12]
 8003b70:	681b      	ldr	r3, [r3, #0]
 8003b72:	699b      	ldr	r3, [r3, #24]
 8003b74:	617b      	str	r3, [r7, #20]
 8003b76:	697b      	ldr	r3, [r7, #20]
    }

    while (hi2c->XferSize > 0U)
 8003b78:	e144      	b.n	8003e04 <HAL_I2C_Mem_Read+0x430>
    {
      if (hi2c->XferSize <= 3U)
 8003b7a:	68fb      	ldr	r3, [r7, #12]
 8003b7c:	8d1b      	ldrh	r3, [r3, #40]	@ 0x28
 8003b7e:	2b03      	cmp	r3, #3
 8003b80:	f200 80f1 	bhi.w	8003d66 <HAL_I2C_Mem_Read+0x392>
      {
        /* One byte */
        if (hi2c->XferSize == 1U)
 8003b84:	68fb      	ldr	r3, [r7, #12]
 8003b86:	8d1b      	ldrh	r3, [r3, #40]	@ 0x28
 8003b88:	2b01      	cmp	r3, #1
 8003b8a:	d123      	bne.n	8003bd4 <HAL_I2C_Mem_Read+0x200>
        {
          /* Wait until RXNE flag is set */
          if (I2C_WaitOnRXNEFlagUntilTimeout(hi2c, Timeout, tickstart) != HAL_OK)
 8003b8c:	6a7a      	ldr	r2, [r7, #36]	@ 0x24
 8003b8e:	6bb9      	ldr	r1, [r7, #56]	@ 0x38
 8003b90:	68f8      	ldr	r0, [r7, #12]
 8003b92:	f000 fc79 	bl	8004488 <I2C_WaitOnRXNEFlagUntilTimeout>
 8003b96:	4603      	mov	r3, r0
 8003b98:	2b00      	cmp	r3, #0
 8003b9a:	d001      	beq.n	8003ba0 <HAL_I2C_Mem_Read+0x1cc>
          {
            return HAL_ERROR;
 8003b9c:	2301      	movs	r3, #1
 8003b9e:	e145      	b.n	8003e2c <HAL_I2C_Mem_Read+0x458>
          }

          /* Read data from DR */
          *hi2c->pBuffPtr = (uint8_t)hi2c->Instance->DR;
 8003ba0:	68fb      	ldr	r3, [r7, #12]
 8003ba2:	681b      	ldr	r3, [r3, #0]
 8003ba4:	691a      	ldr	r2, [r3, #16]
 8003ba6:	68fb      	ldr	r3, [r7, #12]
 8003ba8:	6a5b      	ldr	r3, [r3, #36]	@ 0x24
 8003baa:	b2d2      	uxtb	r2, r2
 8003bac:	701a      	strb	r2, [r3, #0]

          /* Increment Buffer pointer */
          hi2c->pBuffPtr++;
 8003bae:	68fb      	ldr	r3, [r7, #12]
 8003bb0:	6a5b      	ldr	r3, [r3, #36]	@ 0x24
 8003bb2:	1c5a      	adds	r2, r3, #1
 8003bb4:	68fb      	ldr	r3, [r7, #12]
 8003bb6:	625a      	str	r2, [r3, #36]	@ 0x24

          /* Update counter */
          hi2c->XferSize--;
 8003bb8:	68fb      	ldr	r3, [r7, #12]
 8003bba:	8d1b      	ldrh	r3, [r3, #40]	@ 0x28
 8003bbc:	3b01      	subs	r3, #1
 8003bbe:	b29a      	uxth	r2, r3
 8003bc0:	68fb      	ldr	r3, [r7, #12]
 8003bc2:	851a      	strh	r2, [r3, #40]	@ 0x28
          hi2c->XferCount--;
 8003bc4:	68fb      	ldr	r3, [r7, #12]
 8003bc6:	8d5b      	ldrh	r3, [r3, #42]	@ 0x2a
 8003bc8:	b29b      	uxth	r3, r3
 8003bca:	3b01      	subs	r3, #1
 8003bcc:	b29a      	uxth	r2, r3
 8003bce:	68fb      	ldr	r3, [r7, #12]
 8003bd0:	855a      	strh	r2, [r3, #42]	@ 0x2a
 8003bd2:	e117      	b.n	8003e04 <HAL_I2C_Mem_Read+0x430>
        }
        /* Two bytes */
        else if (hi2c->XferSize == 2U)
 8003bd4:	68fb      	ldr	r3, [r7, #12]
 8003bd6:	8d1b      	ldrh	r3, [r3, #40]	@ 0x28
 8003bd8:	2b02      	cmp	r3, #2
 8003bda:	d14e      	bne.n	8003c7a <HAL_I2C_Mem_Read+0x2a6>
        {
          /* Wait until BTF flag is set */
          if (I2C_WaitOnFlagUntilTimeout(hi2c, I2C_FLAG_BTF, RESET, Timeout, tickstart) != HAL_OK)
 8003bdc:	6a7b      	ldr	r3, [r7, #36]	@ 0x24
 8003bde:	9300      	str	r3, [sp, #0]
 8003be0:	6bbb      	ldr	r3, [r7, #56]	@ 0x38
 8003be2:	2200      	movs	r2, #0
 8003be4:	4906      	ldr	r1, [pc, #24]	@ (8003c00 <HAL_I2C_Mem_Read+0x22c>)
 8003be6:	68f8      	ldr	r0, [r7, #12]
 8003be8:	f000 faa4 	bl	8004134 <I2C_WaitOnFlagUntilTimeout>
 8003bec:	4603      	mov	r3, r0
 8003bee:	2b00      	cmp	r3, #0
 8003bf0:	d008      	beq.n	8003c04 <HAL_I2C_Mem_Read+0x230>
          {
            return HAL_ERROR;
 8003bf2:	2301      	movs	r3, #1
 8003bf4:	e11a      	b.n	8003e2c <HAL_I2C_Mem_Read+0x458>
 8003bf6:	bf00      	nop
 8003bf8:	00100002 	.word	0x00100002
 8003bfc:	ffff0000 	.word	0xffff0000
 8003c00:	00010004 	.word	0x00010004
          }

          /* Generate Stop */
          SET_BIT(hi2c->Instance->CR1, I2C_CR1_STOP);
 8003c04:	68fb      	ldr	r3, [r7, #12]
 8003c06:	681b      	ldr	r3, [r3, #0]
 8003c08:	681a      	ldr	r2, [r3, #0]
 8003c0a:	68fb      	ldr	r3, [r7, #12]
 8003c0c:	681b      	ldr	r3, [r3, #0]
 8003c0e:	f442 7200 	orr.w	r2, r2, #512	@ 0x200
 8003c12:	601a      	str	r2, [r3, #0]

          /* Read data from DR */
          *hi2c->pBuffPtr = (uint8_t)hi2c->Instance->DR;
 8003c14:	68fb      	ldr	r3, [r7, #12]
 8003c16:	681b      	ldr	r3, [r3, #0]
 8003c18:	691a      	ldr	r2, [r3, #16]
 8003c1a:	68fb      	ldr	r3, [r7, #12]
 8003c1c:	6a5b      	ldr	r3, [r3, #36]	@ 0x24
 8003c1e:	b2d2      	uxtb	r2, r2
 8003c20:	701a      	strb	r2, [r3, #0]

          /* Increment Buffer pointer */
          hi2c->pBuffPtr++;
 8003c22:	68fb      	ldr	r3, [r7, #12]
 8003c24:	6a5b      	ldr	r3, [r3, #36]	@ 0x24
 8003c26:	1c5a      	adds	r2, r3, #1
 8003c28:	68fb      	ldr	r3, [r7, #12]
 8003c2a:	625a      	str	r2, [r3, #36]	@ 0x24

          /* Update counter */
          hi2c->XferSize--;
 8003c2c:	68fb      	ldr	r3, [r7, #12]
 8003c2e:	8d1b      	ldrh	r3, [r3, #40]	@ 0x28
 8003c30:	3b01      	subs	r3, #1
 8003c32:	b29a      	uxth	r2, r3
 8003c34:	68fb      	ldr	r3, [r7, #12]
 8003c36:	851a      	strh	r2, [r3, #40]	@ 0x28
          hi2c->XferCount--;
 8003c38:	68fb      	ldr	r3, [r7, #12]
 8003c3a:	8d5b      	ldrh	r3, [r3, #42]	@ 0x2a
 8003c3c:	b29b      	uxth	r3, r3
 8003c3e:	3b01      	subs	r3, #1
 8003c40:	b29a      	uxth	r2, r3
 8003c42:	68fb      	ldr	r3, [r7, #12]
 8003c44:	855a      	strh	r2, [r3, #42]	@ 0x2a

          /* Read data from DR */
          *hi2c->pBuffPtr = (uint8_t)hi2c->Instance->DR;
 8003c46:	68fb      	ldr	r3, [r7, #12]
 8003c48:	681b      	ldr	r3, [r3, #0]
 8003c4a:	691a      	ldr	r2, [r3, #16]
 8003c4c:	68fb      	ldr	r3, [r7, #12]
 8003c4e:	6a5b      	ldr	r3, [r3, #36]	@ 0x24
 8003c50:	b2d2      	uxtb	r2, r2
 8003c52:	701a      	strb	r2, [r3, #0]

          /* Increment Buffer pointer */
          hi2c->pBuffPtr++;
 8003c54:	68fb      	ldr	r3, [r7, #12]
 8003c56:	6a5b      	ldr	r3, [r3, #36]	@ 0x24
 8003c58:	1c5a      	adds	r2, r3, #1
 8003c5a:	68fb      	ldr	r3, [r7, #12]
 8003c5c:	625a      	str	r2, [r3, #36]	@ 0x24

          /* Update counter */
          hi2c->XferSize--;
 8003c5e:	68fb      	ldr	r3, [r7, #12]
 8003c60:	8d1b      	ldrh	r3, [r3, #40]	@ 0x28
 8003c62:	3b01      	subs	r3, #1
 8003c64:	b29a      	uxth	r2, r3
 8003c66:	68fb      	ldr	r3, [r7, #12]
 8003c68:	851a      	strh	r2, [r3, #40]	@ 0x28
          hi2c->XferCount--;
 8003c6a:	68fb      	ldr	r3, [r7, #12]
 8003c6c:	8d5b      	ldrh	r3, [r3, #42]	@ 0x2a
 8003c6e:	b29b      	uxth	r3, r3
 8003c70:	3b01      	subs	r3, #1
 8003c72:	b29a      	uxth	r2, r3
 8003c74:	68fb      	ldr	r3, [r7, #12]
 8003c76:	855a      	strh	r2, [r3, #42]	@ 0x2a
 8003c78:	e0c4      	b.n	8003e04 <HAL_I2C_Mem_Read+0x430>
        }
        /* 3 Last bytes */
        else
        {
          /* Wait until BTF flag is set */
          if (I2C_WaitOnFlagUntilTimeout(hi2c, I2C_FLAG_BTF, RESET, Timeout, tickstart) != HAL_OK)
 8003c7a:	6a7b      	ldr	r3, [r7, #36]	@ 0x24
 8003c7c:	9300      	str	r3, [sp, #0]
 8003c7e:	6bbb      	ldr	r3, [r7, #56]	@ 0x38
 8003c80:	2200      	movs	r2, #0
 8003c82:	496c      	ldr	r1, [pc, #432]	@ (8003e34 <HAL_I2C_Mem_Read+0x460>)
 8003c84:	68f8      	ldr	r0, [r7, #12]
 8003c86:	f000 fa55 	bl	8004134 <I2C_WaitOnFlagUntilTimeout>
 8003c8a:	4603      	mov	r3, r0
 8003c8c:	2b00      	cmp	r3, #0
 8003c8e:	d001      	beq.n	8003c94 <HAL_I2C_Mem_Read+0x2c0>
          {
            return HAL_ERROR;
 8003c90:	2301      	movs	r3, #1
 8003c92:	e0cb      	b.n	8003e2c <HAL_I2C_Mem_Read+0x458>
          }

          /* Disable Acknowledge */
          CLEAR_BIT(hi2c->Instance->CR1, I2C_CR1_ACK);
 8003c94:	68fb      	ldr	r3, [r7, #12]
 8003c96:	681b      	ldr	r3, [r3, #0]
 8003c98:	681a      	ldr	r2, [r3, #0]
 8003c9a:	68fb      	ldr	r3, [r7, #12]
 8003c9c:	681b      	ldr	r3, [r3, #0]
 8003c9e:	f422 6280 	bic.w	r2, r2, #1024	@ 0x400
 8003ca2:	601a      	str	r2, [r3, #0]

          /* Read data from DR */
          *hi2c->pBuffPtr = (uint8_t)hi2c->Instance->DR;
 8003ca4:	68fb      	ldr	r3, [r7, #12]
 8003ca6:	681b      	ldr	r3, [r3, #0]
 8003ca8:	691a      	ldr	r2, [r3, #16]
 8003caa:	68fb      	ldr	r3, [r7, #12]
 8003cac:	6a5b      	ldr	r3, [r3, #36]	@ 0x24
 8003cae:	b2d2      	uxtb	r2, r2
 8003cb0:	701a      	strb	r2, [r3, #0]

          /* Increment Buffer pointer */
          hi2c->pBuffPtr++;
 8003cb2:	68fb      	ldr	r3, [r7, #12]
 8003cb4:	6a5b      	ldr	r3, [r3, #36]	@ 0x24
 8003cb6:	1c5a      	adds	r2, r3, #1
 8003cb8:	68fb      	ldr	r3, [r7, #12]
 8003cba:	625a      	str	r2, [r3, #36]	@ 0x24

          /* Update counter */
          hi2c->XferSize--;
 8003cbc:	68fb      	ldr	r3, [r7, #12]
 8003cbe:	8d1b      	ldrh	r3, [r3, #40]	@ 0x28
 8003cc0:	3b01      	subs	r3, #1
 8003cc2:	b29a      	uxth	r2, r3
 8003cc4:	68fb      	ldr	r3, [r7, #12]
 8003cc6:	851a      	strh	r2, [r3, #40]	@ 0x28
          hi2c->XferCount--;
 8003cc8:	68fb      	ldr	r3, [r7, #12]
 8003cca:	8d5b      	ldrh	r3, [r3, #42]	@ 0x2a
 8003ccc:	b29b      	uxth	r3, r3
 8003cce:	3b01      	subs	r3, #1
 8003cd0:	b29a      	uxth	r2, r3
 8003cd2:	68fb      	ldr	r3, [r7, #12]
 8003cd4:	855a      	strh	r2, [r3, #42]	@ 0x2a

          /* Wait until BTF flag is set */
          if (I2C_WaitOnFlagUntilTimeout(hi2c, I2C_FLAG_BTF, RESET, Timeout, tickstart) != HAL_OK)
 8003cd6:	6a7b      	ldr	r3, [r7, #36]	@ 0x24
 8003cd8:	9300      	str	r3, [sp, #0]
 8003cda:	6bbb      	ldr	r3, [r7, #56]	@ 0x38
 8003cdc:	2200      	movs	r2, #0
 8003cde:	4955      	ldr	r1, [pc, #340]	@ (8003e34 <HAL_I2C_Mem_Read+0x460>)
 8003ce0:	68f8      	ldr	r0, [r7, #12]
 8003ce2:	f000 fa27 	bl	8004134 <I2C_WaitOnFlagUntilTimeout>
 8003ce6:	4603      	mov	r3, r0
 8003ce8:	2b00      	cmp	r3, #0
 8003cea:	d001      	beq.n	8003cf0 <HAL_I2C_Mem_Read+0x31c>
          {
            return HAL_ERROR;
 8003cec:	2301      	movs	r3, #1
 8003cee:	e09d      	b.n	8003e2c <HAL_I2C_Mem_Read+0x458>
          }

          /* Generate Stop */
          SET_BIT(hi2c->Instance->CR1, I2C_CR1_STOP);
 8003cf0:	68fb      	ldr	r3, [r7, #12]
 8003cf2:	681b      	ldr	r3, [r3, #0]
 8003cf4:	681a      	ldr	r2, [r3, #0]
 8003cf6:	68fb      	ldr	r3, [r7, #12]
 8003cf8:	681b      	ldr	r3, [r3, #0]
 8003cfa:	f442 7200 	orr.w	r2, r2, #512	@ 0x200
 8003cfe:	601a      	str	r2, [r3, #0]

          /* Read data from DR */
          *hi2c->pBuffPtr = (uint8_t)hi2c->Instance->DR;
 8003d00:	68fb      	ldr	r3, [r7, #12]
 8003d02:	681b      	ldr	r3, [r3, #0]
 8003d04:	691a      	ldr	r2, [r3, #16]
 8003d06:	68fb      	ldr	r3, [r7, #12]
 8003d08:	6a5b      	ldr	r3, [r3, #36]	@ 0x24
 8003d0a:	b2d2      	uxtb	r2, r2
 8003d0c:	701a      	strb	r2, [r3, #0]

          /* Increment Buffer pointer */
          hi2c->pBuffPtr++;
 8003d0e:	68fb      	ldr	r3, [r7, #12]
 8003d10:	6a5b      	ldr	r3, [r3, #36]	@ 0x24
 8003d12:	1c5a      	adds	r2, r3, #1
 8003d14:	68fb      	ldr	r3, [r7, #12]
 8003d16:	625a      	str	r2, [r3, #36]	@ 0x24

          /* Update counter */
          hi2c->XferSize--;
 8003d18:	68fb      	ldr	r3, [r7, #12]
 8003d1a:	8d1b      	ldrh	r3, [r3, #40]	@ 0x28
 8003d1c:	3b01      	subs	r3, #1
 8003d1e:	b29a      	uxth	r2, r3
 8003d20:	68fb      	ldr	r3, [r7, #12]
 8003d22:	851a      	strh	r2, [r3, #40]	@ 0x28
          hi2c->XferCount--;
 8003d24:	68fb      	ldr	r3, [r7, #12]
 8003d26:	8d5b      	ldrh	r3, [r3, #42]	@ 0x2a
 8003d28:	b29b      	uxth	r3, r3
 8003d2a:	3b01      	subs	r3, #1
 8003d2c:	b29a      	uxth	r2, r3
 8003d2e:	68fb      	ldr	r3, [r7, #12]
 8003d30:	855a      	strh	r2, [r3, #42]	@ 0x2a

          /* Read data from DR */
          *hi2c->pBuffPtr = (uint8_t)hi2c->Instance->DR;
 8003d32:	68fb      	ldr	r3, [r7, #12]
 8003d34:	681b      	ldr	r3, [r3, #0]
 8003d36:	691a      	ldr	r2, [r3, #16]
 8003d38:	68fb      	ldr	r3, [r7, #12]
 8003d3a:	6a5b      	ldr	r3, [r3, #36]	@ 0x24
 8003d3c:	b2d2      	uxtb	r2, r2
 8003d3e:	701a      	strb	r2, [r3, #0]

          /* Increment Buffer pointer */
          hi2c->pBuffPtr++;
 8003d40:	68fb      	ldr	r3, [r7, #12]
 8003d42:	6a5b      	ldr	r3, [r3, #36]	@ 0x24
 8003d44:	1c5a      	adds	r2, r3, #1
 8003d46:	68fb      	ldr	r3, [r7, #12]
 8003d48:	625a      	str	r2, [r3, #36]	@ 0x24

          /* Update counter */
          hi2c->XferSize--;
 8003d4a:	68fb      	ldr	r3, [r7, #12]
 8003d4c:	8d1b      	ldrh	r3, [r3, #40]	@ 0x28
 8003d4e:	3b01      	subs	r3, #1
 8003d50:	b29a      	uxth	r2, r3
 8003d52:	68fb      	ldr	r3, [r7, #12]
 8003d54:	851a      	strh	r2, [r3, #40]	@ 0x28
          hi2c->XferCount--;
 8003d56:	68fb      	ldr	r3, [r7, #12]
 8003d58:	8d5b      	ldrh	r3, [r3, #42]	@ 0x2a
 8003d5a:	b29b      	uxth	r3, r3
 8003d5c:	3b01      	subs	r3, #1
 8003d5e:	b29a      	uxth	r2, r3
 8003d60:	68fb      	ldr	r3, [r7, #12]
 8003d62:	855a      	strh	r2, [r3, #42]	@ 0x2a
 8003d64:	e04e      	b.n	8003e04 <HAL_I2C_Mem_Read+0x430>
        }
      }
      else
      {
        /* Wait until RXNE flag is set */
        if (I2C_WaitOnRXNEFlagUntilTimeout(hi2c, Timeout, tickstart) != HAL_OK)
 8003d66:	6a7a      	ldr	r2, [r7, #36]	@ 0x24
 8003d68:	6bb9      	ldr	r1, [r7, #56]	@ 0x38
 8003d6a:	68f8      	ldr	r0, [r7, #12]
 8003d6c:	f000 fb8c 	bl	8004488 <I2C_WaitOnRXNEFlagUntilTimeout>
 8003d70:	4603      	mov	r3, r0
 8003d72:	2b00      	cmp	r3, #0
 8003d74:	d001      	beq.n	8003d7a <HAL_I2C_Mem_Read+0x3a6>
        {
          return HAL_ERROR;
 8003d76:	2301      	movs	r3, #1
 8003d78:	e058      	b.n	8003e2c <HAL_I2C_Mem_Read+0x458>
        }

        /* Read data from DR */
        *hi2c->pBuffPtr = (uint8_t)hi2c->Instance->DR;
 8003d7a:	68fb      	ldr	r3, [r7, #12]
 8003d7c:	681b      	ldr	r3, [r3, #0]
 8003d7e:	691a      	ldr	r2, [r3, #16]
 8003d80:	68fb      	ldr	r3, [r7, #12]
 8003d82:	6a5b      	ldr	r3, [r3, #36]	@ 0x24
 8003d84:	b2d2      	uxtb	r2, r2
 8003d86:	701a      	strb	r2, [r3, #0]

        /* Increment Buffer pointer */
        hi2c->pBuffPtr++;
 8003d88:	68fb      	ldr	r3, [r7, #12]
 8003d8a:	6a5b      	ldr	r3, [r3, #36]	@ 0x24
 8003d8c:	1c5a      	adds	r2, r3, #1
 8003d8e:	68fb      	ldr	r3, [r7, #12]
 8003d90:	625a      	str	r2, [r3, #36]	@ 0x24

        /* Update counter */
        hi2c->XferSize--;
 8003d92:	68fb      	ldr	r3, [r7, #12]
 8003d94:	8d1b      	ldrh	r3, [r3, #40]	@ 0x28
 8003d96:	3b01      	subs	r3, #1
 8003d98:	b29a      	uxth	r2, r3
 8003d9a:	68fb      	ldr	r3, [r7, #12]
 8003d9c:	851a      	strh	r2, [r3, #40]	@ 0x28
        hi2c->XferCount--;
 8003d9e:	68fb      	ldr	r3, [r7, #12]
 8003da0:	8d5b      	ldrh	r3, [r3, #42]	@ 0x2a
 8003da2:	b29b      	uxth	r3, r3
 8003da4:	3b01      	subs	r3, #1
 8003da6:	b29a      	uxth	r2, r3
 8003da8:	68fb      	ldr	r3, [r7, #12]
 8003daa:	855a      	strh	r2, [r3, #42]	@ 0x2a

        if (__HAL_I2C_GET_FLAG(hi2c, I2C_FLAG_BTF) == SET)
 8003dac:	68fb      	ldr	r3, [r7, #12]
 8003dae:	681b      	ldr	r3, [r3, #0]
 8003db0:	695b      	ldr	r3, [r3, #20]
 8003db2:	f003 0304 	and.w	r3, r3, #4
 8003db6:	2b04      	cmp	r3, #4
 8003db8:	d124      	bne.n	8003e04 <HAL_I2C_Mem_Read+0x430>
        {
          if (hi2c->XferSize == 3U)
 8003dba:	68fb      	ldr	r3, [r7, #12]
 8003dbc:	8d1b      	ldrh	r3, [r3, #40]	@ 0x28
 8003dbe:	2b03      	cmp	r3, #3
 8003dc0:	d107      	bne.n	8003dd2 <HAL_I2C_Mem_Read+0x3fe>
          {
            /* Disable Acknowledge */
            CLEAR_BIT(hi2c->Instance->CR1, I2C_CR1_ACK);
 8003dc2:	68fb      	ldr	r3, [r7, #12]
 8003dc4:	681b      	ldr	r3, [r3, #0]
 8003dc6:	681a      	ldr	r2, [r3, #0]
 8003dc8:	68fb      	ldr	r3, [r7, #12]
 8003dca:	681b      	ldr	r3, [r3, #0]
 8003dcc:	f422 6280 	bic.w	r2, r2, #1024	@ 0x400
 8003dd0:	601a      	str	r2, [r3, #0]
          }
          /* Read data from DR */
          *hi2c->pBuffPtr = (uint8_t)hi2c->Instance->DR;
 8003dd2:	68fb      	ldr	r3, [r7, #12]
 8003dd4:	681b      	ldr	r3, [r3, #0]
 8003dd6:	691a      	ldr	r2, [r3, #16]
 8003dd8:	68fb      	ldr	r3, [r7, #12]
 8003dda:	6a5b      	ldr	r3, [r3, #36]	@ 0x24
 8003ddc:	b2d2      	uxtb	r2, r2
 8003dde:	701a      	strb	r2, [r3, #0]

          /* Increment Buffer pointer */
          hi2c->pBuffPtr++;
 8003de0:	68fb      	ldr	r3, [r7, #12]
 8003de2:	6a5b      	ldr	r3, [r3, #36]	@ 0x24
 8003de4:	1c5a      	adds	r2, r3, #1
 8003de6:	68fb      	ldr	r3, [r7, #12]
 8003de8:	625a      	str	r2, [r3, #36]	@ 0x24

          /* Update counter */
          hi2c->XferSize--;
 8003dea:	68fb      	ldr	r3, [r7, #12]
 8003dec:	8d1b      	ldrh	r3, [r3, #40]	@ 0x28
 8003dee:	3b01      	subs	r3, #1
 8003df0:	b29a      	uxth	r2, r3
 8003df2:	68fb      	ldr	r3, [r7, #12]
 8003df4:	851a      	strh	r2, [r3, #40]	@ 0x28
          hi2c->XferCount--;
 8003df6:	68fb      	ldr	r3, [r7, #12]
 8003df8:	8d5b      	ldrh	r3, [r3, #42]	@ 0x2a
 8003dfa:	b29b      	uxth	r3, r3
 8003dfc:	3b01      	subs	r3, #1
 8003dfe:	b29a      	uxth	r2, r3
 8003e00:	68fb      	ldr	r3, [r7, #12]
 8003e02:	855a      	strh	r2, [r3, #42]	@ 0x2a
    while (hi2c->XferSize > 0U)
 8003e04:	68fb      	ldr	r3, [r7, #12]
 8003e06:	8d1b      	ldrh	r3, [r3, #40]	@ 0x28
 8003e08:	2b00      	cmp	r3, #0
 8003e0a:	f47f aeb6 	bne.w	8003b7a <HAL_I2C_Mem_Read+0x1a6>
        }
      }
    }

    hi2c->State = HAL_I2C_STATE_READY;
 8003e0e:	68fb      	ldr	r3, [r7, #12]
 8003e10:	2220      	movs	r2, #32
 8003e12:	f883 203d 	strb.w	r2, [r3, #61]	@ 0x3d
    hi2c->Mode = HAL_I2C_MODE_NONE;
 8003e16:	68fb      	ldr	r3, [r7, #12]
 8003e18:	2200      	movs	r2, #0
 8003e1a:	f883 203e 	strb.w	r2, [r3, #62]	@ 0x3e

    /* Process Unlocked */
    __HAL_UNLOCK(hi2c);
 8003e1e:	68fb      	ldr	r3, [r7, #12]
 8003e20:	2200      	movs	r2, #0
 8003e22:	f883 203c 	strb.w	r2, [r3, #60]	@ 0x3c

    return HAL_OK;
 8003e26:	2300      	movs	r3, #0
 8003e28:	e000      	b.n	8003e2c <HAL_I2C_Mem_Read+0x458>
  }
  else
  {
    return HAL_BUSY;
 8003e2a:	2302      	movs	r3, #2
  }
}
 8003e2c:	4618      	mov	r0, r3
 8003e2e:	3728      	adds	r7, #40	@ 0x28
 8003e30:	46bd      	mov	sp, r7
 8003e32:	bd80      	pop	{r7, pc}
 8003e34:	00010004 	.word	0x00010004

08003e38 <I2C_RequestMemoryWrite>:
  * @param  Timeout Timeout duration
  * @param  Tickstart Tick start value
  * @retval HAL status
  */
static HAL_StatusTypeDef I2C_RequestMemoryWrite(I2C_HandleTypeDef *hi2c, uint16_t DevAddress, uint16_t MemAddress, uint16_t MemAddSize, uint32_t Timeout, uint32_t Tickstart)
{
 8003e38:	b580      	push	{r7, lr}
 8003e3a:	b088      	sub	sp, #32
 8003e3c:	af02      	add	r7, sp, #8
 8003e3e:	60f8      	str	r0, [r7, #12]
 8003e40:	4608      	mov	r0, r1
 8003e42:	4611      	mov	r1, r2
 8003e44:	461a      	mov	r2, r3
 8003e46:	4603      	mov	r3, r0
 8003e48:	817b      	strh	r3, [r7, #10]
 8003e4a:	460b      	mov	r3, r1
 8003e4c:	813b      	strh	r3, [r7, #8]
 8003e4e:	4613      	mov	r3, r2
 8003e50:	80fb      	strh	r3, [r7, #6]
  /* Generate Start */
  SET_BIT(hi2c->Instance->CR1, I2C_CR1_START);
 8003e52:	68fb      	ldr	r3, [r7, #12]
 8003e54:	681b      	ldr	r3, [r3, #0]
 8003e56:	681a      	ldr	r2, [r3, #0]
 8003e58:	68fb      	ldr	r3, [r7, #12]
 8003e5a:	681b      	ldr	r3, [r3, #0]
 8003e5c:	f442 7280 	orr.w	r2, r2, #256	@ 0x100
 8003e60:	601a      	str	r2, [r3, #0]

  /* Wait until SB flag is set */
  if (I2C_WaitOnFlagUntilTimeout(hi2c, I2C_FLAG_SB, RESET, Timeout, Tickstart) != HAL_OK)
 8003e62:	6a7b      	ldr	r3, [r7, #36]	@ 0x24
 8003e64:	9300      	str	r3, [sp, #0]
 8003e66:	6a3b      	ldr	r3, [r7, #32]
 8003e68:	2200      	movs	r2, #0
 8003e6a:	f04f 1101 	mov.w	r1, #65537	@ 0x10001
 8003e6e:	68f8      	ldr	r0, [r7, #12]
 8003e70:	f000 f960 	bl	8004134 <I2C_WaitOnFlagUntilTimeout>
 8003e74:	4603      	mov	r3, r0
 8003e76:	2b00      	cmp	r3, #0
 8003e78:	d00d      	beq.n	8003e96 <I2C_RequestMemoryWrite+0x5e>
  {
    if (READ_BIT(hi2c->Instance->CR1, I2C_CR1_START) == I2C_CR1_START)
 8003e7a:	68fb      	ldr	r3, [r7, #12]
 8003e7c:	681b      	ldr	r3, [r3, #0]
 8003e7e:	681b      	ldr	r3, [r3, #0]
 8003e80:	f403 7380 	and.w	r3, r3, #256	@ 0x100
 8003e84:	f5b3 7f80 	cmp.w	r3, #256	@ 0x100
 8003e88:	d103      	bne.n	8003e92 <I2C_RequestMemoryWrite+0x5a>
    {
      hi2c->ErrorCode = HAL_I2C_WRONG_START;
 8003e8a:	68fb      	ldr	r3, [r7, #12]
 8003e8c:	f44f 7200 	mov.w	r2, #512	@ 0x200
 8003e90:	641a      	str	r2, [r3, #64]	@ 0x40
    }
    return HAL_TIMEOUT;
 8003e92:	2303      	movs	r3, #3
 8003e94:	e05f      	b.n	8003f56 <I2C_RequestMemoryWrite+0x11e>
  }

  /* Send slave address */
  hi2c->Instance->DR = I2C_7BIT_ADD_WRITE(DevAddress);
 8003e96:	897b      	ldrh	r3, [r7, #10]
 8003e98:	b2db      	uxtb	r3, r3
 8003e9a:	461a      	mov	r2, r3
 8003e9c:	68fb      	ldr	r3, [r7, #12]
 8003e9e:	681b      	ldr	r3, [r3, #0]
 8003ea0:	f002 02fe 	and.w	r2, r2, #254	@ 0xfe
 8003ea4:	611a      	str	r2, [r3, #16]

  /* Wait until ADDR flag is set */
  if (I2C_WaitOnMasterAddressFlagUntilTimeout(hi2c, I2C_FLAG_ADDR, Timeout, Tickstart) != HAL_OK)
 8003ea6:	6a7b      	ldr	r3, [r7, #36]	@ 0x24
 8003ea8:	6a3a      	ldr	r2, [r7, #32]
 8003eaa:	492d      	ldr	r1, [pc, #180]	@ (8003f60 <I2C_RequestMemoryWrite+0x128>)
 8003eac:	68f8      	ldr	r0, [r7, #12]
 8003eae:	f000 f9bb 	bl	8004228 <I2C_WaitOnMasterAddressFlagUntilTimeout>
 8003eb2:	4603      	mov	r3, r0
 8003eb4:	2b00      	cmp	r3, #0
 8003eb6:	d001      	beq.n	8003ebc <I2C_RequestMemoryWrite+0x84>
  {
    return HAL_ERROR;
 8003eb8:	2301      	movs	r3, #1
 8003eba:	e04c      	b.n	8003f56 <I2C_RequestMemoryWrite+0x11e>
  }

  /* Clear ADDR flag */
  __HAL_I2C_CLEAR_ADDRFLAG(hi2c);
 8003ebc:	2300      	movs	r3, #0
 8003ebe:	617b      	str	r3, [r7, #20]
 8003ec0:	68fb      	ldr	r3, [r7, #12]
 8003ec2:	681b      	ldr	r3, [r3, #0]
 8003ec4:	695b      	ldr	r3, [r3, #20]
 8003ec6:	617b      	str	r3, [r7, #20]
 8003ec8:	68fb      	ldr	r3, [r7, #12]
 8003eca:	681b      	ldr	r3, [r3, #0]
 8003ecc:	699b      	ldr	r3, [r3, #24]
 8003ece:	617b      	str	r3, [r7, #20]
 8003ed0:	697b      	ldr	r3, [r7, #20]

  /* Wait until TXE flag is set */
  if (I2C_WaitOnTXEFlagUntilTimeout(hi2c, Timeout, Tickstart) != HAL_OK)
 8003ed2:	6a7a      	ldr	r2, [r7, #36]	@ 0x24
 8003ed4:	6a39      	ldr	r1, [r7, #32]
 8003ed6:	68f8      	ldr	r0, [r7, #12]
 8003ed8:	f000 fa46 	bl	8004368 <I2C_WaitOnTXEFlagUntilTimeout>
 8003edc:	4603      	mov	r3, r0
 8003ede:	2b00      	cmp	r3, #0
 8003ee0:	d00d      	beq.n	8003efe <I2C_RequestMemoryWrite+0xc6>
  {
    if (hi2c->ErrorCode == HAL_I2C_ERROR_AF)
 8003ee2:	68fb      	ldr	r3, [r7, #12]
 8003ee4:	6c1b      	ldr	r3, [r3, #64]	@ 0x40
 8003ee6:	2b04      	cmp	r3, #4
 8003ee8:	d107      	bne.n	8003efa <I2C_RequestMemoryWrite+0xc2>
    {
      /* Generate Stop */
      SET_BIT(hi2c->Instance->CR1, I2C_CR1_STOP);
 8003eea:	68fb      	ldr	r3, [r7, #12]
 8003eec:	681b      	ldr	r3, [r3, #0]
 8003eee:	681a      	ldr	r2, [r3, #0]
 8003ef0:	68fb      	ldr	r3, [r7, #12]
 8003ef2:	681b      	ldr	r3, [r3, #0]
 8003ef4:	f442 7200 	orr.w	r2, r2, #512	@ 0x200
 8003ef8:	601a      	str	r2, [r3, #0]
    }
    return HAL_ERROR;
 8003efa:	2301      	movs	r3, #1
 8003efc:	e02b      	b.n	8003f56 <I2C_RequestMemoryWrite+0x11e>
  }

  /* If Memory address size is 8Bit */
  if (MemAddSize == I2C_MEMADD_SIZE_8BIT)
 8003efe:	88fb      	ldrh	r3, [r7, #6]
 8003f00:	2b01      	cmp	r3, #1
 8003f02:	d105      	bne.n	8003f10 <I2C_RequestMemoryWrite+0xd8>
  {
    /* Send Memory Address */
    hi2c->Instance->DR = I2C_MEM_ADD_LSB(MemAddress);
 8003f04:	893b      	ldrh	r3, [r7, #8]
 8003f06:	b2da      	uxtb	r2, r3
 8003f08:	68fb      	ldr	r3, [r7, #12]
 8003f0a:	681b      	ldr	r3, [r3, #0]
 8003f0c:	611a      	str	r2, [r3, #16]
 8003f0e:	e021      	b.n	8003f54 <I2C_RequestMemoryWrite+0x11c>
  }
  /* If Memory address size is 16Bit */
  else
  {
    /* Send MSB of Memory Address */
    hi2c->Instance->DR = I2C_MEM_ADD_MSB(MemAddress);
 8003f10:	893b      	ldrh	r3, [r7, #8]
 8003f12:	0a1b      	lsrs	r3, r3, #8
 8003f14:	b29b      	uxth	r3, r3
 8003f16:	b2da      	uxtb	r2, r3
 8003f18:	68fb      	ldr	r3, [r7, #12]
 8003f1a:	681b      	ldr	r3, [r3, #0]
 8003f1c:	611a      	str	r2, [r3, #16]

    /* Wait until TXE flag is set */
    if (I2C_WaitOnTXEFlagUntilTimeout(hi2c, Timeout, Tickstart) != HAL_OK)
 8003f1e:	6a7a      	ldr	r2, [r7, #36]	@ 0x24
 8003f20:	6a39      	ldr	r1, [r7, #32]
 8003f22:	68f8      	ldr	r0, [r7, #12]
 8003f24:	f000 fa20 	bl	8004368 <I2C_WaitOnTXEFlagUntilTimeout>
 8003f28:	4603      	mov	r3, r0
 8003f2a:	2b00      	cmp	r3, #0
 8003f2c:	d00d      	beq.n	8003f4a <I2C_RequestMemoryWrite+0x112>
    {
      if (hi2c->ErrorCode == HAL_I2C_ERROR_AF)
 8003f2e:	68fb      	ldr	r3, [r7, #12]
 8003f30:	6c1b      	ldr	r3, [r3, #64]	@ 0x40
 8003f32:	2b04      	cmp	r3, #4
 8003f34:	d107      	bne.n	8003f46 <I2C_RequestMemoryWrite+0x10e>
      {
        /* Generate Stop */
        SET_BIT(hi2c->Instance->CR1, I2C_CR1_STOP);
 8003f36:	68fb      	ldr	r3, [r7, #12]
 8003f38:	681b      	ldr	r3, [r3, #0]
 8003f3a:	681a      	ldr	r2, [r3, #0]
 8003f3c:	68fb      	ldr	r3, [r7, #12]
 8003f3e:	681b      	ldr	r3, [r3, #0]
 8003f40:	f442 7200 	orr.w	r2, r2, #512	@ 0x200
 8003f44:	601a      	str	r2, [r3, #0]
      }
      return HAL_ERROR;
 8003f46:	2301      	movs	r3, #1
 8003f48:	e005      	b.n	8003f56 <I2C_RequestMemoryWrite+0x11e>
    }

    /* Send LSB of Memory Address */
    hi2c->Instance->DR = I2C_MEM_ADD_LSB(MemAddress);
 8003f4a:	893b      	ldrh	r3, [r7, #8]
 8003f4c:	b2da      	uxtb	r2, r3
 8003f4e:	68fb      	ldr	r3, [r7, #12]
 8003f50:	681b      	ldr	r3, [r3, #0]
 8003f52:	611a      	str	r2, [r3, #16]
  }

  return HAL_OK;
 8003f54:	2300      	movs	r3, #0
}
 8003f56:	4618      	mov	r0, r3
 8003f58:	3718      	adds	r7, #24
 8003f5a:	46bd      	mov	sp, r7
 8003f5c:	bd80      	pop	{r7, pc}
 8003f5e:	bf00      	nop
 8003f60:	00010002 	.word	0x00010002

08003f64 <I2C_RequestMemoryRead>:
  * @param  Timeout Timeout duration
  * @param  Tickstart Tick start value
  * @retval HAL status
  */
static HAL_StatusTypeDef I2C_RequestMemoryRead(I2C_HandleTypeDef *hi2c, uint16_t DevAddress, uint16_t MemAddress, uint16_t MemAddSize, uint32_t Timeout, uint32_t Tickstart)
{
 8003f64:	b580      	push	{r7, lr}
 8003f66:	b088      	sub	sp, #32
 8003f68:	af02      	add	r7, sp, #8
 8003f6a:	60f8      	str	r0, [r7, #12]
 8003f6c:	4608      	mov	r0, r1
 8003f6e:	4611      	mov	r1, r2
 8003f70:	461a      	mov	r2, r3
 8003f72:	4603      	mov	r3, r0
 8003f74:	817b      	strh	r3, [r7, #10]
 8003f76:	460b      	mov	r3, r1
 8003f78:	813b      	strh	r3, [r7, #8]
 8003f7a:	4613      	mov	r3, r2
 8003f7c:	80fb      	strh	r3, [r7, #6]
  /* Enable Acknowledge */
  SET_BIT(hi2c->Instance->CR1, I2C_CR1_ACK);
 8003f7e:	68fb      	ldr	r3, [r7, #12]
 8003f80:	681b      	ldr	r3, [r3, #0]
 8003f82:	681a      	ldr	r2, [r3, #0]
 8003f84:	68fb      	ldr	r3, [r7, #12]
 8003f86:	681b      	ldr	r3, [r3, #0]
 8003f88:	f442 6280 	orr.w	r2, r2, #1024	@ 0x400
 8003f8c:	601a      	str	r2, [r3, #0]

  /* Generate Start */
  SET_BIT(hi2c->Instance->CR1, I2C_CR1_START);
 8003f8e:	68fb      	ldr	r3, [r7, #12]
 8003f90:	681b      	ldr	r3, [r3, #0]
 8003f92:	681a      	ldr	r2, [r3, #0]
 8003f94:	68fb      	ldr	r3, [r7, #12]
 8003f96:	681b      	ldr	r3, [r3, #0]
 8003f98:	f442 7280 	orr.w	r2, r2, #256	@ 0x100
 8003f9c:	601a      	str	r2, [r3, #0]

  /* Wait until SB flag is set */
  if (I2C_WaitOnFlagUntilTimeout(hi2c, I2C_FLAG_SB, RESET, Timeout, Tickstart) != HAL_OK)
 8003f9e:	6a7b      	ldr	r3, [r7, #36]	@ 0x24
 8003fa0:	9300      	str	r3, [sp, #0]
 8003fa2:	6a3b      	ldr	r3, [r7, #32]
 8003fa4:	2200      	movs	r2, #0
 8003fa6:	f04f 1101 	mov.w	r1, #65537	@ 0x10001
 8003faa:	68f8      	ldr	r0, [r7, #12]
 8003fac:	f000 f8c2 	bl	8004134 <I2C_WaitOnFlagUntilTimeout>
 8003fb0:	4603      	mov	r3, r0
 8003fb2:	2b00      	cmp	r3, #0
 8003fb4:	d00d      	beq.n	8003fd2 <I2C_RequestMemoryRead+0x6e>
  {
    if (READ_BIT(hi2c->Instance->CR1, I2C_CR1_START) == I2C_CR1_START)
 8003fb6:	68fb      	ldr	r3, [r7, #12]
 8003fb8:	681b      	ldr	r3, [r3, #0]
 8003fba:	681b      	ldr	r3, [r3, #0]
 8003fbc:	f403 7380 	and.w	r3, r3, #256	@ 0x100
 8003fc0:	f5b3 7f80 	cmp.w	r3, #256	@ 0x100
 8003fc4:	d103      	bne.n	8003fce <I2C_RequestMemoryRead+0x6a>
    {
      hi2c->ErrorCode = HAL_I2C_WRONG_START;
 8003fc6:	68fb      	ldr	r3, [r7, #12]
 8003fc8:	f44f 7200 	mov.w	r2, #512	@ 0x200
 8003fcc:	641a      	str	r2, [r3, #64]	@ 0x40
    }
    return HAL_TIMEOUT;
 8003fce:	2303      	movs	r3, #3
 8003fd0:	e0aa      	b.n	8004128 <I2C_RequestMemoryRead+0x1c4>
  }

  /* Send slave address */
  hi2c->Instance->DR = I2C_7BIT_ADD_WRITE(DevAddress);
 8003fd2:	897b      	ldrh	r3, [r7, #10]
 8003fd4:	b2db      	uxtb	r3, r3
 8003fd6:	461a      	mov	r2, r3
 8003fd8:	68fb      	ldr	r3, [r7, #12]
 8003fda:	681b      	ldr	r3, [r3, #0]
 8003fdc:	f002 02fe 	and.w	r2, r2, #254	@ 0xfe
 8003fe0:	611a      	str	r2, [r3, #16]

  /* Wait until ADDR flag is set */
  if (I2C_WaitOnMasterAddressFlagUntilTimeout(hi2c, I2C_FLAG_ADDR, Timeout, Tickstart) != HAL_OK)
 8003fe2:	6a7b      	ldr	r3, [r7, #36]	@ 0x24
 8003fe4:	6a3a      	ldr	r2, [r7, #32]
 8003fe6:	4952      	ldr	r1, [pc, #328]	@ (8004130 <I2C_RequestMemoryRead+0x1cc>)
 8003fe8:	68f8      	ldr	r0, [r7, #12]
 8003fea:	f000 f91d 	bl	8004228 <I2C_WaitOnMasterAddressFlagUntilTimeout>
 8003fee:	4603      	mov	r3, r0
 8003ff0:	2b00      	cmp	r3, #0
 8003ff2:	d001      	beq.n	8003ff8 <I2C_RequestMemoryRead+0x94>
  {
    return HAL_ERROR;
 8003ff4:	2301      	movs	r3, #1
 8003ff6:	e097      	b.n	8004128 <I2C_RequestMemoryRead+0x1c4>
  }

  /* Clear ADDR flag */
  __HAL_I2C_CLEAR_ADDRFLAG(hi2c);
 8003ff8:	2300      	movs	r3, #0
 8003ffa:	617b      	str	r3, [r7, #20]
 8003ffc:	68fb      	ldr	r3, [r7, #12]
 8003ffe:	681b      	ldr	r3, [r3, #0]
 8004000:	695b      	ldr	r3, [r3, #20]
 8004002:	617b      	str	r3, [r7, #20]
 8004004:	68fb      	ldr	r3, [r7, #12]
 8004006:	681b      	ldr	r3, [r3, #0]
 8004008:	699b      	ldr	r3, [r3, #24]
 800400a:	617b      	str	r3, [r7, #20]
 800400c:	697b      	ldr	r3, [r7, #20]

  /* Wait until TXE flag is set */
  if (I2C_WaitOnTXEFlagUntilTimeout(hi2c, Timeout, Tickstart) != HAL_OK)
 800400e:	6a7a      	ldr	r2, [r7, #36]	@ 0x24
 8004010:	6a39      	ldr	r1, [r7, #32]
 8004012:	68f8      	ldr	r0, [r7, #12]
 8004014:	f000 f9a8 	bl	8004368 <I2C_WaitOnTXEFlagUntilTimeout>
 8004018:	4603      	mov	r3, r0
 800401a:	2b00      	cmp	r3, #0
 800401c:	d00d      	beq.n	800403a <I2C_RequestMemoryRead+0xd6>
  {
    if (hi2c->ErrorCode == HAL_I2C_ERROR_AF)
 800401e:	68fb      	ldr	r3, [r7, #12]
 8004020:	6c1b      	ldr	r3, [r3, #64]	@ 0x40
 8004022:	2b04      	cmp	r3, #4
 8004024:	d107      	bne.n	8004036 <I2C_RequestMemoryRead+0xd2>
    {
      /* Generate Stop */
      SET_BIT(hi2c->Instance->CR1, I2C_CR1_STOP);
 8004026:	68fb      	ldr	r3, [r7, #12]
 8004028:	681b      	ldr	r3, [r3, #0]
 800402a:	681a      	ldr	r2, [r3, #0]
 800402c:	68fb      	ldr	r3, [r7, #12]
 800402e:	681b      	ldr	r3, [r3, #0]
 8004030:	f442 7200 	orr.w	r2, r2, #512	@ 0x200
 8004034:	601a      	str	r2, [r3, #0]
    }
    return HAL_ERROR;
 8004036:	2301      	movs	r3, #1
 8004038:	e076      	b.n	8004128 <I2C_RequestMemoryRead+0x1c4>
  }

  /* If Memory address size is 8Bit */
  if (MemAddSize == I2C_MEMADD_SIZE_8BIT)
 800403a:	88fb      	ldrh	r3, [r7, #6]
 800403c:	2b01      	cmp	r3, #1
 800403e:	d105      	bne.n	800404c <I2C_RequestMemoryRead+0xe8>
  {
    /* Send Memory Address */
    hi2c->Instance->DR = I2C_MEM_ADD_LSB(MemAddress);
 8004040:	893b      	ldrh	r3, [r7, #8]
 8004042:	b2da      	uxtb	r2, r3
 8004044:	68fb      	ldr	r3, [r7, #12]
 8004046:	681b      	ldr	r3, [r3, #0]
 8004048:	611a      	str	r2, [r3, #16]
 800404a:	e021      	b.n	8004090 <I2C_RequestMemoryRead+0x12c>
  }
  /* If Memory address size is 16Bit */
  else
  {
    /* Send MSB of Memory Address */
    hi2c->Instance->DR = I2C_MEM_ADD_MSB(MemAddress);
 800404c:	893b      	ldrh	r3, [r7, #8]
 800404e:	0a1b      	lsrs	r3, r3, #8
 8004050:	b29b      	uxth	r3, r3
 8004052:	b2da      	uxtb	r2, r3
 8004054:	68fb      	ldr	r3, [r7, #12]
 8004056:	681b      	ldr	r3, [r3, #0]
 8004058:	611a      	str	r2, [r3, #16]

    /* Wait until TXE flag is set */
    if (I2C_WaitOnTXEFlagUntilTimeout(hi2c, Timeout, Tickstart) != HAL_OK)
 800405a:	6a7a      	ldr	r2, [r7, #36]	@ 0x24
 800405c:	6a39      	ldr	r1, [r7, #32]
 800405e:	68f8      	ldr	r0, [r7, #12]
 8004060:	f000 f982 	bl	8004368 <I2C_WaitOnTXEFlagUntilTimeout>
 8004064:	4603      	mov	r3, r0
 8004066:	2b00      	cmp	r3, #0
 8004068:	d00d      	beq.n	8004086 <I2C_RequestMemoryRead+0x122>
    {
      if (hi2c->ErrorCode == HAL_I2C_ERROR_AF)
 800406a:	68fb      	ldr	r3, [r7, #12]
 800406c:	6c1b      	ldr	r3, [r3, #64]	@ 0x40
 800406e:	2b04      	cmp	r3, #4
 8004070:	d107      	bne.n	8004082 <I2C_RequestMemoryRead+0x11e>
      {
        /* Generate Stop */
        SET_BIT(hi2c->Instance->CR1, I2C_CR1_STOP);
 8004072:	68fb      	ldr	r3, [r7, #12]
 8004074:	681b      	ldr	r3, [r3, #0]
 8004076:	681a      	ldr	r2, [r3, #0]
 8004078:	68fb      	ldr	r3, [r7, #12]
 800407a:	681b      	ldr	r3, [r3, #0]
 800407c:	f442 7200 	orr.w	r2, r2, #512	@ 0x200
 8004080:	601a      	str	r2, [r3, #0]
      }
      return HAL_ERROR;
 8004082:	2301      	movs	r3, #1
 8004084:	e050      	b.n	8004128 <I2C_RequestMemoryRead+0x1c4>
    }

    /* Send LSB of Memory Address */
    hi2c->Instance->DR = I2C_MEM_ADD_LSB(MemAddress);
 8004086:	893b      	ldrh	r3, [r7, #8]
 8004088:	b2da      	uxtb	r2, r3
 800408a:	68fb      	ldr	r3, [r7, #12]
 800408c:	681b      	ldr	r3, [r3, #0]
 800408e:	611a      	str	r2, [r3, #16]
  }

  /* Wait until TXE flag is set */
  if (I2C_WaitOnTXEFlagUntilTimeout(hi2c, Timeout, Tickstart) != HAL_OK)
 8004090:	6a7a      	ldr	r2, [r7, #36]	@ 0x24
 8004092:	6a39      	ldr	r1, [r7, #32]
 8004094:	68f8      	ldr	r0, [r7, #12]
 8004096:	f000 f967 	bl	8004368 <I2C_WaitOnTXEFlagUntilTimeout>
 800409a:	4603      	mov	r3, r0
 800409c:	2b00      	cmp	r3, #0
 800409e:	d00d      	beq.n	80040bc <I2C_RequestMemoryRead+0x158>
  {
    if (hi2c->ErrorCode == HAL_I2C_ERROR_AF)
 80040a0:	68fb      	ldr	r3, [r7, #12]
 80040a2:	6c1b      	ldr	r3, [r3, #64]	@ 0x40
 80040a4:	2b04      	cmp	r3, #4
 80040a6:	d107      	bne.n	80040b8 <I2C_RequestMemoryRead+0x154>
    {
      /* Generate Stop */
      SET_BIT(hi2c->Instance->CR1, I2C_CR1_STOP);
 80040a8:	68fb      	ldr	r3, [r7, #12]
 80040aa:	681b      	ldr	r3, [r3, #0]
 80040ac:	681a      	ldr	r2, [r3, #0]
 80040ae:	68fb      	ldr	r3, [r7, #12]
 80040b0:	681b      	ldr	r3, [r3, #0]
 80040b2:	f442 7200 	orr.w	r2, r2, #512	@ 0x200
 80040b6:	601a      	str	r2, [r3, #0]
    }
    return HAL_ERROR;
 80040b8:	2301      	movs	r3, #1
 80040ba:	e035      	b.n	8004128 <I2C_RequestMemoryRead+0x1c4>
  }

  /* Generate Restart */
  SET_BIT(hi2c->Instance->CR1, I2C_CR1_START);
 80040bc:	68fb      	ldr	r3, [r7, #12]
 80040be:	681b      	ldr	r3, [r3, #0]
 80040c0:	681a      	ldr	r2, [r3, #0]
 80040c2:	68fb      	ldr	r3, [r7, #12]
 80040c4:	681b      	ldr	r3, [r3, #0]
 80040c6:	f442 7280 	orr.w	r2, r2, #256	@ 0x100
 80040ca:	601a      	str	r2, [r3, #0]

  /* Wait until SB flag is set */
  if (I2C_WaitOnFlagUntilTimeout(hi2c, I2C_FLAG_SB, RESET, Timeout, Tickstart) != HAL_OK)
 80040cc:	6a7b      	ldr	r3, [r7, #36]	@ 0x24
 80040ce:	9300      	str	r3, [sp, #0]
 80040d0:	6a3b      	ldr	r3, [r7, #32]
 80040d2:	2200      	movs	r2, #0
 80040d4:	f04f 1101 	mov.w	r1, #65537	@ 0x10001
 80040d8:	68f8      	ldr	r0, [r7, #12]
 80040da:	f000 f82b 	bl	8004134 <I2C_WaitOnFlagUntilTimeout>
 80040de:	4603      	mov	r3, r0
 80040e0:	2b00      	cmp	r3, #0
 80040e2:	d00d      	beq.n	8004100 <I2C_RequestMemoryRead+0x19c>
  {
    if (READ_BIT(hi2c->Instance->CR1, I2C_CR1_START) == I2C_CR1_START)
 80040e4:	68fb      	ldr	r3, [r7, #12]
 80040e6:	681b      	ldr	r3, [r3, #0]
 80040e8:	681b      	ldr	r3, [r3, #0]
 80040ea:	f403 7380 	and.w	r3, r3, #256	@ 0x100
 80040ee:	f5b3 7f80 	cmp.w	r3, #256	@ 0x100
 80040f2:	d103      	bne.n	80040fc <I2C_RequestMemoryRead+0x198>
    {
      hi2c->ErrorCode = HAL_I2C_WRONG_START;
 80040f4:	68fb      	ldr	r3, [r7, #12]
 80040f6:	f44f 7200 	mov.w	r2, #512	@ 0x200
 80040fa:	641a      	str	r2, [r3, #64]	@ 0x40
    }
    return HAL_TIMEOUT;
 80040fc:	2303      	movs	r3, #3
 80040fe:	e013      	b.n	8004128 <I2C_RequestMemoryRead+0x1c4>
  }

  /* Send slave address */
  hi2c->Instance->DR = I2C_7BIT_ADD_READ(DevAddress);
 8004100:	897b      	ldrh	r3, [r7, #10]
 8004102:	b2db      	uxtb	r3, r3
 8004104:	f043 0301 	orr.w	r3, r3, #1
 8004108:	b2da      	uxtb	r2, r3
 800410a:	68fb      	ldr	r3, [r7, #12]
 800410c:	681b      	ldr	r3, [r3, #0]
 800410e:	611a      	str	r2, [r3, #16]

  /* Wait until ADDR flag is set */
  if (I2C_WaitOnMasterAddressFlagUntilTimeout(hi2c, I2C_FLAG_ADDR, Timeout, Tickstart) != HAL_OK)
 8004110:	6a7b      	ldr	r3, [r7, #36]	@ 0x24
 8004112:	6a3a      	ldr	r2, [r7, #32]
 8004114:	4906      	ldr	r1, [pc, #24]	@ (8004130 <I2C_RequestMemoryRead+0x1cc>)
 8004116:	68f8      	ldr	r0, [r7, #12]
 8004118:	f000 f886 	bl	8004228 <I2C_WaitOnMasterAddressFlagUntilTimeout>
 800411c:	4603      	mov	r3, r0
 800411e:	2b00      	cmp	r3, #0
 8004120:	d001      	beq.n	8004126 <I2C_RequestMemoryRead+0x1c2>
  {
    return HAL_ERROR;
 8004122:	2301      	movs	r3, #1
 8004124:	e000      	b.n	8004128 <I2C_RequestMemoryRead+0x1c4>
  }

  return HAL_OK;
 8004126:	2300      	movs	r3, #0
}
 8004128:	4618      	mov	r0, r3
 800412a:	3718      	adds	r7, #24
 800412c:	46bd      	mov	sp, r7
 800412e:	bd80      	pop	{r7, pc}
 8004130:	00010002 	.word	0x00010002

08004134 <I2C_WaitOnFlagUntilTimeout>:
  * @param  Timeout Timeout duration
  * @param  Tickstart Tick start value
  * @retval HAL status
  */
static HAL_StatusTypeDef I2C_WaitOnFlagUntilTimeout(I2C_HandleTypeDef *hi2c, uint32_t Flag, FlagStatus Status, uint32_t Timeout, uint32_t Tickstart)
{
 8004134:	b580      	push	{r7, lr}
 8004136:	b084      	sub	sp, #16
 8004138:	af00      	add	r7, sp, #0
 800413a:	60f8      	str	r0, [r7, #12]
 800413c:	60b9      	str	r1, [r7, #8]
 800413e:	603b      	str	r3, [r7, #0]
 8004140:	4613      	mov	r3, r2
 8004142:	71fb      	strb	r3, [r7, #7]
  /* Wait until flag is set */
  while (__HAL_I2C_GET_FLAG(hi2c, Flag) == Status)
 8004144:	e048      	b.n	80041d8 <I2C_WaitOnFlagUntilTimeout+0xa4>
  {
    /* Check for the Timeout */
    if (Timeout != HAL_MAX_DELAY)
 8004146:	683b      	ldr	r3, [r7, #0]
 8004148:	f1b3 3fff 	cmp.w	r3, #4294967295
 800414c:	d044      	beq.n	80041d8 <I2C_WaitOnFlagUntilTimeout+0xa4>
    {
      if (((HAL_GetTick() - Tickstart) > Timeout) || (Timeout == 0U))
 800414e:	f7fd ff77 	bl	8002040 <HAL_GetTick>
 8004152:	4602      	mov	r2, r0
 8004154:	69bb      	ldr	r3, [r7, #24]
 8004156:	1ad3      	subs	r3, r2, r3
 8004158:	683a      	ldr	r2, [r7, #0]
 800415a:	429a      	cmp	r2, r3
 800415c:	d302      	bcc.n	8004164 <I2C_WaitOnFlagUntilTimeout+0x30>
 800415e:	683b      	ldr	r3, [r7, #0]
 8004160:	2b00      	cmp	r3, #0
 8004162:	d139      	bne.n	80041d8 <I2C_WaitOnFlagUntilTimeout+0xa4>
      {
        if ((__HAL_I2C_GET_FLAG(hi2c, Flag) == Status))
 8004164:	68bb      	ldr	r3, [r7, #8]
 8004166:	0c1b      	lsrs	r3, r3, #16
 8004168:	b2db      	uxtb	r3, r3
 800416a:	2b01      	cmp	r3, #1
 800416c:	d10d      	bne.n	800418a <I2C_WaitOnFlagUntilTimeout+0x56>
 800416e:	68fb      	ldr	r3, [r7, #12]
 8004170:	681b      	ldr	r3, [r3, #0]
 8004172:	695b      	ldr	r3, [r3, #20]
 8004174:	43da      	mvns	r2, r3
 8004176:	68bb      	ldr	r3, [r7, #8]
 8004178:	4013      	ands	r3, r2
 800417a:	b29b      	uxth	r3, r3
 800417c:	2b00      	cmp	r3, #0
 800417e:	bf0c      	ite	eq
 8004180:	2301      	moveq	r3, #1
 8004182:	2300      	movne	r3, #0
 8004184:	b2db      	uxtb	r3, r3
 8004186:	461a      	mov	r2, r3
 8004188:	e00c      	b.n	80041a4 <I2C_WaitOnFlagUntilTimeout+0x70>
 800418a:	68fb      	ldr	r3, [r7, #12]
 800418c:	681b      	ldr	r3, [r3, #0]
 800418e:	699b      	ldr	r3, [r3, #24]
 8004190:	43da      	mvns	r2, r3
 8004192:	68bb      	ldr	r3, [r7, #8]
 8004194:	4013      	ands	r3, r2
 8004196:	b29b      	uxth	r3, r3
 8004198:	2b00      	cmp	r3, #0
 800419a:	bf0c      	ite	eq
 800419c:	2301      	moveq	r3, #1
 800419e:	2300      	movne	r3, #0
 80041a0:	b2db      	uxtb	r3, r3
 80041a2:	461a      	mov	r2, r3
 80041a4:	79fb      	ldrb	r3, [r7, #7]
 80041a6:	429a      	cmp	r2, r3
 80041a8:	d116      	bne.n	80041d8 <I2C_WaitOnFlagUntilTimeout+0xa4>
        {
          hi2c->PreviousState     = I2C_STATE_NONE;
 80041aa:	68fb      	ldr	r3, [r7, #12]
 80041ac:	2200      	movs	r2, #0
 80041ae:	631a      	str	r2, [r3, #48]	@ 0x30
          hi2c->State             = HAL_I2C_STATE_READY;
 80041b0:	68fb      	ldr	r3, [r7, #12]
 80041b2:	2220      	movs	r2, #32
 80041b4:	f883 203d 	strb.w	r2, [r3, #61]	@ 0x3d
          hi2c->Mode              = HAL_I2C_MODE_NONE;
 80041b8:	68fb      	ldr	r3, [r7, #12]
 80041ba:	2200      	movs	r2, #0
 80041bc:	f883 203e 	strb.w	r2, [r3, #62]	@ 0x3e
          hi2c->ErrorCode         |= HAL_I2C_ERROR_TIMEOUT;
 80041c0:	68fb      	ldr	r3, [r7, #12]
 80041c2:	6c1b      	ldr	r3, [r3, #64]	@ 0x40
 80041c4:	f043 0220 	orr.w	r2, r3, #32
 80041c8:	68fb      	ldr	r3, [r7, #12]
 80041ca:	641a      	str	r2, [r3, #64]	@ 0x40

          /* Process Unlocked */
          __HAL_UNLOCK(hi2c);
 80041cc:	68fb      	ldr	r3, [r7, #12]
 80041ce:	2200      	movs	r2, #0
 80041d0:	f883 203c 	strb.w	r2, [r3, #60]	@ 0x3c

          return HAL_ERROR;
 80041d4:	2301      	movs	r3, #1
 80041d6:	e023      	b.n	8004220 <I2C_WaitOnFlagUntilTimeout+0xec>
  while (__HAL_I2C_GET_FLAG(hi2c, Flag) == Status)
 80041d8:	68bb      	ldr	r3, [r7, #8]
 80041da:	0c1b      	lsrs	r3, r3, #16
 80041dc:	b2db      	uxtb	r3, r3
 80041de:	2b01      	cmp	r3, #1
 80041e0:	d10d      	bne.n	80041fe <I2C_WaitOnFlagUntilTimeout+0xca>
 80041e2:	68fb      	ldr	r3, [r7, #12]
 80041e4:	681b      	ldr	r3, [r3, #0]
 80041e6:	695b      	ldr	r3, [r3, #20]
 80041e8:	43da      	mvns	r2, r3
 80041ea:	68bb      	ldr	r3, [r7, #8]
 80041ec:	4013      	ands	r3, r2
 80041ee:	b29b      	uxth	r3, r3
 80041f0:	2b00      	cmp	r3, #0
 80041f2:	bf0c      	ite	eq
 80041f4:	2301      	moveq	r3, #1
 80041f6:	2300      	movne	r3, #0
 80041f8:	b2db      	uxtb	r3, r3
 80041fa:	461a      	mov	r2, r3
 80041fc:	e00c      	b.n	8004218 <I2C_WaitOnFlagUntilTimeout+0xe4>
 80041fe:	68fb      	ldr	r3, [r7, #12]
 8004200:	681b      	ldr	r3, [r3, #0]
 8004202:	699b      	ldr	r3, [r3, #24]
 8004204:	43da      	mvns	r2, r3
 8004206:	68bb      	ldr	r3, [r7, #8]
 8004208:	4013      	ands	r3, r2
 800420a:	b29b      	uxth	r3, r3
 800420c:	2b00      	cmp	r3, #0
 800420e:	bf0c      	ite	eq
 8004210:	2301      	moveq	r3, #1
 8004212:	2300      	movne	r3, #0
 8004214:	b2db      	uxtb	r3, r3
 8004216:	461a      	mov	r2, r3
 8004218:	79fb      	ldrb	r3, [r7, #7]
 800421a:	429a      	cmp	r2, r3
 800421c:	d093      	beq.n	8004146 <I2C_WaitOnFlagUntilTimeout+0x12>
        }
      }
    }
  }
  return HAL_OK;
 800421e:	2300      	movs	r3, #0
}
 8004220:	4618      	mov	r0, r3
 8004222:	3710      	adds	r7, #16
 8004224:	46bd      	mov	sp, r7
 8004226:	bd80      	pop	{r7, pc}

08004228 <I2C_WaitOnMasterAddressFlagUntilTimeout>:
  * @param  Timeout Timeout duration
  * @param  Tickstart Tick start value
  * @retval HAL status
  */
static HAL_StatusTypeDef I2C_WaitOnMasterAddressFlagUntilTimeout(I2C_HandleTypeDef *hi2c, uint32_t Flag, uint32_t Timeout, uint32_t Tickstart)
{
 8004228:	b580      	push	{r7, lr}
 800422a:	b084      	sub	sp, #16
 800422c:	af00      	add	r7, sp, #0
 800422e:	60f8      	str	r0, [r7, #12]
 8004230:	60b9      	str	r1, [r7, #8]
 8004232:	607a      	str	r2, [r7, #4]
 8004234:	603b      	str	r3, [r7, #0]
  while (__HAL_I2C_GET_FLAG(hi2c, Flag) == RESET)
 8004236:	e071      	b.n	800431c <I2C_WaitOnMasterAddressFlagUntilTimeout+0xf4>
  {
    if (__HAL_I2C_GET_FLAG(hi2c, I2C_FLAG_AF) == SET)
 8004238:	68fb      	ldr	r3, [r7, #12]
 800423a:	681b      	ldr	r3, [r3, #0]
 800423c:	695b      	ldr	r3, [r3, #20]
 800423e:	f403 6380 	and.w	r3, r3, #1024	@ 0x400
 8004242:	f5b3 6f80 	cmp.w	r3, #1024	@ 0x400
 8004246:	d123      	bne.n	8004290 <I2C_WaitOnMasterAddressFlagUntilTimeout+0x68>
    {
      /* Generate Stop */
      SET_BIT(hi2c->Instance->CR1, I2C_CR1_STOP);
 8004248:	68fb      	ldr	r3, [r7, #12]
 800424a:	681b      	ldr	r3, [r3, #0]
 800424c:	681a      	ldr	r2, [r3, #0]
 800424e:	68fb      	ldr	r3, [r7, #12]
 8004250:	681b      	ldr	r3, [r3, #0]
 8004252:	f442 7200 	orr.w	r2, r2, #512	@ 0x200
 8004256:	601a      	str	r2, [r3, #0]

      /* Clear AF Flag */
      __HAL_I2C_CLEAR_FLAG(hi2c, I2C_FLAG_AF);
 8004258:	68fb      	ldr	r3, [r7, #12]
 800425a:	681b      	ldr	r3, [r3, #0]
 800425c:	f46f 6280 	mvn.w	r2, #1024	@ 0x400
 8004260:	615a      	str	r2, [r3, #20]

      hi2c->PreviousState       = I2C_STATE_NONE;
 8004262:	68fb      	ldr	r3, [r7, #12]
 8004264:	2200      	movs	r2, #0
 8004266:	631a      	str	r2, [r3, #48]	@ 0x30
      hi2c->State               = HAL_I2C_STATE_READY;
 8004268:	68fb      	ldr	r3, [r7, #12]
 800426a:	2220      	movs	r2, #32
 800426c:	f883 203d 	strb.w	r2, [r3, #61]	@ 0x3d
      hi2c->Mode                = HAL_I2C_MODE_NONE;
 8004270:	68fb      	ldr	r3, [r7, #12]
 8004272:	2200      	movs	r2, #0
 8004274:	f883 203e 	strb.w	r2, [r3, #62]	@ 0x3e
      hi2c->ErrorCode           |= HAL_I2C_ERROR_AF;
 8004278:	68fb      	ldr	r3, [r7, #12]
 800427a:	6c1b      	ldr	r3, [r3, #64]	@ 0x40
 800427c:	f043 0204 	orr.w	r2, r3, #4
 8004280:	68fb      	ldr	r3, [r7, #12]
 8004282:	641a      	str	r2, [r3, #64]	@ 0x40

      /* Process Unlocked */
      __HAL_UNLOCK(hi2c);
 8004284:	68fb      	ldr	r3, [r7, #12]
 8004286:	2200      	movs	r2, #0
 8004288:	f883 203c 	strb.w	r2, [r3, #60]	@ 0x3c

      return HAL_ERROR;
 800428c:	2301      	movs	r3, #1
 800428e:	e067      	b.n	8004360 <I2C_WaitOnMasterAddressFlagUntilTimeout+0x138>
    }

    /* Check for the Timeout */
    if (Timeout != HAL_MAX_DELAY)
 8004290:	687b      	ldr	r3, [r7, #4]
 8004292:	f1b3 3fff 	cmp.w	r3, #4294967295
 8004296:	d041      	beq.n	800431c <I2C_WaitOnMasterAddressFlagUntilTimeout+0xf4>
    {
      if (((HAL_GetTick() - Tickstart) > Timeout) || (Timeout == 0U))
 8004298:	f7fd fed2 	bl	8002040 <HAL_GetTick>
 800429c:	4602      	mov	r2, r0
 800429e:	683b      	ldr	r3, [r7, #0]
 80042a0:	1ad3      	subs	r3, r2, r3
 80042a2:	687a      	ldr	r2, [r7, #4]
 80042a4:	429a      	cmp	r2, r3
 80042a6:	d302      	bcc.n	80042ae <I2C_WaitOnMasterAddressFlagUntilTimeout+0x86>
 80042a8:	687b      	ldr	r3, [r7, #4]
 80042aa:	2b00      	cmp	r3, #0
 80042ac:	d136      	bne.n	800431c <I2C_WaitOnMasterAddressFlagUntilTimeout+0xf4>
      {
        if ((__HAL_I2C_GET_FLAG(hi2c, Flag) == RESET))
 80042ae:	68bb      	ldr	r3, [r7, #8]
 80042b0:	0c1b      	lsrs	r3, r3, #16
 80042b2:	b2db      	uxtb	r3, r3
 80042b4:	2b01      	cmp	r3, #1
 80042b6:	d10c      	bne.n	80042d2 <I2C_WaitOnMasterAddressFlagUntilTimeout+0xaa>
 80042b8:	68fb      	ldr	r3, [r7, #12]
 80042ba:	681b      	ldr	r3, [r3, #0]
 80042bc:	695b      	ldr	r3, [r3, #20]
 80042be:	43da      	mvns	r2, r3
 80042c0:	68bb      	ldr	r3, [r7, #8]
 80042c2:	4013      	ands	r3, r2
 80042c4:	b29b      	uxth	r3, r3
 80042c6:	2b00      	cmp	r3, #0
 80042c8:	bf14      	ite	ne
 80042ca:	2301      	movne	r3, #1
 80042cc:	2300      	moveq	r3, #0
 80042ce:	b2db      	uxtb	r3, r3
 80042d0:	e00b      	b.n	80042ea <I2C_WaitOnMasterAddressFlagUntilTimeout+0xc2>
 80042d2:	68fb      	ldr	r3, [r7, #12]
 80042d4:	681b      	ldr	r3, [r3, #0]
 80042d6:	699b      	ldr	r3, [r3, #24]
 80042d8:	43da      	mvns	r2, r3
 80042da:	68bb      	ldr	r3, [r7, #8]
 80042dc:	4013      	ands	r3, r2
 80042de:	b29b      	uxth	r3, r3
 80042e0:	2b00      	cmp	r3, #0
 80042e2:	bf14      	ite	ne
 80042e4:	2301      	movne	r3, #1
 80042e6:	2300      	moveq	r3, #0
 80042e8:	b2db      	uxtb	r3, r3
 80042ea:	2b00      	cmp	r3, #0
 80042ec:	d016      	beq.n	800431c <I2C_WaitOnMasterAddressFlagUntilTimeout+0xf4>
        {
          hi2c->PreviousState       = I2C_STATE_NONE;
 80042ee:	68fb      	ldr	r3, [r7, #12]
 80042f0:	2200      	movs	r2, #0
 80042f2:	631a      	str	r2, [r3, #48]	@ 0x30
          hi2c->State               = HAL_I2C_STATE_READY;
 80042f4:	68fb      	ldr	r3, [r7, #12]
 80042f6:	2220      	movs	r2, #32
 80042f8:	f883 203d 	strb.w	r2, [r3, #61]	@ 0x3d
          hi2c->Mode                = HAL_I2C_MODE_NONE;
 80042fc:	68fb      	ldr	r3, [r7, #12]
 80042fe:	2200      	movs	r2, #0
 8004300:	f883 203e 	strb.w	r2, [r3, #62]	@ 0x3e
          hi2c->ErrorCode           |= HAL_I2C_ERROR_TIMEOUT;
 8004304:	68fb      	ldr	r3, [r7, #12]
 8004306:	6c1b      	ldr	r3, [r3, #64]	@ 0x40
 8004308:	f043 0220 	orr.w	r2, r3, #32
 800430c:	68fb      	ldr	r3, [r7, #12]
 800430e:	641a      	str	r2, [r3, #64]	@ 0x40

          /* Process Unlocked */
          __HAL_UNLOCK(hi2c);
 8004310:	68fb      	ldr	r3, [r7, #12]
 8004312:	2200      	movs	r2, #0
 8004314:	f883 203c 	strb.w	r2, [r3, #60]	@ 0x3c

          return HAL_ERROR;
 8004318:	2301      	movs	r3, #1
 800431a:	e021      	b.n	8004360 <I2C_WaitOnMasterAddressFlagUntilTimeout+0x138>
  while (__HAL_I2C_GET_FLAG(hi2c, Flag) == RESET)
 800431c:	68bb      	ldr	r3, [r7, #8]
 800431e:	0c1b      	lsrs	r3, r3, #16
 8004320:	b2db      	uxtb	r3, r3
 8004322:	2b01      	cmp	r3, #1
 8004324:	d10c      	bne.n	8004340 <I2C_WaitOnMasterAddressFlagUntilTimeout+0x118>
 8004326:	68fb      	ldr	r3, [r7, #12]
 8004328:	681b      	ldr	r3, [r3, #0]
 800432a:	695b      	ldr	r3, [r3, #20]
 800432c:	43da      	mvns	r2, r3
 800432e:	68bb      	ldr	r3, [r7, #8]
 8004330:	4013      	ands	r3, r2
 8004332:	b29b      	uxth	r3, r3
 8004334:	2b00      	cmp	r3, #0
 8004336:	bf14      	ite	ne
 8004338:	2301      	movne	r3, #1
 800433a:	2300      	moveq	r3, #0
 800433c:	b2db      	uxtb	r3, r3
 800433e:	e00b      	b.n	8004358 <I2C_WaitOnMasterAddressFlagUntilTimeout+0x130>
 8004340:	68fb      	ldr	r3, [r7, #12]
 8004342:	681b      	ldr	r3, [r3, #0]
 8004344:	699b      	ldr	r3, [r3, #24]
 8004346:	43da      	mvns	r2, r3
 8004348:	68bb      	ldr	r3, [r7, #8]
 800434a:	4013      	ands	r3, r2
 800434c:	b29b      	uxth	r3, r3
 800434e:	2b00      	cmp	r3, #0
 8004350:	bf14      	ite	ne
 8004352:	2301      	movne	r3, #1
 8004354:	2300      	moveq	r3, #0
 8004356:	b2db      	uxtb	r3, r3
 8004358:	2b00      	cmp	r3, #0
 800435a:	f47f af6d 	bne.w	8004238 <I2C_WaitOnMasterAddressFlagUntilTimeout+0x10>
        }
      }
    }
  }
  return HAL_OK;
 800435e:	2300      	movs	r3, #0
}
 8004360:	4618      	mov	r0, r3
 8004362:	3710      	adds	r7, #16
 8004364:	46bd      	mov	sp, r7
 8004366:	bd80      	pop	{r7, pc}

08004368 <I2C_WaitOnTXEFlagUntilTimeout>:
  * @param  Timeout Timeout duration
  * @param  Tickstart Tick start value
  * @retval HAL status
  */
static HAL_StatusTypeDef I2C_WaitOnTXEFlagUntilTimeout(I2C_HandleTypeDef *hi2c, uint32_t Timeout, uint32_t Tickstart)
{
 8004368:	b580      	push	{r7, lr}
 800436a:	b084      	sub	sp, #16
 800436c:	af00      	add	r7, sp, #0
 800436e:	60f8      	str	r0, [r7, #12]
 8004370:	60b9      	str	r1, [r7, #8]
 8004372:	607a      	str	r2, [r7, #4]
  while (__HAL_I2C_GET_FLAG(hi2c, I2C_FLAG_TXE) == RESET)
 8004374:	e034      	b.n	80043e0 <I2C_WaitOnTXEFlagUntilTimeout+0x78>
  {
    /* Check if a NACK is detected */
    if (I2C_IsAcknowledgeFailed(hi2c) != HAL_OK)
 8004376:	68f8      	ldr	r0, [r7, #12]
 8004378:	f000 f8e3 	bl	8004542 <I2C_IsAcknowledgeFailed>
 800437c:	4603      	mov	r3, r0
 800437e:	2b00      	cmp	r3, #0
 8004380:	d001      	beq.n	8004386 <I2C_WaitOnTXEFlagUntilTimeout+0x1e>
    {
      return HAL_ERROR;
 8004382:	2301      	movs	r3, #1
 8004384:	e034      	b.n	80043f0 <I2C_WaitOnTXEFlagUntilTimeout+0x88>
    }

    /* Check for the Timeout */
    if (Timeout != HAL_MAX_DELAY)
 8004386:	68bb      	ldr	r3, [r7, #8]
 8004388:	f1b3 3fff 	cmp.w	r3, #4294967295
 800438c:	d028      	beq.n	80043e0 <I2C_WaitOnTXEFlagUntilTimeout+0x78>
    {
      if (((HAL_GetTick() - Tickstart) > Timeout) || (Timeout == 0U))
 800438e:	f7fd fe57 	bl	8002040 <HAL_GetTick>
 8004392:	4602      	mov	r2, r0
 8004394:	687b      	ldr	r3, [r7, #4]
 8004396:	1ad3      	subs	r3, r2, r3
 8004398:	68ba      	ldr	r2, [r7, #8]
 800439a:	429a      	cmp	r2, r3
 800439c:	d302      	bcc.n	80043a4 <I2C_WaitOnTXEFlagUntilTimeout+0x3c>
 800439e:	68bb      	ldr	r3, [r7, #8]
 80043a0:	2b00      	cmp	r3, #0
 80043a2:	d11d      	bne.n	80043e0 <I2C_WaitOnTXEFlagUntilTimeout+0x78>
      {
        if ((__HAL_I2C_GET_FLAG(hi2c, I2C_FLAG_TXE) == RESET))
 80043a4:	68fb      	ldr	r3, [r7, #12]
 80043a6:	681b      	ldr	r3, [r3, #0]
 80043a8:	695b      	ldr	r3, [r3, #20]
 80043aa:	f003 0380 	and.w	r3, r3, #128	@ 0x80
 80043ae:	2b80      	cmp	r3, #128	@ 0x80
 80043b0:	d016      	beq.n	80043e0 <I2C_WaitOnTXEFlagUntilTimeout+0x78>
        {
          hi2c->PreviousState       = I2C_STATE_NONE;
 80043b2:	68fb      	ldr	r3, [r7, #12]
 80043b4:	2200      	movs	r2, #0
 80043b6:	631a      	str	r2, [r3, #48]	@ 0x30
          hi2c->State               = HAL_I2C_STATE_READY;
 80043b8:	68fb      	ldr	r3, [r7, #12]
 80043ba:	2220      	movs	r2, #32
 80043bc:	f883 203d 	strb.w	r2, [r3, #61]	@ 0x3d
          hi2c->Mode                = HAL_I2C_MODE_NONE;
 80043c0:	68fb      	ldr	r3, [r7, #12]
 80043c2:	2200      	movs	r2, #0
 80043c4:	f883 203e 	strb.w	r2, [r3, #62]	@ 0x3e
          hi2c->ErrorCode           |= HAL_I2C_ERROR_TIMEOUT;
 80043c8:	68fb      	ldr	r3, [r7, #12]
 80043ca:	6c1b      	ldr	r3, [r3, #64]	@ 0x40
 80043cc:	f043 0220 	orr.w	r2, r3, #32
 80043d0:	68fb      	ldr	r3, [r7, #12]
 80043d2:	641a      	str	r2, [r3, #64]	@ 0x40

          /* Process Unlocked */
          __HAL_UNLOCK(hi2c);
 80043d4:	68fb      	ldr	r3, [r7, #12]
 80043d6:	2200      	movs	r2, #0
 80043d8:	f883 203c 	strb.w	r2, [r3, #60]	@ 0x3c

          return HAL_ERROR;
 80043dc:	2301      	movs	r3, #1
 80043de:	e007      	b.n	80043f0 <I2C_WaitOnTXEFlagUntilTimeout+0x88>
  while (__HAL_I2C_GET_FLAG(hi2c, I2C_FLAG_TXE) == RESET)
 80043e0:	68fb      	ldr	r3, [r7, #12]
 80043e2:	681b      	ldr	r3, [r3, #0]
 80043e4:	695b      	ldr	r3, [r3, #20]
 80043e6:	f003 0380 	and.w	r3, r3, #128	@ 0x80
 80043ea:	2b80      	cmp	r3, #128	@ 0x80
 80043ec:	d1c3      	bne.n	8004376 <I2C_WaitOnTXEFlagUntilTimeout+0xe>
        }
      }
    }
  }
  return HAL_OK;
 80043ee:	2300      	movs	r3, #0
}
 80043f0:	4618      	mov	r0, r3
 80043f2:	3710      	adds	r7, #16
 80043f4:	46bd      	mov	sp, r7
 80043f6:	bd80      	pop	{r7, pc}

080043f8 <I2C_WaitOnBTFFlagUntilTimeout>:
  * @param  Timeout Timeout duration
  * @param  Tickstart Tick start value
  * @retval HAL status
  */
static HAL_StatusTypeDef I2C_WaitOnBTFFlagUntilTimeout(I2C_HandleTypeDef *hi2c, uint32_t Timeout, uint32_t Tickstart)
{
 80043f8:	b580      	push	{r7, lr}
 80043fa:	b084      	sub	sp, #16
 80043fc:	af00      	add	r7, sp, #0
 80043fe:	60f8      	str	r0, [r7, #12]
 8004400:	60b9      	str	r1, [r7, #8]
 8004402:	607a      	str	r2, [r7, #4]
  while (__HAL_I2C_GET_FLAG(hi2c, I2C_FLAG_BTF) == RESET)
 8004404:	e034      	b.n	8004470 <I2C_WaitOnBTFFlagUntilTimeout+0x78>
  {
    /* Check if a NACK is detected */
    if (I2C_IsAcknowledgeFailed(hi2c) != HAL_OK)
 8004406:	68f8      	ldr	r0, [r7, #12]
 8004408:	f000 f89b 	bl	8004542 <I2C_IsAcknowledgeFailed>
 800440c:	4603      	mov	r3, r0
 800440e:	2b00      	cmp	r3, #0
 8004410:	d001      	beq.n	8004416 <I2C_WaitOnBTFFlagUntilTimeout+0x1e>
    {
      return HAL_ERROR;
 8004412:	2301      	movs	r3, #1
 8004414:	e034      	b.n	8004480 <I2C_WaitOnBTFFlagUntilTimeout+0x88>
    }

    /* Check for the Timeout */
    if (Timeout != HAL_MAX_DELAY)
 8004416:	68bb      	ldr	r3, [r7, #8]
 8004418:	f1b3 3fff 	cmp.w	r3, #4294967295
 800441c:	d028      	beq.n	8004470 <I2C_WaitOnBTFFlagUntilTimeout+0x78>
    {
      if (((HAL_GetTick() - Tickstart) > Timeout) || (Timeout == 0U))
 800441e:	f7fd fe0f 	bl	8002040 <HAL_GetTick>
 8004422:	4602      	mov	r2, r0
 8004424:	687b      	ldr	r3, [r7, #4]
 8004426:	1ad3      	subs	r3, r2, r3
 8004428:	68ba      	ldr	r2, [r7, #8]
 800442a:	429a      	cmp	r2, r3
 800442c:	d302      	bcc.n	8004434 <I2C_WaitOnBTFFlagUntilTimeout+0x3c>
 800442e:	68bb      	ldr	r3, [r7, #8]
 8004430:	2b00      	cmp	r3, #0
 8004432:	d11d      	bne.n	8004470 <I2C_WaitOnBTFFlagUntilTimeout+0x78>
      {
        if ((__HAL_I2C_GET_FLAG(hi2c, I2C_FLAG_BTF) == RESET))
 8004434:	68fb      	ldr	r3, [r7, #12]
 8004436:	681b      	ldr	r3, [r3, #0]
 8004438:	695b      	ldr	r3, [r3, #20]
 800443a:	f003 0304 	and.w	r3, r3, #4
 800443e:	2b04      	cmp	r3, #4
 8004440:	d016      	beq.n	8004470 <I2C_WaitOnBTFFlagUntilTimeout+0x78>
        {
          hi2c->PreviousState       = I2C_STATE_NONE;
 8004442:	68fb      	ldr	r3, [r7, #12]
 8004444:	2200      	movs	r2, #0
 8004446:	631a      	str	r2, [r3, #48]	@ 0x30
          hi2c->State               = HAL_I2C_STATE_READY;
 8004448:	68fb      	ldr	r3, [r7, #12]
 800444a:	2220      	movs	r2, #32
 800444c:	f883 203d 	strb.w	r2, [r3, #61]	@ 0x3d
          hi2c->Mode                = HAL_I2C_MODE_NONE;
 8004450:	68fb      	ldr	r3, [r7, #12]
 8004452:	2200      	movs	r2, #0
 8004454:	f883 203e 	strb.w	r2, [r3, #62]	@ 0x3e
          hi2c->ErrorCode           |= HAL_I2C_ERROR_TIMEOUT;
 8004458:	68fb      	ldr	r3, [r7, #12]
 800445a:	6c1b      	ldr	r3, [r3, #64]	@ 0x40
 800445c:	f043 0220 	orr.w	r2, r3, #32
 8004460:	68fb      	ldr	r3, [r7, #12]
 8004462:	641a      	str	r2, [r3, #64]	@ 0x40

          /* Process Unlocked */
          __HAL_UNLOCK(hi2c);
 8004464:	68fb      	ldr	r3, [r7, #12]
 8004466:	2200      	movs	r2, #0
 8004468:	f883 203c 	strb.w	r2, [r3, #60]	@ 0x3c

          return HAL_ERROR;
 800446c:	2301      	movs	r3, #1
 800446e:	e007      	b.n	8004480 <I2C_WaitOnBTFFlagUntilTimeout+0x88>
  while (__HAL_I2C_GET_FLAG(hi2c, I2C_FLAG_BTF) == RESET)
 8004470:	68fb      	ldr	r3, [r7, #12]
 8004472:	681b      	ldr	r3, [r3, #0]
 8004474:	695b      	ldr	r3, [r3, #20]
 8004476:	f003 0304 	and.w	r3, r3, #4
 800447a:	2b04      	cmp	r3, #4
 800447c:	d1c3      	bne.n	8004406 <I2C_WaitOnBTFFlagUntilTimeout+0xe>
        }
      }
    }
  }
  return HAL_OK;
 800447e:	2300      	movs	r3, #0
}
 8004480:	4618      	mov	r0, r3
 8004482:	3710      	adds	r7, #16
 8004484:	46bd      	mov	sp, r7
 8004486:	bd80      	pop	{r7, pc}

08004488 <I2C_WaitOnRXNEFlagUntilTimeout>:
  * @param  Timeout Timeout duration
  * @param  Tickstart Tick start value
  * @retval HAL status
  */
static HAL_StatusTypeDef I2C_WaitOnRXNEFlagUntilTimeout(I2C_HandleTypeDef *hi2c, uint32_t Timeout, uint32_t Tickstart)
{
 8004488:	b580      	push	{r7, lr}
 800448a:	b084      	sub	sp, #16
 800448c:	af00      	add	r7, sp, #0
 800448e:	60f8      	str	r0, [r7, #12]
 8004490:	60b9      	str	r1, [r7, #8]
 8004492:	607a      	str	r2, [r7, #4]

  while (__HAL_I2C_GET_FLAG(hi2c, I2C_FLAG_RXNE) == RESET)
 8004494:	e049      	b.n	800452a <I2C_WaitOnRXNEFlagUntilTimeout+0xa2>
  {
    /* Check if a STOPF is detected */
    if (__HAL_I2C_GET_FLAG(hi2c, I2C_FLAG_STOPF) == SET)
 8004496:	68fb      	ldr	r3, [r7, #12]
 8004498:	681b      	ldr	r3, [r3, #0]
 800449a:	695b      	ldr	r3, [r3, #20]
 800449c:	f003 0310 	and.w	r3, r3, #16
 80044a0:	2b10      	cmp	r3, #16
 80044a2:	d119      	bne.n	80044d8 <I2C_WaitOnRXNEFlagUntilTimeout+0x50>
    {
      /* Clear STOP Flag */
      __HAL_I2C_CLEAR_FLAG(hi2c, I2C_FLAG_STOPF);
 80044a4:	68fb      	ldr	r3, [r7, #12]
 80044a6:	681b      	ldr	r3, [r3, #0]
 80044a8:	f06f 0210 	mvn.w	r2, #16
 80044ac:	615a      	str	r2, [r3, #20]

      hi2c->PreviousState       = I2C_STATE_NONE;
 80044ae:	68fb      	ldr	r3, [r7, #12]
 80044b0:	2200      	movs	r2, #0
 80044b2:	631a      	str	r2, [r3, #48]	@ 0x30
      hi2c->State               = HAL_I2C_STATE_READY;
 80044b4:	68fb      	ldr	r3, [r7, #12]
 80044b6:	2220      	movs	r2, #32
 80044b8:	f883 203d 	strb.w	r2, [r3, #61]	@ 0x3d
      hi2c->Mode                = HAL_I2C_MODE_NONE;
 80044bc:	68fb      	ldr	r3, [r7, #12]
 80044be:	2200      	movs	r2, #0
 80044c0:	f883 203e 	strb.w	r2, [r3, #62]	@ 0x3e
      hi2c->ErrorCode           |= HAL_I2C_ERROR_NONE;
 80044c4:	68fb      	ldr	r3, [r7, #12]
 80044c6:	6c1a      	ldr	r2, [r3, #64]	@ 0x40
 80044c8:	68fb      	ldr	r3, [r7, #12]
 80044ca:	641a      	str	r2, [r3, #64]	@ 0x40

      /* Process Unlocked */
      __HAL_UNLOCK(hi2c);
 80044cc:	68fb      	ldr	r3, [r7, #12]
 80044ce:	2200      	movs	r2, #0
 80044d0:	f883 203c 	strb.w	r2, [r3, #60]	@ 0x3c

      return HAL_ERROR;
 80044d4:	2301      	movs	r3, #1
 80044d6:	e030      	b.n	800453a <I2C_WaitOnRXNEFlagUntilTimeout+0xb2>
    }

    /* Check for the Timeout */
    if (((HAL_GetTick() - Tickstart) > Timeout) || (Timeout == 0U))
 80044d8:	f7fd fdb2 	bl	8002040 <HAL_GetTick>
 80044dc:	4602      	mov	r2, r0
 80044de:	687b      	ldr	r3, [r7, #4]
 80044e0:	1ad3      	subs	r3, r2, r3
 80044e2:	68ba      	ldr	r2, [r7, #8]
 80044e4:	429a      	cmp	r2, r3
 80044e6:	d302      	bcc.n	80044ee <I2C_WaitOnRXNEFlagUntilTimeout+0x66>
 80044e8:	68bb      	ldr	r3, [r7, #8]
 80044ea:	2b00      	cmp	r3, #0
 80044ec:	d11d      	bne.n	800452a <I2C_WaitOnRXNEFlagUntilTimeout+0xa2>
    {
      if ((__HAL_I2C_GET_FLAG(hi2c, I2C_FLAG_RXNE) == RESET))
 80044ee:	68fb      	ldr	r3, [r7, #12]
 80044f0:	681b      	ldr	r3, [r3, #0]
 80044f2:	695b      	ldr	r3, [r3, #20]
 80044f4:	f003 0340 	and.w	r3, r3, #64	@ 0x40
 80044f8:	2b40      	cmp	r3, #64	@ 0x40
 80044fa:	d016      	beq.n	800452a <I2C_WaitOnRXNEFlagUntilTimeout+0xa2>
      {
        hi2c->PreviousState       = I2C_STATE_NONE;
 80044fc:	68fb      	ldr	r3, [r7, #12]
 80044fe:	2200      	movs	r2, #0
 8004500:	631a      	str	r2, [r3, #48]	@ 0x30
        hi2c->State               = HAL_I2C_STATE_READY;
 8004502:	68fb      	ldr	r3, [r7, #12]
 8004504:	2220      	movs	r2, #32
 8004506:	f883 203d 	strb.w	r2, [r3, #61]	@ 0x3d
        hi2c->Mode                = HAL_I2C_MODE_NONE;
 800450a:	68fb      	ldr	r3, [r7, #12]
 800450c:	2200      	movs	r2, #0
 800450e:	f883 203e 	strb.w	r2, [r3, #62]	@ 0x3e
        hi2c->ErrorCode           |= HAL_I2C_ERROR_TIMEOUT;
 8004512:	68fb      	ldr	r3, [r7, #12]
 8004514:	6c1b      	ldr	r3, [r3, #64]	@ 0x40
 8004516:	f043 0220 	orr.w	r2, r3, #32
 800451a:	68fb      	ldr	r3, [r7, #12]
 800451c:	641a      	str	r2, [r3, #64]	@ 0x40

        /* Process Unlocked */
        __HAL_UNLOCK(hi2c);
 800451e:	68fb      	ldr	r3, [r7, #12]
 8004520:	2200      	movs	r2, #0
 8004522:	f883 203c 	strb.w	r2, [r3, #60]	@ 0x3c

        return HAL_ERROR;
 8004526:	2301      	movs	r3, #1
 8004528:	e007      	b.n	800453a <I2C_WaitOnRXNEFlagUntilTimeout+0xb2>
  while (__HAL_I2C_GET_FLAG(hi2c, I2C_FLAG_RXNE) == RESET)
 800452a:	68fb      	ldr	r3, [r7, #12]
 800452c:	681b      	ldr	r3, [r3, #0]
 800452e:	695b      	ldr	r3, [r3, #20]
 8004530:	f003 0340 	and.w	r3, r3, #64	@ 0x40
 8004534:	2b40      	cmp	r3, #64	@ 0x40
 8004536:	d1ae      	bne.n	8004496 <I2C_WaitOnRXNEFlagUntilTimeout+0xe>
      }
    }
  }
  return HAL_OK;
 8004538:	2300      	movs	r3, #0
}
 800453a:	4618      	mov	r0, r3
 800453c:	3710      	adds	r7, #16
 800453e:	46bd      	mov	sp, r7
 8004540:	bd80      	pop	{r7, pc}

08004542 <I2C_IsAcknowledgeFailed>:
  * @param  hi2c Pointer to a I2C_HandleTypeDef structure that contains
  *                the configuration information for the specified I2C.
  * @retval HAL status
  */
static HAL_StatusTypeDef I2C_IsAcknowledgeFailed(I2C_HandleTypeDef *hi2c)
{
 8004542:	b480      	push	{r7}
 8004544:	b083      	sub	sp, #12
 8004546:	af00      	add	r7, sp, #0
 8004548:	6078      	str	r0, [r7, #4]
  if (__HAL_I2C_GET_FLAG(hi2c, I2C_FLAG_AF) == SET)
 800454a:	687b      	ldr	r3, [r7, #4]
 800454c:	681b      	ldr	r3, [r3, #0]
 800454e:	695b      	ldr	r3, [r3, #20]
 8004550:	f403 6380 	and.w	r3, r3, #1024	@ 0x400
 8004554:	f5b3 6f80 	cmp.w	r3, #1024	@ 0x400
 8004558:	d11b      	bne.n	8004592 <I2C_IsAcknowledgeFailed+0x50>
  {
    /* Clear NACKF Flag */
    __HAL_I2C_CLEAR_FLAG(hi2c, I2C_FLAG_AF);
 800455a:	687b      	ldr	r3, [r7, #4]
 800455c:	681b      	ldr	r3, [r3, #0]
 800455e:	f46f 6280 	mvn.w	r2, #1024	@ 0x400
 8004562:	615a      	str	r2, [r3, #20]

    hi2c->PreviousState       = I2C_STATE_NONE;
 8004564:	687b      	ldr	r3, [r7, #4]
 8004566:	2200      	movs	r2, #0
 8004568:	631a      	str	r2, [r3, #48]	@ 0x30
    hi2c->State               = HAL_I2C_STATE_READY;
 800456a:	687b      	ldr	r3, [r7, #4]
 800456c:	2220      	movs	r2, #32
 800456e:	f883 203d 	strb.w	r2, [r3, #61]	@ 0x3d
    hi2c->Mode                = HAL_I2C_MODE_NONE;
 8004572:	687b      	ldr	r3, [r7, #4]
 8004574:	2200      	movs	r2, #0
 8004576:	f883 203e 	strb.w	r2, [r3, #62]	@ 0x3e
    hi2c->ErrorCode           |= HAL_I2C_ERROR_AF;
 800457a:	687b      	ldr	r3, [r7, #4]
 800457c:	6c1b      	ldr	r3, [r3, #64]	@ 0x40
 800457e:	f043 0204 	orr.w	r2, r3, #4
 8004582:	687b      	ldr	r3, [r7, #4]
 8004584:	641a      	str	r2, [r3, #64]	@ 0x40

    /* Process Unlocked */
    __HAL_UNLOCK(hi2c);
 8004586:	687b      	ldr	r3, [r7, #4]
 8004588:	2200      	movs	r2, #0
 800458a:	f883 203c 	strb.w	r2, [r3, #60]	@ 0x3c

    return HAL_ERROR;
 800458e:	2301      	movs	r3, #1
 8004590:	e000      	b.n	8004594 <I2C_IsAcknowledgeFailed+0x52>
  }
  return HAL_OK;
 8004592:	2300      	movs	r3, #0
}
 8004594:	4618      	mov	r0, r3
 8004596:	370c      	adds	r7, #12
 8004598:	46bd      	mov	sp, r7
 800459a:	f85d 7b04 	ldr.w	r7, [sp], #4
 800459e:	4770      	bx	lr

080045a0 <HAL_RCC_OscConfig>:
  *         supported by this API. User should request a transition to HSE Off
  *         first and then HSE On or HSE Bypass.
  * @retval HAL status
  */
__weak HAL_StatusTypeDef HAL_RCC_OscConfig(const RCC_OscInitTypeDef  *RCC_OscInitStruct)
{
 80045a0:	b580      	push	{r7, lr}
 80045a2:	b086      	sub	sp, #24
 80045a4:	af00      	add	r7, sp, #0
 80045a6:	6078      	str	r0, [r7, #4]
  uint32_t tickstart;
  uint32_t pll_config;
  /* Check Null pointer */
  if (RCC_OscInitStruct == NULL)
 80045a8:	687b      	ldr	r3, [r7, #4]
 80045aa:	2b00      	cmp	r3, #0
 80045ac:	d101      	bne.n	80045b2 <HAL_RCC_OscConfig+0x12>
  {
    return HAL_ERROR;
 80045ae:	2301      	movs	r3, #1
 80045b0:	e267      	b.n	8004a82 <HAL_RCC_OscConfig+0x4e2>
  }

  /* Check the parameters */
  assert_param(IS_RCC_OSCILLATORTYPE(RCC_OscInitStruct->OscillatorType));
  /*------------------------------- HSE Configuration ------------------------*/
  if (((RCC_OscInitStruct->OscillatorType) & RCC_OSCILLATORTYPE_HSE) == RCC_OSCILLATORTYPE_HSE)
 80045b2:	687b      	ldr	r3, [r7, #4]
 80045b4:	681b      	ldr	r3, [r3, #0]
 80045b6:	f003 0301 	and.w	r3, r3, #1
 80045ba:	2b00      	cmp	r3, #0
 80045bc:	d075      	beq.n	80046aa <HAL_RCC_OscConfig+0x10a>
  {
    /* Check the parameters */
    assert_param(IS_RCC_HSE(RCC_OscInitStruct->HSEState));
    /* When the HSE is used as system clock or clock source for PLL in these cases HSE will not disabled */
    if ((__HAL_RCC_GET_SYSCLK_SOURCE() == RCC_CFGR_SWS_HSE) || \
 80045be:	4b88      	ldr	r3, [pc, #544]	@ (80047e0 <HAL_RCC_OscConfig+0x240>)
 80045c0:	689b      	ldr	r3, [r3, #8]
 80045c2:	f003 030c 	and.w	r3, r3, #12
 80045c6:	2b04      	cmp	r3, #4
 80045c8:	d00c      	beq.n	80045e4 <HAL_RCC_OscConfig+0x44>
        ((__HAL_RCC_GET_SYSCLK_SOURCE() == RCC_CFGR_SWS_PLL) && ((RCC->PLLCFGR & RCC_PLLCFGR_PLLSRC) == RCC_PLLCFGR_PLLSRC_HSE)))
 80045ca:	4b85      	ldr	r3, [pc, #532]	@ (80047e0 <HAL_RCC_OscConfig+0x240>)
 80045cc:	689b      	ldr	r3, [r3, #8]
 80045ce:	f003 030c 	and.w	r3, r3, #12
    if ((__HAL_RCC_GET_SYSCLK_SOURCE() == RCC_CFGR_SWS_HSE) || \
 80045d2:	2b08      	cmp	r3, #8
 80045d4:	d112      	bne.n	80045fc <HAL_RCC_OscConfig+0x5c>
        ((__HAL_RCC_GET_SYSCLK_SOURCE() == RCC_CFGR_SWS_PLL) && ((RCC->PLLCFGR & RCC_PLLCFGR_PLLSRC) == RCC_PLLCFGR_PLLSRC_HSE)))
 80045d6:	4b82      	ldr	r3, [pc, #520]	@ (80047e0 <HAL_RCC_OscConfig+0x240>)
 80045d8:	685b      	ldr	r3, [r3, #4]
 80045da:	f403 0380 	and.w	r3, r3, #4194304	@ 0x400000
 80045de:	f5b3 0f80 	cmp.w	r3, #4194304	@ 0x400000
 80045e2:	d10b      	bne.n	80045fc <HAL_RCC_OscConfig+0x5c>
    {
      if ((__HAL_RCC_GET_FLAG(RCC_FLAG_HSERDY) != RESET) && (RCC_OscInitStruct->HSEState == RCC_HSE_OFF))
 80045e4:	4b7e      	ldr	r3, [pc, #504]	@ (80047e0 <HAL_RCC_OscConfig+0x240>)
 80045e6:	681b      	ldr	r3, [r3, #0]
 80045e8:	f403 3300 	and.w	r3, r3, #131072	@ 0x20000
 80045ec:	2b00      	cmp	r3, #0
 80045ee:	d05b      	beq.n	80046a8 <HAL_RCC_OscConfig+0x108>
 80045f0:	687b      	ldr	r3, [r7, #4]
 80045f2:	685b      	ldr	r3, [r3, #4]
 80045f4:	2b00      	cmp	r3, #0
 80045f6:	d157      	bne.n	80046a8 <HAL_RCC_OscConfig+0x108>
      {
        return HAL_ERROR;
 80045f8:	2301      	movs	r3, #1
 80045fa:	e242      	b.n	8004a82 <HAL_RCC_OscConfig+0x4e2>
      }
    }
    else
    {
      /* Set the new HSE configuration ---------------------------------------*/
      __HAL_RCC_HSE_CONFIG(RCC_OscInitStruct->HSEState);
 80045fc:	687b      	ldr	r3, [r7, #4]
 80045fe:	685b      	ldr	r3, [r3, #4]
 8004600:	f5b3 3f80 	cmp.w	r3, #65536	@ 0x10000
 8004604:	d106      	bne.n	8004614 <HAL_RCC_OscConfig+0x74>
 8004606:	4b76      	ldr	r3, [pc, #472]	@ (80047e0 <HAL_RCC_OscConfig+0x240>)
 8004608:	681b      	ldr	r3, [r3, #0]
 800460a:	4a75      	ldr	r2, [pc, #468]	@ (80047e0 <HAL_RCC_OscConfig+0x240>)
 800460c:	f443 3380 	orr.w	r3, r3, #65536	@ 0x10000
 8004610:	6013      	str	r3, [r2, #0]
 8004612:	e01d      	b.n	8004650 <HAL_RCC_OscConfig+0xb0>
 8004614:	687b      	ldr	r3, [r7, #4]
 8004616:	685b      	ldr	r3, [r3, #4]
 8004618:	f5b3 2fa0 	cmp.w	r3, #327680	@ 0x50000
 800461c:	d10c      	bne.n	8004638 <HAL_RCC_OscConfig+0x98>
 800461e:	4b70      	ldr	r3, [pc, #448]	@ (80047e0 <HAL_RCC_OscConfig+0x240>)
 8004620:	681b      	ldr	r3, [r3, #0]
 8004622:	4a6f      	ldr	r2, [pc, #444]	@ (80047e0 <HAL_RCC_OscConfig+0x240>)
 8004624:	f443 2380 	orr.w	r3, r3, #262144	@ 0x40000
 8004628:	6013      	str	r3, [r2, #0]
 800462a:	4b6d      	ldr	r3, [pc, #436]	@ (80047e0 <HAL_RCC_OscConfig+0x240>)
 800462c:	681b      	ldr	r3, [r3, #0]
 800462e:	4a6c      	ldr	r2, [pc, #432]	@ (80047e0 <HAL_RCC_OscConfig+0x240>)
 8004630:	f443 3380 	orr.w	r3, r3, #65536	@ 0x10000
 8004634:	6013      	str	r3, [r2, #0]
 8004636:	e00b      	b.n	8004650 <HAL_RCC_OscConfig+0xb0>
 8004638:	4b69      	ldr	r3, [pc, #420]	@ (80047e0 <HAL_RCC_OscConfig+0x240>)
 800463a:	681b      	ldr	r3, [r3, #0]
 800463c:	4a68      	ldr	r2, [pc, #416]	@ (80047e0 <HAL_RCC_OscConfig+0x240>)
 800463e:	f423 3380 	bic.w	r3, r3, #65536	@ 0x10000
 8004642:	6013      	str	r3, [r2, #0]
 8004644:	4b66      	ldr	r3, [pc, #408]	@ (80047e0 <HAL_RCC_OscConfig+0x240>)
 8004646:	681b      	ldr	r3, [r3, #0]
 8004648:	4a65      	ldr	r2, [pc, #404]	@ (80047e0 <HAL_RCC_OscConfig+0x240>)
 800464a:	f423 2380 	bic.w	r3, r3, #262144	@ 0x40000
 800464e:	6013      	str	r3, [r2, #0]

      /* Check the HSE State */
      if ((RCC_OscInitStruct->HSEState) != RCC_HSE_OFF)
 8004650:	687b      	ldr	r3, [r7, #4]
 8004652:	685b      	ldr	r3, [r3, #4]
 8004654:	2b00      	cmp	r3, #0
 8004656:	d013      	beq.n	8004680 <HAL_RCC_OscConfig+0xe0>
      {
        /* Get Start Tick */
        tickstart = HAL_GetTick();
 8004658:	f7fd fcf2 	bl	8002040 <HAL_GetTick>
 800465c:	6138      	str	r0, [r7, #16]

        /* Wait till HSE is ready */
        while (__HAL_RCC_GET_FLAG(RCC_FLAG_HSERDY) == RESET)
 800465e:	e008      	b.n	8004672 <HAL_RCC_OscConfig+0xd2>
        {
          if ((HAL_GetTick() - tickstart) > HSE_TIMEOUT_VALUE)
 8004660:	f7fd fcee 	bl	8002040 <HAL_GetTick>
 8004664:	4602      	mov	r2, r0
 8004666:	693b      	ldr	r3, [r7, #16]
 8004668:	1ad3      	subs	r3, r2, r3
 800466a:	2b64      	cmp	r3, #100	@ 0x64
 800466c:	d901      	bls.n	8004672 <HAL_RCC_OscConfig+0xd2>
          {
            return HAL_TIMEOUT;
 800466e:	2303      	movs	r3, #3
 8004670:	e207      	b.n	8004a82 <HAL_RCC_OscConfig+0x4e2>
        while (__HAL_RCC_GET_FLAG(RCC_FLAG_HSERDY) == RESET)
 8004672:	4b5b      	ldr	r3, [pc, #364]	@ (80047e0 <HAL_RCC_OscConfig+0x240>)
 8004674:	681b      	ldr	r3, [r3, #0]
 8004676:	f403 3300 	and.w	r3, r3, #131072	@ 0x20000
 800467a:	2b00      	cmp	r3, #0
 800467c:	d0f0      	beq.n	8004660 <HAL_RCC_OscConfig+0xc0>
 800467e:	e014      	b.n	80046aa <HAL_RCC_OscConfig+0x10a>
        }
      }
      else
      {
        /* Get Start Tick */
        tickstart = HAL_GetTick();
 8004680:	f7fd fcde 	bl	8002040 <HAL_GetTick>
 8004684:	6138      	str	r0, [r7, #16]

        /* Wait till HSE is bypassed or disabled */
        while (__HAL_RCC_GET_FLAG(RCC_FLAG_HSERDY) != RESET)
 8004686:	e008      	b.n	800469a <HAL_RCC_OscConfig+0xfa>
        {
          if ((HAL_GetTick() - tickstart) > HSE_TIMEOUT_VALUE)
 8004688:	f7fd fcda 	bl	8002040 <HAL_GetTick>
 800468c:	4602      	mov	r2, r0
 800468e:	693b      	ldr	r3, [r7, #16]
 8004690:	1ad3      	subs	r3, r2, r3
 8004692:	2b64      	cmp	r3, #100	@ 0x64
 8004694:	d901      	bls.n	800469a <HAL_RCC_OscConfig+0xfa>
          {
            return HAL_TIMEOUT;
 8004696:	2303      	movs	r3, #3
 8004698:	e1f3      	b.n	8004a82 <HAL_RCC_OscConfig+0x4e2>
        while (__HAL_RCC_GET_FLAG(RCC_FLAG_HSERDY) != RESET)
 800469a:	4b51      	ldr	r3, [pc, #324]	@ (80047e0 <HAL_RCC_OscConfig+0x240>)
 800469c:	681b      	ldr	r3, [r3, #0]
 800469e:	f403 3300 	and.w	r3, r3, #131072	@ 0x20000
 80046a2:	2b00      	cmp	r3, #0
 80046a4:	d1f0      	bne.n	8004688 <HAL_RCC_OscConfig+0xe8>
 80046a6:	e000      	b.n	80046aa <HAL_RCC_OscConfig+0x10a>
      if ((__HAL_RCC_GET_FLAG(RCC_FLAG_HSERDY) != RESET) && (RCC_OscInitStruct->HSEState == RCC_HSE_OFF))
 80046a8:	bf00      	nop
        }
      }
    }
  }
  /*----------------------------- HSI Configuration --------------------------*/
  if (((RCC_OscInitStruct->OscillatorType) & RCC_OSCILLATORTYPE_HSI) == RCC_OSCILLATORTYPE_HSI)
 80046aa:	687b      	ldr	r3, [r7, #4]
 80046ac:	681b      	ldr	r3, [r3, #0]
 80046ae:	f003 0302 	and.w	r3, r3, #2
 80046b2:	2b00      	cmp	r3, #0
 80046b4:	d063      	beq.n	800477e <HAL_RCC_OscConfig+0x1de>
    /* Check the parameters */
    assert_param(IS_RCC_HSI(RCC_OscInitStruct->HSIState));
    assert_param(IS_RCC_CALIBRATION_VALUE(RCC_OscInitStruct->HSICalibrationValue));

    /* Check if HSI is used as system clock or as PLL source when PLL is selected as system clock */
    if ((__HAL_RCC_GET_SYSCLK_SOURCE() == RCC_CFGR_SWS_HSI) || \
 80046b6:	4b4a      	ldr	r3, [pc, #296]	@ (80047e0 <HAL_RCC_OscConfig+0x240>)
 80046b8:	689b      	ldr	r3, [r3, #8]
 80046ba:	f003 030c 	and.w	r3, r3, #12
 80046be:	2b00      	cmp	r3, #0
 80046c0:	d00b      	beq.n	80046da <HAL_RCC_OscConfig+0x13a>
        ((__HAL_RCC_GET_SYSCLK_SOURCE() == RCC_CFGR_SWS_PLL) && ((RCC->PLLCFGR & RCC_PLLCFGR_PLLSRC) == RCC_PLLCFGR_PLLSRC_HSI)))
 80046c2:	4b47      	ldr	r3, [pc, #284]	@ (80047e0 <HAL_RCC_OscConfig+0x240>)
 80046c4:	689b      	ldr	r3, [r3, #8]
 80046c6:	f003 030c 	and.w	r3, r3, #12
    if ((__HAL_RCC_GET_SYSCLK_SOURCE() == RCC_CFGR_SWS_HSI) || \
 80046ca:	2b08      	cmp	r3, #8
 80046cc:	d11c      	bne.n	8004708 <HAL_RCC_OscConfig+0x168>
        ((__HAL_RCC_GET_SYSCLK_SOURCE() == RCC_CFGR_SWS_PLL) && ((RCC->PLLCFGR & RCC_PLLCFGR_PLLSRC) == RCC_PLLCFGR_PLLSRC_HSI)))
 80046ce:	4b44      	ldr	r3, [pc, #272]	@ (80047e0 <HAL_RCC_OscConfig+0x240>)
 80046d0:	685b      	ldr	r3, [r3, #4]
 80046d2:	f403 0380 	and.w	r3, r3, #4194304	@ 0x400000
 80046d6:	2b00      	cmp	r3, #0
 80046d8:	d116      	bne.n	8004708 <HAL_RCC_OscConfig+0x168>
    {
      /* When HSI is used as system clock it will not disabled */
      if ((__HAL_RCC_GET_FLAG(RCC_FLAG_HSIRDY) != RESET) && (RCC_OscInitStruct->HSIState != RCC_HSI_ON))
 80046da:	4b41      	ldr	r3, [pc, #260]	@ (80047e0 <HAL_RCC_OscConfig+0x240>)
 80046dc:	681b      	ldr	r3, [r3, #0]
 80046de:	f003 0302 	and.w	r3, r3, #2
 80046e2:	2b00      	cmp	r3, #0
 80046e4:	d005      	beq.n	80046f2 <HAL_RCC_OscConfig+0x152>
 80046e6:	687b      	ldr	r3, [r7, #4]
 80046e8:	68db      	ldr	r3, [r3, #12]
 80046ea:	2b01      	cmp	r3, #1
 80046ec:	d001      	beq.n	80046f2 <HAL_RCC_OscConfig+0x152>
      {
        return HAL_ERROR;
 80046ee:	2301      	movs	r3, #1
 80046f0:	e1c7      	b.n	8004a82 <HAL_RCC_OscConfig+0x4e2>
      }
      /* Otherwise, just the calibration is allowed */
      else
      {
        /* Adjusts the Internal High Speed oscillator (HSI) calibration value.*/
        __HAL_RCC_HSI_CALIBRATIONVALUE_ADJUST(RCC_OscInitStruct->HSICalibrationValue);
 80046f2:	4b3b      	ldr	r3, [pc, #236]	@ (80047e0 <HAL_RCC_OscConfig+0x240>)
 80046f4:	681b      	ldr	r3, [r3, #0]
 80046f6:	f023 02f8 	bic.w	r2, r3, #248	@ 0xf8
 80046fa:	687b      	ldr	r3, [r7, #4]
 80046fc:	691b      	ldr	r3, [r3, #16]
 80046fe:	00db      	lsls	r3, r3, #3
 8004700:	4937      	ldr	r1, [pc, #220]	@ (80047e0 <HAL_RCC_OscConfig+0x240>)
 8004702:	4313      	orrs	r3, r2
 8004704:	600b      	str	r3, [r1, #0]
      if ((__HAL_RCC_GET_FLAG(RCC_FLAG_HSIRDY) != RESET) && (RCC_OscInitStruct->HSIState != RCC_HSI_ON))
 8004706:	e03a      	b.n	800477e <HAL_RCC_OscConfig+0x1de>
      }
    }
    else
    {
      /* Check the HSI State */
      if ((RCC_OscInitStruct->HSIState) != RCC_HSI_OFF)
 8004708:	687b      	ldr	r3, [r7, #4]
 800470a:	68db      	ldr	r3, [r3, #12]
 800470c:	2b00      	cmp	r3, #0
 800470e:	d020      	beq.n	8004752 <HAL_RCC_OscConfig+0x1b2>
      {
        /* Enable the Internal High Speed oscillator (HSI). */
        __HAL_RCC_HSI_ENABLE();
 8004710:	4b34      	ldr	r3, [pc, #208]	@ (80047e4 <HAL_RCC_OscConfig+0x244>)
 8004712:	2201      	movs	r2, #1
 8004714:	601a      	str	r2, [r3, #0]

        /* Get Start Tick*/
        tickstart = HAL_GetTick();
 8004716:	f7fd fc93 	bl	8002040 <HAL_GetTick>
 800471a:	6138      	str	r0, [r7, #16]

        /* Wait till HSI is ready */
        while (__HAL_RCC_GET_FLAG(RCC_FLAG_HSIRDY) == RESET)
 800471c:	e008      	b.n	8004730 <HAL_RCC_OscConfig+0x190>
        {
          if ((HAL_GetTick() - tickstart) > HSI_TIMEOUT_VALUE)
 800471e:	f7fd fc8f 	bl	8002040 <HAL_GetTick>
 8004722:	4602      	mov	r2, r0
 8004724:	693b      	ldr	r3, [r7, #16]
 8004726:	1ad3      	subs	r3, r2, r3
 8004728:	2b02      	cmp	r3, #2
 800472a:	d901      	bls.n	8004730 <HAL_RCC_OscConfig+0x190>
          {
            return HAL_TIMEOUT;
 800472c:	2303      	movs	r3, #3
 800472e:	e1a8      	b.n	8004a82 <HAL_RCC_OscConfig+0x4e2>
        while (__HAL_RCC_GET_FLAG(RCC_FLAG_HSIRDY) == RESET)
 8004730:	4b2b      	ldr	r3, [pc, #172]	@ (80047e0 <HAL_RCC_OscConfig+0x240>)
 8004732:	681b      	ldr	r3, [r3, #0]
 8004734:	f003 0302 	and.w	r3, r3, #2
 8004738:	2b00      	cmp	r3, #0
 800473a:	d0f0      	beq.n	800471e <HAL_RCC_OscConfig+0x17e>
          }
        }

        /* Adjusts the Internal High Speed oscillator (HSI) calibration value. */
        __HAL_RCC_HSI_CALIBRATIONVALUE_ADJUST(RCC_OscInitStruct->HSICalibrationValue);
 800473c:	4b28      	ldr	r3, [pc, #160]	@ (80047e0 <HAL_RCC_OscConfig+0x240>)
 800473e:	681b      	ldr	r3, [r3, #0]
 8004740:	f023 02f8 	bic.w	r2, r3, #248	@ 0xf8
 8004744:	687b      	ldr	r3, [r7, #4]
 8004746:	691b      	ldr	r3, [r3, #16]
 8004748:	00db      	lsls	r3, r3, #3
 800474a:	4925      	ldr	r1, [pc, #148]	@ (80047e0 <HAL_RCC_OscConfig+0x240>)
 800474c:	4313      	orrs	r3, r2
 800474e:	600b      	str	r3, [r1, #0]
 8004750:	e015      	b.n	800477e <HAL_RCC_OscConfig+0x1de>
      }
      else
      {
        /* Disable the Internal High Speed oscillator (HSI). */
        __HAL_RCC_HSI_DISABLE();
 8004752:	4b24      	ldr	r3, [pc, #144]	@ (80047e4 <HAL_RCC_OscConfig+0x244>)
 8004754:	2200      	movs	r2, #0
 8004756:	601a      	str	r2, [r3, #0]

        /* Get Start Tick*/
        tickstart = HAL_GetTick();
 8004758:	f7fd fc72 	bl	8002040 <HAL_GetTick>
 800475c:	6138      	str	r0, [r7, #16]

        /* Wait till HSI is ready */
        while (__HAL_RCC_GET_FLAG(RCC_FLAG_HSIRDY) != RESET)
 800475e:	e008      	b.n	8004772 <HAL_RCC_OscConfig+0x1d2>
        {
          if ((HAL_GetTick() - tickstart) > HSI_TIMEOUT_VALUE)
 8004760:	f7fd fc6e 	bl	8002040 <HAL_GetTick>
 8004764:	4602      	mov	r2, r0
 8004766:	693b      	ldr	r3, [r7, #16]
 8004768:	1ad3      	subs	r3, r2, r3
 800476a:	2b02      	cmp	r3, #2
 800476c:	d901      	bls.n	8004772 <HAL_RCC_OscConfig+0x1d2>
          {
            return HAL_TIMEOUT;
 800476e:	2303      	movs	r3, #3
 8004770:	e187      	b.n	8004a82 <HAL_RCC_OscConfig+0x4e2>
        while (__HAL_RCC_GET_FLAG(RCC_FLAG_HSIRDY) != RESET)
 8004772:	4b1b      	ldr	r3, [pc, #108]	@ (80047e0 <HAL_RCC_OscConfig+0x240>)
 8004774:	681b      	ldr	r3, [r3, #0]
 8004776:	f003 0302 	and.w	r3, r3, #2
 800477a:	2b00      	cmp	r3, #0
 800477c:	d1f0      	bne.n	8004760 <HAL_RCC_OscConfig+0x1c0>
        }
      }
    }
  }
  /*------------------------------ LSI Configuration -------------------------*/
  if (((RCC_OscInitStruct->OscillatorType) & RCC_OSCILLATORTYPE_LSI) == RCC_OSCILLATORTYPE_LSI)
 800477e:	687b      	ldr	r3, [r7, #4]
 8004780:	681b      	ldr	r3, [r3, #0]
 8004782:	f003 0308 	and.w	r3, r3, #8
 8004786:	2b00      	cmp	r3, #0
 8004788:	d036      	beq.n	80047f8 <HAL_RCC_OscConfig+0x258>
  {
    /* Check the parameters */
    assert_param(IS_RCC_LSI(RCC_OscInitStruct->LSIState));

    /* Check the LSI State */
    if ((RCC_OscInitStruct->LSIState) != RCC_LSI_OFF)
 800478a:	687b      	ldr	r3, [r7, #4]
 800478c:	695b      	ldr	r3, [r3, #20]
 800478e:	2b00      	cmp	r3, #0
 8004790:	d016      	beq.n	80047c0 <HAL_RCC_OscConfig+0x220>
    {
      /* Enable the Internal Low Speed oscillator (LSI). */
      __HAL_RCC_LSI_ENABLE();
 8004792:	4b15      	ldr	r3, [pc, #84]	@ (80047e8 <HAL_RCC_OscConfig+0x248>)
 8004794:	2201      	movs	r2, #1
 8004796:	601a      	str	r2, [r3, #0]

      /* Get Start Tick*/
      tickstart = HAL_GetTick();
 8004798:	f7fd fc52 	bl	8002040 <HAL_GetTick>
 800479c:	6138      	str	r0, [r7, #16]

      /* Wait till LSI is ready */
      while (__HAL_RCC_GET_FLAG(RCC_FLAG_LSIRDY) == RESET)
 800479e:	e008      	b.n	80047b2 <HAL_RCC_OscConfig+0x212>
      {
        if ((HAL_GetTick() - tickstart) > LSI_TIMEOUT_VALUE)
 80047a0:	f7fd fc4e 	bl	8002040 <HAL_GetTick>
 80047a4:	4602      	mov	r2, r0
 80047a6:	693b      	ldr	r3, [r7, #16]
 80047a8:	1ad3      	subs	r3, r2, r3
 80047aa:	2b02      	cmp	r3, #2
 80047ac:	d901      	bls.n	80047b2 <HAL_RCC_OscConfig+0x212>
        {
          return HAL_TIMEOUT;
 80047ae:	2303      	movs	r3, #3
 80047b0:	e167      	b.n	8004a82 <HAL_RCC_OscConfig+0x4e2>
      while (__HAL_RCC_GET_FLAG(RCC_FLAG_LSIRDY) == RESET)
 80047b2:	4b0b      	ldr	r3, [pc, #44]	@ (80047e0 <HAL_RCC_OscConfig+0x240>)
 80047b4:	6f5b      	ldr	r3, [r3, #116]	@ 0x74
 80047b6:	f003 0302 	and.w	r3, r3, #2
 80047ba:	2b00      	cmp	r3, #0
 80047bc:	d0f0      	beq.n	80047a0 <HAL_RCC_OscConfig+0x200>
 80047be:	e01b      	b.n	80047f8 <HAL_RCC_OscConfig+0x258>
      }
    }
    else
    {
      /* Disable the Internal Low Speed oscillator (LSI). */
      __HAL_RCC_LSI_DISABLE();
 80047c0:	4b09      	ldr	r3, [pc, #36]	@ (80047e8 <HAL_RCC_OscConfig+0x248>)
 80047c2:	2200      	movs	r2, #0
 80047c4:	601a      	str	r2, [r3, #0]

      /* Get Start Tick */
      tickstart = HAL_GetTick();
 80047c6:	f7fd fc3b 	bl	8002040 <HAL_GetTick>
 80047ca:	6138      	str	r0, [r7, #16]

      /* Wait till LSI is ready */
      while (__HAL_RCC_GET_FLAG(RCC_FLAG_LSIRDY) != RESET)
 80047cc:	e00e      	b.n	80047ec <HAL_RCC_OscConfig+0x24c>
      {
        if ((HAL_GetTick() - tickstart) > LSI_TIMEOUT_VALUE)
 80047ce:	f7fd fc37 	bl	8002040 <HAL_GetTick>
 80047d2:	4602      	mov	r2, r0
 80047d4:	693b      	ldr	r3, [r7, #16]
 80047d6:	1ad3      	subs	r3, r2, r3
 80047d8:	2b02      	cmp	r3, #2
 80047da:	d907      	bls.n	80047ec <HAL_RCC_OscConfig+0x24c>
        {
          return HAL_TIMEOUT;
 80047dc:	2303      	movs	r3, #3
 80047de:	e150      	b.n	8004a82 <HAL_RCC_OscConfig+0x4e2>
 80047e0:	40023800 	.word	0x40023800
 80047e4:	42470000 	.word	0x42470000
 80047e8:	42470e80 	.word	0x42470e80
      while (__HAL_RCC_GET_FLAG(RCC_FLAG_LSIRDY) != RESET)
 80047ec:	4b88      	ldr	r3, [pc, #544]	@ (8004a10 <HAL_RCC_OscConfig+0x470>)
 80047ee:	6f5b      	ldr	r3, [r3, #116]	@ 0x74
 80047f0:	f003 0302 	and.w	r3, r3, #2
 80047f4:	2b00      	cmp	r3, #0
 80047f6:	d1ea      	bne.n	80047ce <HAL_RCC_OscConfig+0x22e>
        }
      }
    }
  }
  /*------------------------------ LSE Configuration -------------------------*/
  if (((RCC_OscInitStruct->OscillatorType) & RCC_OSCILLATORTYPE_LSE) == RCC_OSCILLATORTYPE_LSE)
 80047f8:	687b      	ldr	r3, [r7, #4]
 80047fa:	681b      	ldr	r3, [r3, #0]
 80047fc:	f003 0304 	and.w	r3, r3, #4
 8004800:	2b00      	cmp	r3, #0
 8004802:	f000 8097 	beq.w	8004934 <HAL_RCC_OscConfig+0x394>
  {
    FlagStatus       pwrclkchanged = RESET;
 8004806:	2300      	movs	r3, #0
 8004808:	75fb      	strb	r3, [r7, #23]
    /* Check the parameters */
    assert_param(IS_RCC_LSE(RCC_OscInitStruct->LSEState));

    /* Update LSE configuration in Backup Domain control register    */
    /* Requires to enable write access to Backup Domain of necessary */
    if (__HAL_RCC_PWR_IS_CLK_DISABLED())
 800480a:	4b81      	ldr	r3, [pc, #516]	@ (8004a10 <HAL_RCC_OscConfig+0x470>)
 800480c:	6c1b      	ldr	r3, [r3, #64]	@ 0x40
 800480e:	f003 5380 	and.w	r3, r3, #268435456	@ 0x10000000
 8004812:	2b00      	cmp	r3, #0
 8004814:	d10f      	bne.n	8004836 <HAL_RCC_OscConfig+0x296>
    {
      __HAL_RCC_PWR_CLK_ENABLE();
 8004816:	2300      	movs	r3, #0
 8004818:	60bb      	str	r3, [r7, #8]
 800481a:	4b7d      	ldr	r3, [pc, #500]	@ (8004a10 <HAL_RCC_OscConfig+0x470>)
 800481c:	6c1b      	ldr	r3, [r3, #64]	@ 0x40
 800481e:	4a7c      	ldr	r2, [pc, #496]	@ (8004a10 <HAL_RCC_OscConfig+0x470>)
 8004820:	f043 5380 	orr.w	r3, r3, #268435456	@ 0x10000000
 8004824:	6413      	str	r3, [r2, #64]	@ 0x40
 8004826:	4b7a      	ldr	r3, [pc, #488]	@ (8004a10 <HAL_RCC_OscConfig+0x470>)
 8004828:	6c1b      	ldr	r3, [r3, #64]	@ 0x40
 800482a:	f003 5380 	and.w	r3, r3, #268435456	@ 0x10000000
 800482e:	60bb      	str	r3, [r7, #8]
 8004830:	68bb      	ldr	r3, [r7, #8]
      pwrclkchanged = SET;
 8004832:	2301      	movs	r3, #1
 8004834:	75fb      	strb	r3, [r7, #23]
    }

    if (HAL_IS_BIT_CLR(PWR->CR, PWR_CR_DBP))
 8004836:	4b77      	ldr	r3, [pc, #476]	@ (8004a14 <HAL_RCC_OscConfig+0x474>)
 8004838:	681b      	ldr	r3, [r3, #0]
 800483a:	f403 7380 	and.w	r3, r3, #256	@ 0x100
 800483e:	2b00      	cmp	r3, #0
 8004840:	d118      	bne.n	8004874 <HAL_RCC_OscConfig+0x2d4>
    {
      /* Enable write access to Backup domain */
      SET_BIT(PWR->CR, PWR_CR_DBP);
 8004842:	4b74      	ldr	r3, [pc, #464]	@ (8004a14 <HAL_RCC_OscConfig+0x474>)
 8004844:	681b      	ldr	r3, [r3, #0]
 8004846:	4a73      	ldr	r2, [pc, #460]	@ (8004a14 <HAL_RCC_OscConfig+0x474>)
 8004848:	f443 7380 	orr.w	r3, r3, #256	@ 0x100
 800484c:	6013      	str	r3, [r2, #0]

      /* Wait for Backup domain Write protection disable */
      tickstart = HAL_GetTick();
 800484e:	f7fd fbf7 	bl	8002040 <HAL_GetTick>
 8004852:	6138      	str	r0, [r7, #16]

      while (HAL_IS_BIT_CLR(PWR->CR, PWR_CR_DBP))
 8004854:	e008      	b.n	8004868 <HAL_RCC_OscConfig+0x2c8>
      {
        if ((HAL_GetTick() - tickstart) > RCC_DBP_TIMEOUT_VALUE)
 8004856:	f7fd fbf3 	bl	8002040 <HAL_GetTick>
 800485a:	4602      	mov	r2, r0
 800485c:	693b      	ldr	r3, [r7, #16]
 800485e:	1ad3      	subs	r3, r2, r3
 8004860:	2b02      	cmp	r3, #2
 8004862:	d901      	bls.n	8004868 <HAL_RCC_OscConfig+0x2c8>
        {
          return HAL_TIMEOUT;
 8004864:	2303      	movs	r3, #3
 8004866:	e10c      	b.n	8004a82 <HAL_RCC_OscConfig+0x4e2>
      while (HAL_IS_BIT_CLR(PWR->CR, PWR_CR_DBP))
 8004868:	4b6a      	ldr	r3, [pc, #424]	@ (8004a14 <HAL_RCC_OscConfig+0x474>)
 800486a:	681b      	ldr	r3, [r3, #0]
 800486c:	f403 7380 	and.w	r3, r3, #256	@ 0x100
 8004870:	2b00      	cmp	r3, #0
 8004872:	d0f0      	beq.n	8004856 <HAL_RCC_OscConfig+0x2b6>
        }
      }
    }

    /* Set the new LSE configuration -----------------------------------------*/
    __HAL_RCC_LSE_CONFIG(RCC_OscInitStruct->LSEState);
 8004874:	687b      	ldr	r3, [r7, #4]
 8004876:	689b      	ldr	r3, [r3, #8]
 8004878:	2b01      	cmp	r3, #1
 800487a:	d106      	bne.n	800488a <HAL_RCC_OscConfig+0x2ea>
 800487c:	4b64      	ldr	r3, [pc, #400]	@ (8004a10 <HAL_RCC_OscConfig+0x470>)
 800487e:	6f1b      	ldr	r3, [r3, #112]	@ 0x70
 8004880:	4a63      	ldr	r2, [pc, #396]	@ (8004a10 <HAL_RCC_OscConfig+0x470>)
 8004882:	f043 0301 	orr.w	r3, r3, #1
 8004886:	6713      	str	r3, [r2, #112]	@ 0x70
 8004888:	e01c      	b.n	80048c4 <HAL_RCC_OscConfig+0x324>
 800488a:	687b      	ldr	r3, [r7, #4]
 800488c:	689b      	ldr	r3, [r3, #8]
 800488e:	2b05      	cmp	r3, #5
 8004890:	d10c      	bne.n	80048ac <HAL_RCC_OscConfig+0x30c>
 8004892:	4b5f      	ldr	r3, [pc, #380]	@ (8004a10 <HAL_RCC_OscConfig+0x470>)
 8004894:	6f1b      	ldr	r3, [r3, #112]	@ 0x70
 8004896:	4a5e      	ldr	r2, [pc, #376]	@ (8004a10 <HAL_RCC_OscConfig+0x470>)
 8004898:	f043 0304 	orr.w	r3, r3, #4
 800489c:	6713      	str	r3, [r2, #112]	@ 0x70
 800489e:	4b5c      	ldr	r3, [pc, #368]	@ (8004a10 <HAL_RCC_OscConfig+0x470>)
 80048a0:	6f1b      	ldr	r3, [r3, #112]	@ 0x70
 80048a2:	4a5b      	ldr	r2, [pc, #364]	@ (8004a10 <HAL_RCC_OscConfig+0x470>)
 80048a4:	f043 0301 	orr.w	r3, r3, #1
 80048a8:	6713      	str	r3, [r2, #112]	@ 0x70
 80048aa:	e00b      	b.n	80048c4 <HAL_RCC_OscConfig+0x324>
 80048ac:	4b58      	ldr	r3, [pc, #352]	@ (8004a10 <HAL_RCC_OscConfig+0x470>)
 80048ae:	6f1b      	ldr	r3, [r3, #112]	@ 0x70
 80048b0:	4a57      	ldr	r2, [pc, #348]	@ (8004a10 <HAL_RCC_OscConfig+0x470>)
 80048b2:	f023 0301 	bic.w	r3, r3, #1
 80048b6:	6713      	str	r3, [r2, #112]	@ 0x70
 80048b8:	4b55      	ldr	r3, [pc, #340]	@ (8004a10 <HAL_RCC_OscConfig+0x470>)
 80048ba:	6f1b      	ldr	r3, [r3, #112]	@ 0x70
 80048bc:	4a54      	ldr	r2, [pc, #336]	@ (8004a10 <HAL_RCC_OscConfig+0x470>)
 80048be:	f023 0304 	bic.w	r3, r3, #4
 80048c2:	6713      	str	r3, [r2, #112]	@ 0x70
    /* Check the LSE State */
    if ((RCC_OscInitStruct->LSEState) != RCC_LSE_OFF)
 80048c4:	687b      	ldr	r3, [r7, #4]
 80048c6:	689b      	ldr	r3, [r3, #8]
 80048c8:	2b00      	cmp	r3, #0
 80048ca:	d015      	beq.n	80048f8 <HAL_RCC_OscConfig+0x358>
    {
      /* Get Start Tick*/
      tickstart = HAL_GetTick();
 80048cc:	f7fd fbb8 	bl	8002040 <HAL_GetTick>
 80048d0:	6138      	str	r0, [r7, #16]

      /* Wait till LSE is ready */
      while (__HAL_RCC_GET_FLAG(RCC_FLAG_LSERDY) == RESET)
 80048d2:	e00a      	b.n	80048ea <HAL_RCC_OscConfig+0x34a>
      {
        if ((HAL_GetTick() - tickstart) > RCC_LSE_TIMEOUT_VALUE)
 80048d4:	f7fd fbb4 	bl	8002040 <HAL_GetTick>
 80048d8:	4602      	mov	r2, r0
 80048da:	693b      	ldr	r3, [r7, #16]
 80048dc:	1ad3      	subs	r3, r2, r3
 80048de:	f241 3288 	movw	r2, #5000	@ 0x1388
 80048e2:	4293      	cmp	r3, r2
 80048e4:	d901      	bls.n	80048ea <HAL_RCC_OscConfig+0x34a>
        {
          return HAL_TIMEOUT;
 80048e6:	2303      	movs	r3, #3
 80048e8:	e0cb      	b.n	8004a82 <HAL_RCC_OscConfig+0x4e2>
      while (__HAL_RCC_GET_FLAG(RCC_FLAG_LSERDY) == RESET)
 80048ea:	4b49      	ldr	r3, [pc, #292]	@ (8004a10 <HAL_RCC_OscConfig+0x470>)
 80048ec:	6f1b      	ldr	r3, [r3, #112]	@ 0x70
 80048ee:	f003 0302 	and.w	r3, r3, #2
 80048f2:	2b00      	cmp	r3, #0
 80048f4:	d0ee      	beq.n	80048d4 <HAL_RCC_OscConfig+0x334>
 80048f6:	e014      	b.n	8004922 <HAL_RCC_OscConfig+0x382>
      }
    }
    else
    {
      /* Get Start Tick */
      tickstart = HAL_GetTick();
 80048f8:	f7fd fba2 	bl	8002040 <HAL_GetTick>
 80048fc:	6138      	str	r0, [r7, #16]

      /* Wait till LSE is ready */
      while (__HAL_RCC_GET_FLAG(RCC_FLAG_LSERDY) != RESET)
 80048fe:	e00a      	b.n	8004916 <HAL_RCC_OscConfig+0x376>
      {
        if ((HAL_GetTick() - tickstart) > RCC_LSE_TIMEOUT_VALUE)
 8004900:	f7fd fb9e 	bl	8002040 <HAL_GetTick>
 8004904:	4602      	mov	r2, r0
 8004906:	693b      	ldr	r3, [r7, #16]
 8004908:	1ad3      	subs	r3, r2, r3
 800490a:	f241 3288 	movw	r2, #5000	@ 0x1388
 800490e:	4293      	cmp	r3, r2
 8004910:	d901      	bls.n	8004916 <HAL_RCC_OscConfig+0x376>
        {
          return HAL_TIMEOUT;
 8004912:	2303      	movs	r3, #3
 8004914:	e0b5      	b.n	8004a82 <HAL_RCC_OscConfig+0x4e2>
      while (__HAL_RCC_GET_FLAG(RCC_FLAG_LSERDY) != RESET)
 8004916:	4b3e      	ldr	r3, [pc, #248]	@ (8004a10 <HAL_RCC_OscConfig+0x470>)
 8004918:	6f1b      	ldr	r3, [r3, #112]	@ 0x70
 800491a:	f003 0302 	and.w	r3, r3, #2
 800491e:	2b00      	cmp	r3, #0
 8004920:	d1ee      	bne.n	8004900 <HAL_RCC_OscConfig+0x360>
        }
      }
    }

    /* Restore clock configuration if changed */
    if (pwrclkchanged == SET)
 8004922:	7dfb      	ldrb	r3, [r7, #23]
 8004924:	2b01      	cmp	r3, #1
 8004926:	d105      	bne.n	8004934 <HAL_RCC_OscConfig+0x394>
    {
      __HAL_RCC_PWR_CLK_DISABLE();
 8004928:	4b39      	ldr	r3, [pc, #228]	@ (8004a10 <HAL_RCC_OscConfig+0x470>)
 800492a:	6c1b      	ldr	r3, [r3, #64]	@ 0x40
 800492c:	4a38      	ldr	r2, [pc, #224]	@ (8004a10 <HAL_RCC_OscConfig+0x470>)
 800492e:	f023 5380 	bic.w	r3, r3, #268435456	@ 0x10000000
 8004932:	6413      	str	r3, [r2, #64]	@ 0x40
    }
  }
  /*-------------------------------- PLL Configuration -----------------------*/
  /* Check the parameters */
  assert_param(IS_RCC_PLL(RCC_OscInitStruct->PLL.PLLState));
  if ((RCC_OscInitStruct->PLL.PLLState) != RCC_PLL_NONE)
 8004934:	687b      	ldr	r3, [r7, #4]
 8004936:	699b      	ldr	r3, [r3, #24]
 8004938:	2b00      	cmp	r3, #0
 800493a:	f000 80a1 	beq.w	8004a80 <HAL_RCC_OscConfig+0x4e0>
  {
    /* Check if the PLL is used as system clock or not */
    if (__HAL_RCC_GET_SYSCLK_SOURCE() != RCC_CFGR_SWS_PLL)
 800493e:	4b34      	ldr	r3, [pc, #208]	@ (8004a10 <HAL_RCC_OscConfig+0x470>)
 8004940:	689b      	ldr	r3, [r3, #8]
 8004942:	f003 030c 	and.w	r3, r3, #12
 8004946:	2b08      	cmp	r3, #8
 8004948:	d05c      	beq.n	8004a04 <HAL_RCC_OscConfig+0x464>
    {
      if ((RCC_OscInitStruct->PLL.PLLState) == RCC_PLL_ON)
 800494a:	687b      	ldr	r3, [r7, #4]
 800494c:	699b      	ldr	r3, [r3, #24]
 800494e:	2b02      	cmp	r3, #2
 8004950:	d141      	bne.n	80049d6 <HAL_RCC_OscConfig+0x436>
        assert_param(IS_RCC_PLLN_VALUE(RCC_OscInitStruct->PLL.PLLN));
        assert_param(IS_RCC_PLLP_VALUE(RCC_OscInitStruct->PLL.PLLP));
        assert_param(IS_RCC_PLLQ_VALUE(RCC_OscInitStruct->PLL.PLLQ));

        /* Disable the main PLL. */
        __HAL_RCC_PLL_DISABLE();
 8004952:	4b31      	ldr	r3, [pc, #196]	@ (8004a18 <HAL_RCC_OscConfig+0x478>)
 8004954:	2200      	movs	r2, #0
 8004956:	601a      	str	r2, [r3, #0]

        /* Get Start Tick */
        tickstart = HAL_GetTick();
 8004958:	f7fd fb72 	bl	8002040 <HAL_GetTick>
 800495c:	6138      	str	r0, [r7, #16]

        /* Wait till PLL is disabled */
        while (__HAL_RCC_GET_FLAG(RCC_FLAG_PLLRDY) != RESET)
 800495e:	e008      	b.n	8004972 <HAL_RCC_OscConfig+0x3d2>
        {
          if ((HAL_GetTick() - tickstart) > PLL_TIMEOUT_VALUE)
 8004960:	f7fd fb6e 	bl	8002040 <HAL_GetTick>
 8004964:	4602      	mov	r2, r0
 8004966:	693b      	ldr	r3, [r7, #16]
 8004968:	1ad3      	subs	r3, r2, r3
 800496a:	2b02      	cmp	r3, #2
 800496c:	d901      	bls.n	8004972 <HAL_RCC_OscConfig+0x3d2>
          {
            return HAL_TIMEOUT;
 800496e:	2303      	movs	r3, #3
 8004970:	e087      	b.n	8004a82 <HAL_RCC_OscConfig+0x4e2>
        while (__HAL_RCC_GET_FLAG(RCC_FLAG_PLLRDY) != RESET)
 8004972:	4b27      	ldr	r3, [pc, #156]	@ (8004a10 <HAL_RCC_OscConfig+0x470>)
 8004974:	681b      	ldr	r3, [r3, #0]
 8004976:	f003 7300 	and.w	r3, r3, #33554432	@ 0x2000000
 800497a:	2b00      	cmp	r3, #0
 800497c:	d1f0      	bne.n	8004960 <HAL_RCC_OscConfig+0x3c0>
          }
        }

        /* Configure the main PLL clock source, multiplication and division factors. */
        WRITE_REG(RCC->PLLCFGR, (RCC_OscInitStruct->PLL.PLLSource                                            | \
 800497e:	687b      	ldr	r3, [r7, #4]
 8004980:	69da      	ldr	r2, [r3, #28]
 8004982:	687b      	ldr	r3, [r7, #4]
 8004984:	6a1b      	ldr	r3, [r3, #32]
 8004986:	431a      	orrs	r2, r3
 8004988:	687b      	ldr	r3, [r7, #4]
 800498a:	6a5b      	ldr	r3, [r3, #36]	@ 0x24
 800498c:	019b      	lsls	r3, r3, #6
 800498e:	431a      	orrs	r2, r3
 8004990:	687b      	ldr	r3, [r7, #4]
 8004992:	6a9b      	ldr	r3, [r3, #40]	@ 0x28
 8004994:	085b      	lsrs	r3, r3, #1
 8004996:	3b01      	subs	r3, #1
 8004998:	041b      	lsls	r3, r3, #16
 800499a:	431a      	orrs	r2, r3
 800499c:	687b      	ldr	r3, [r7, #4]
 800499e:	6adb      	ldr	r3, [r3, #44]	@ 0x2c
 80049a0:	061b      	lsls	r3, r3, #24
 80049a2:	491b      	ldr	r1, [pc, #108]	@ (8004a10 <HAL_RCC_OscConfig+0x470>)
 80049a4:	4313      	orrs	r3, r2
 80049a6:	604b      	str	r3, [r1, #4]
                                 RCC_OscInitStruct->PLL.PLLM                                                 | \
                                 (RCC_OscInitStruct->PLL.PLLN << RCC_PLLCFGR_PLLN_Pos)             | \
                                 (((RCC_OscInitStruct->PLL.PLLP >> 1U) - 1U) << RCC_PLLCFGR_PLLP_Pos) | \
                                 (RCC_OscInitStruct->PLL.PLLQ << RCC_PLLCFGR_PLLQ_Pos)));
        /* Enable the main PLL. */
        __HAL_RCC_PLL_ENABLE();
 80049a8:	4b1b      	ldr	r3, [pc, #108]	@ (8004a18 <HAL_RCC_OscConfig+0x478>)
 80049aa:	2201      	movs	r2, #1
 80049ac:	601a      	str	r2, [r3, #0]

        /* Get Start Tick */
        tickstart = HAL_GetTick();
 80049ae:	f7fd fb47 	bl	8002040 <HAL_GetTick>
 80049b2:	6138      	str	r0, [r7, #16]

        /* Wait till PLL is ready */
        while (__HAL_RCC_GET_FLAG(RCC_FLAG_PLLRDY) == RESET)
 80049b4:	e008      	b.n	80049c8 <HAL_RCC_OscConfig+0x428>
        {
          if ((HAL_GetTick() - tickstart) > PLL_TIMEOUT_VALUE)
 80049b6:	f7fd fb43 	bl	8002040 <HAL_GetTick>
 80049ba:	4602      	mov	r2, r0
 80049bc:	693b      	ldr	r3, [r7, #16]
 80049be:	1ad3      	subs	r3, r2, r3
 80049c0:	2b02      	cmp	r3, #2
 80049c2:	d901      	bls.n	80049c8 <HAL_RCC_OscConfig+0x428>
          {
            return HAL_TIMEOUT;
 80049c4:	2303      	movs	r3, #3
 80049c6:	e05c      	b.n	8004a82 <HAL_RCC_OscConfig+0x4e2>
        while (__HAL_RCC_GET_FLAG(RCC_FLAG_PLLRDY) == RESET)
 80049c8:	4b11      	ldr	r3, [pc, #68]	@ (8004a10 <HAL_RCC_OscConfig+0x470>)
 80049ca:	681b      	ldr	r3, [r3, #0]
 80049cc:	f003 7300 	and.w	r3, r3, #33554432	@ 0x2000000
 80049d0:	2b00      	cmp	r3, #0
 80049d2:	d0f0      	beq.n	80049b6 <HAL_RCC_OscConfig+0x416>
 80049d4:	e054      	b.n	8004a80 <HAL_RCC_OscConfig+0x4e0>
        }
      }
      else
      {
        /* Disable the main PLL. */
        __HAL_RCC_PLL_DISABLE();
 80049d6:	4b10      	ldr	r3, [pc, #64]	@ (8004a18 <HAL_RCC_OscConfig+0x478>)
 80049d8:	2200      	movs	r2, #0
 80049da:	601a      	str	r2, [r3, #0]

        /* Get Start Tick */
        tickstart = HAL_GetTick();
 80049dc:	f7fd fb30 	bl	8002040 <HAL_GetTick>
 80049e0:	6138      	str	r0, [r7, #16]

        /* Wait till PLL is disabled */
        while (__HAL_RCC_GET_FLAG(RCC_FLAG_PLLRDY) != RESET)
 80049e2:	e008      	b.n	80049f6 <HAL_RCC_OscConfig+0x456>
        {
          if ((HAL_GetTick() - tickstart) > PLL_TIMEOUT_VALUE)
 80049e4:	f7fd fb2c 	bl	8002040 <HAL_GetTick>
 80049e8:	4602      	mov	r2, r0
 80049ea:	693b      	ldr	r3, [r7, #16]
 80049ec:	1ad3      	subs	r3, r2, r3
 80049ee:	2b02      	cmp	r3, #2
 80049f0:	d901      	bls.n	80049f6 <HAL_RCC_OscConfig+0x456>
          {
            return HAL_TIMEOUT;
 80049f2:	2303      	movs	r3, #3
 80049f4:	e045      	b.n	8004a82 <HAL_RCC_OscConfig+0x4e2>
        while (__HAL_RCC_GET_FLAG(RCC_FLAG_PLLRDY) != RESET)
 80049f6:	4b06      	ldr	r3, [pc, #24]	@ (8004a10 <HAL_RCC_OscConfig+0x470>)
 80049f8:	681b      	ldr	r3, [r3, #0]
 80049fa:	f003 7300 	and.w	r3, r3, #33554432	@ 0x2000000
 80049fe:	2b00      	cmp	r3, #0
 8004a00:	d1f0      	bne.n	80049e4 <HAL_RCC_OscConfig+0x444>
 8004a02:	e03d      	b.n	8004a80 <HAL_RCC_OscConfig+0x4e0>
      }
    }
    else
    {
      /* Check if there is a request to disable the PLL used as System clock source */
      if ((RCC_OscInitStruct->PLL.PLLState) == RCC_PLL_OFF)
 8004a04:	687b      	ldr	r3, [r7, #4]
 8004a06:	699b      	ldr	r3, [r3, #24]
 8004a08:	2b01      	cmp	r3, #1
 8004a0a:	d107      	bne.n	8004a1c <HAL_RCC_OscConfig+0x47c>
      {
        return HAL_ERROR;
 8004a0c:	2301      	movs	r3, #1
 8004a0e:	e038      	b.n	8004a82 <HAL_RCC_OscConfig+0x4e2>
 8004a10:	40023800 	.word	0x40023800
 8004a14:	40007000 	.word	0x40007000
 8004a18:	42470060 	.word	0x42470060
      }
      else
      {
        /* Do not return HAL_ERROR if request repeats the current configuration */
        pll_config = RCC->PLLCFGR;
 8004a1c:	4b1b      	ldr	r3, [pc, #108]	@ (8004a8c <HAL_RCC_OscConfig+0x4ec>)
 8004a1e:	685b      	ldr	r3, [r3, #4]
 8004a20:	60fb      	str	r3, [r7, #12]
            (READ_BIT(pll_config, RCC_PLLCFGR_PLLN) != (RCC_OscInitStruct->PLL.PLLN) << RCC_PLLCFGR_PLLN_Pos) ||
            (READ_BIT(pll_config, RCC_PLLCFGR_PLLP) != (((RCC_OscInitStruct->PLL.PLLP >> 1U) - 1U)) << RCC_PLLCFGR_PLLP_Pos) ||
            (READ_BIT(pll_config, RCC_PLLCFGR_PLLQ) != (RCC_OscInitStruct->PLL.PLLQ << RCC_PLLCFGR_PLLQ_Pos)) ||
            (READ_BIT(pll_config, RCC_PLLCFGR_PLLR) != (RCC_OscInitStruct->PLL.PLLR << RCC_PLLCFGR_PLLR_Pos)))
#else
        if (((RCC_OscInitStruct->PLL.PLLState) == RCC_PLL_OFF) ||
 8004a22:	687b      	ldr	r3, [r7, #4]
 8004a24:	699b      	ldr	r3, [r3, #24]
 8004a26:	2b01      	cmp	r3, #1
 8004a28:	d028      	beq.n	8004a7c <HAL_RCC_OscConfig+0x4dc>
            (READ_BIT(pll_config, RCC_PLLCFGR_PLLSRC) != RCC_OscInitStruct->PLL.PLLSource) ||
 8004a2a:	68fb      	ldr	r3, [r7, #12]
 8004a2c:	f403 0280 	and.w	r2, r3, #4194304	@ 0x400000
 8004a30:	687b      	ldr	r3, [r7, #4]
 8004a32:	69db      	ldr	r3, [r3, #28]
        if (((RCC_OscInitStruct->PLL.PLLState) == RCC_PLL_OFF) ||
 8004a34:	429a      	cmp	r2, r3
 8004a36:	d121      	bne.n	8004a7c <HAL_RCC_OscConfig+0x4dc>
            (READ_BIT(pll_config, RCC_PLLCFGR_PLLM) != (RCC_OscInitStruct->PLL.PLLM) << RCC_PLLCFGR_PLLM_Pos) ||
 8004a38:	68fb      	ldr	r3, [r7, #12]
 8004a3a:	f003 023f 	and.w	r2, r3, #63	@ 0x3f
 8004a3e:	687b      	ldr	r3, [r7, #4]
 8004a40:	6a1b      	ldr	r3, [r3, #32]
            (READ_BIT(pll_config, RCC_PLLCFGR_PLLSRC) != RCC_OscInitStruct->PLL.PLLSource) ||
 8004a42:	429a      	cmp	r2, r3
 8004a44:	d11a      	bne.n	8004a7c <HAL_RCC_OscConfig+0x4dc>
            (READ_BIT(pll_config, RCC_PLLCFGR_PLLN) != (RCC_OscInitStruct->PLL.PLLN) << RCC_PLLCFGR_PLLN_Pos) ||
 8004a46:	68fa      	ldr	r2, [r7, #12]
 8004a48:	f647 73c0 	movw	r3, #32704	@ 0x7fc0
 8004a4c:	4013      	ands	r3, r2
 8004a4e:	687a      	ldr	r2, [r7, #4]
 8004a50:	6a52      	ldr	r2, [r2, #36]	@ 0x24
 8004a52:	0192      	lsls	r2, r2, #6
            (READ_BIT(pll_config, RCC_PLLCFGR_PLLM) != (RCC_OscInitStruct->PLL.PLLM) << RCC_PLLCFGR_PLLM_Pos) ||
 8004a54:	4293      	cmp	r3, r2
 8004a56:	d111      	bne.n	8004a7c <HAL_RCC_OscConfig+0x4dc>
            (READ_BIT(pll_config, RCC_PLLCFGR_PLLP) != (((RCC_OscInitStruct->PLL.PLLP >> 1U) - 1U)) << RCC_PLLCFGR_PLLP_Pos) ||
 8004a58:	68fb      	ldr	r3, [r7, #12]
 8004a5a:	f403 3240 	and.w	r2, r3, #196608	@ 0x30000
 8004a5e:	687b      	ldr	r3, [r7, #4]
 8004a60:	6a9b      	ldr	r3, [r3, #40]	@ 0x28
 8004a62:	085b      	lsrs	r3, r3, #1
 8004a64:	3b01      	subs	r3, #1
 8004a66:	041b      	lsls	r3, r3, #16
            (READ_BIT(pll_config, RCC_PLLCFGR_PLLN) != (RCC_OscInitStruct->PLL.PLLN) << RCC_PLLCFGR_PLLN_Pos) ||
 8004a68:	429a      	cmp	r2, r3
 8004a6a:	d107      	bne.n	8004a7c <HAL_RCC_OscConfig+0x4dc>
            (READ_BIT(pll_config, RCC_PLLCFGR_PLLQ) != (RCC_OscInitStruct->PLL.PLLQ << RCC_PLLCFGR_PLLQ_Pos)))
 8004a6c:	68fb      	ldr	r3, [r7, #12]
 8004a6e:	f003 6270 	and.w	r2, r3, #251658240	@ 0xf000000
 8004a72:	687b      	ldr	r3, [r7, #4]
 8004a74:	6adb      	ldr	r3, [r3, #44]	@ 0x2c
 8004a76:	061b      	lsls	r3, r3, #24
            (READ_BIT(pll_config, RCC_PLLCFGR_PLLP) != (((RCC_OscInitStruct->PLL.PLLP >> 1U) - 1U)) << RCC_PLLCFGR_PLLP_Pos) ||
 8004a78:	429a      	cmp	r2, r3
 8004a7a:	d001      	beq.n	8004a80 <HAL_RCC_OscConfig+0x4e0>
#endif /* RCC_PLLCFGR_PLLR */
        {
          return HAL_ERROR;
 8004a7c:	2301      	movs	r3, #1
 8004a7e:	e000      	b.n	8004a82 <HAL_RCC_OscConfig+0x4e2>
        }
      }
    }
  }
  return HAL_OK;
 8004a80:	2300      	movs	r3, #0
}
 8004a82:	4618      	mov	r0, r3
 8004a84:	3718      	adds	r7, #24
 8004a86:	46bd      	mov	sp, r7
 8004a88:	bd80      	pop	{r7, pc}
 8004a8a:	bf00      	nop
 8004a8c:	40023800 	.word	0x40023800

08004a90 <HAL_RCC_ClockConfig>:
  *         HPRE[3:0] bits to ensure that HCLK not exceed the maximum allowed frequency
  *         (for more details refer to section above "Initialization/de-initialization functions")
  * @retval None
  */
HAL_StatusTypeDef HAL_RCC_ClockConfig(const RCC_ClkInitTypeDef  *RCC_ClkInitStruct, uint32_t FLatency)
{
 8004a90:	b580      	push	{r7, lr}
 8004a92:	b084      	sub	sp, #16
 8004a94:	af00      	add	r7, sp, #0
 8004a96:	6078      	str	r0, [r7, #4]
 8004a98:	6039      	str	r1, [r7, #0]
  uint32_t tickstart;

  /* Check Null pointer */
  if (RCC_ClkInitStruct == NULL)
 8004a9a:	687b      	ldr	r3, [r7, #4]
 8004a9c:	2b00      	cmp	r3, #0
 8004a9e:	d101      	bne.n	8004aa4 <HAL_RCC_ClockConfig+0x14>
  {
    return HAL_ERROR;
 8004aa0:	2301      	movs	r3, #1
 8004aa2:	e0cc      	b.n	8004c3e <HAL_RCC_ClockConfig+0x1ae>
  /* To correctly read data from FLASH memory, the number of wait states (LATENCY)
    must be correctly programmed according to the frequency of the CPU clock
    (HCLK) and the supply voltage of the device. */

  /* Increasing the number of wait states because of higher CPU frequency */
  if (FLatency > __HAL_FLASH_GET_LATENCY())
 8004aa4:	4b68      	ldr	r3, [pc, #416]	@ (8004c48 <HAL_RCC_ClockConfig+0x1b8>)
 8004aa6:	681b      	ldr	r3, [r3, #0]
 8004aa8:	f003 0307 	and.w	r3, r3, #7
 8004aac:	683a      	ldr	r2, [r7, #0]
 8004aae:	429a      	cmp	r2, r3
 8004ab0:	d90c      	bls.n	8004acc <HAL_RCC_ClockConfig+0x3c>
  {
    /* Program the new number of wait states to the LATENCY bits in the FLASH_ACR register */
    __HAL_FLASH_SET_LATENCY(FLatency);
 8004ab2:	4b65      	ldr	r3, [pc, #404]	@ (8004c48 <HAL_RCC_ClockConfig+0x1b8>)
 8004ab4:	683a      	ldr	r2, [r7, #0]
 8004ab6:	b2d2      	uxtb	r2, r2
 8004ab8:	701a      	strb	r2, [r3, #0]

    /* Check that the new number of wait states is taken into account to access the Flash
    memory by reading the FLASH_ACR register */
    if (__HAL_FLASH_GET_LATENCY() != FLatency)
 8004aba:	4b63      	ldr	r3, [pc, #396]	@ (8004c48 <HAL_RCC_ClockConfig+0x1b8>)
 8004abc:	681b      	ldr	r3, [r3, #0]
 8004abe:	f003 0307 	and.w	r3, r3, #7
 8004ac2:	683a      	ldr	r2, [r7, #0]
 8004ac4:	429a      	cmp	r2, r3
 8004ac6:	d001      	beq.n	8004acc <HAL_RCC_ClockConfig+0x3c>
    {
      return HAL_ERROR;
 8004ac8:	2301      	movs	r3, #1
 8004aca:	e0b8      	b.n	8004c3e <HAL_RCC_ClockConfig+0x1ae>
    }
  }

  /*-------------------------- HCLK Configuration --------------------------*/
  if (((RCC_ClkInitStruct->ClockType) & RCC_CLOCKTYPE_HCLK) == RCC_CLOCKTYPE_HCLK)
 8004acc:	687b      	ldr	r3, [r7, #4]
 8004ace:	681b      	ldr	r3, [r3, #0]
 8004ad0:	f003 0302 	and.w	r3, r3, #2
 8004ad4:	2b00      	cmp	r3, #0
 8004ad6:	d020      	beq.n	8004b1a <HAL_RCC_ClockConfig+0x8a>
  {
    /* Set the highest APBx dividers in order to ensure that we do not go through
       a non-spec phase whatever we decrease or increase HCLK. */
    if (((RCC_ClkInitStruct->ClockType) & RCC_CLOCKTYPE_PCLK1) == RCC_CLOCKTYPE_PCLK1)
 8004ad8:	687b      	ldr	r3, [r7, #4]
 8004ada:	681b      	ldr	r3, [r3, #0]
 8004adc:	f003 0304 	and.w	r3, r3, #4
 8004ae0:	2b00      	cmp	r3, #0
 8004ae2:	d005      	beq.n	8004af0 <HAL_RCC_ClockConfig+0x60>
    {
      MODIFY_REG(RCC->CFGR, RCC_CFGR_PPRE1, RCC_HCLK_DIV16);
 8004ae4:	4b59      	ldr	r3, [pc, #356]	@ (8004c4c <HAL_RCC_ClockConfig+0x1bc>)
 8004ae6:	689b      	ldr	r3, [r3, #8]
 8004ae8:	4a58      	ldr	r2, [pc, #352]	@ (8004c4c <HAL_RCC_ClockConfig+0x1bc>)
 8004aea:	f443 53e0 	orr.w	r3, r3, #7168	@ 0x1c00
 8004aee:	6093      	str	r3, [r2, #8]
    }

    if (((RCC_ClkInitStruct->ClockType) & RCC_CLOCKTYPE_PCLK2) == RCC_CLOCKTYPE_PCLK2)
 8004af0:	687b      	ldr	r3, [r7, #4]
 8004af2:	681b      	ldr	r3, [r3, #0]
 8004af4:	f003 0308 	and.w	r3, r3, #8
 8004af8:	2b00      	cmp	r3, #0
 8004afa:	d005      	beq.n	8004b08 <HAL_RCC_ClockConfig+0x78>
    {
      MODIFY_REG(RCC->CFGR, RCC_CFGR_PPRE2, (RCC_HCLK_DIV16 << 3));
 8004afc:	4b53      	ldr	r3, [pc, #332]	@ (8004c4c <HAL_RCC_ClockConfig+0x1bc>)
 8004afe:	689b      	ldr	r3, [r3, #8]
 8004b00:	4a52      	ldr	r2, [pc, #328]	@ (8004c4c <HAL_RCC_ClockConfig+0x1bc>)
 8004b02:	f443 4360 	orr.w	r3, r3, #57344	@ 0xe000
 8004b06:	6093      	str	r3, [r2, #8]
    }

    assert_param(IS_RCC_HCLK(RCC_ClkInitStruct->AHBCLKDivider));
    MODIFY_REG(RCC->CFGR, RCC_CFGR_HPRE, RCC_ClkInitStruct->AHBCLKDivider);
 8004b08:	4b50      	ldr	r3, [pc, #320]	@ (8004c4c <HAL_RCC_ClockConfig+0x1bc>)
 8004b0a:	689b      	ldr	r3, [r3, #8]
 8004b0c:	f023 02f0 	bic.w	r2, r3, #240	@ 0xf0
 8004b10:	687b      	ldr	r3, [r7, #4]
 8004b12:	689b      	ldr	r3, [r3, #8]
 8004b14:	494d      	ldr	r1, [pc, #308]	@ (8004c4c <HAL_RCC_ClockConfig+0x1bc>)
 8004b16:	4313      	orrs	r3, r2
 8004b18:	608b      	str	r3, [r1, #8]
  }

  /*------------------------- SYSCLK Configuration ---------------------------*/
  if (((RCC_ClkInitStruct->ClockType) & RCC_CLOCKTYPE_SYSCLK) == RCC_CLOCKTYPE_SYSCLK)
 8004b1a:	687b      	ldr	r3, [r7, #4]
 8004b1c:	681b      	ldr	r3, [r3, #0]
 8004b1e:	f003 0301 	and.w	r3, r3, #1
 8004b22:	2b00      	cmp	r3, #0
 8004b24:	d044      	beq.n	8004bb0 <HAL_RCC_ClockConfig+0x120>
  {
    assert_param(IS_RCC_SYSCLKSOURCE(RCC_ClkInitStruct->SYSCLKSource));

    /* HSE is selected as System Clock Source */
    if (RCC_ClkInitStruct->SYSCLKSource == RCC_SYSCLKSOURCE_HSE)
 8004b26:	687b      	ldr	r3, [r7, #4]
 8004b28:	685b      	ldr	r3, [r3, #4]
 8004b2a:	2b01      	cmp	r3, #1
 8004b2c:	d107      	bne.n	8004b3e <HAL_RCC_ClockConfig+0xae>
    {
      /* Check the HSE ready flag */
      if (__HAL_RCC_GET_FLAG(RCC_FLAG_HSERDY) == RESET)
 8004b2e:	4b47      	ldr	r3, [pc, #284]	@ (8004c4c <HAL_RCC_ClockConfig+0x1bc>)
 8004b30:	681b      	ldr	r3, [r3, #0]
 8004b32:	f403 3300 	and.w	r3, r3, #131072	@ 0x20000
 8004b36:	2b00      	cmp	r3, #0
 8004b38:	d119      	bne.n	8004b6e <HAL_RCC_ClockConfig+0xde>
      {
        return HAL_ERROR;
 8004b3a:	2301      	movs	r3, #1
 8004b3c:	e07f      	b.n	8004c3e <HAL_RCC_ClockConfig+0x1ae>
      }
    }
    /* PLL is selected as System Clock Source */
    else if ((RCC_ClkInitStruct->SYSCLKSource == RCC_SYSCLKSOURCE_PLLCLK)   ||
 8004b3e:	687b      	ldr	r3, [r7, #4]
 8004b40:	685b      	ldr	r3, [r3, #4]
 8004b42:	2b02      	cmp	r3, #2
 8004b44:	d003      	beq.n	8004b4e <HAL_RCC_ClockConfig+0xbe>
             (RCC_ClkInitStruct->SYSCLKSource == RCC_SYSCLKSOURCE_PLLRCLK))
 8004b46:	687b      	ldr	r3, [r7, #4]
 8004b48:	685b      	ldr	r3, [r3, #4]
    else if ((RCC_ClkInitStruct->SYSCLKSource == RCC_SYSCLKSOURCE_PLLCLK)   ||
 8004b4a:	2b03      	cmp	r3, #3
 8004b4c:	d107      	bne.n	8004b5e <HAL_RCC_ClockConfig+0xce>
    {
      /* Check the PLL ready flag */
      if (__HAL_RCC_GET_FLAG(RCC_FLAG_PLLRDY) == RESET)
 8004b4e:	4b3f      	ldr	r3, [pc, #252]	@ (8004c4c <HAL_RCC_ClockConfig+0x1bc>)
 8004b50:	681b      	ldr	r3, [r3, #0]
 8004b52:	f003 7300 	and.w	r3, r3, #33554432	@ 0x2000000
 8004b56:	2b00      	cmp	r3, #0
 8004b58:	d109      	bne.n	8004b6e <HAL_RCC_ClockConfig+0xde>
      {
        return HAL_ERROR;
 8004b5a:	2301      	movs	r3, #1
 8004b5c:	e06f      	b.n	8004c3e <HAL_RCC_ClockConfig+0x1ae>
    }
    /* HSI is selected as System Clock Source */
    else
    {
      /* Check the HSI ready flag */
      if (__HAL_RCC_GET_FLAG(RCC_FLAG_HSIRDY) == RESET)
 8004b5e:	4b3b      	ldr	r3, [pc, #236]	@ (8004c4c <HAL_RCC_ClockConfig+0x1bc>)
 8004b60:	681b      	ldr	r3, [r3, #0]
 8004b62:	f003 0302 	and.w	r3, r3, #2
 8004b66:	2b00      	cmp	r3, #0
 8004b68:	d101      	bne.n	8004b6e <HAL_RCC_ClockConfig+0xde>
      {
        return HAL_ERROR;
 8004b6a:	2301      	movs	r3, #1
 8004b6c:	e067      	b.n	8004c3e <HAL_RCC_ClockConfig+0x1ae>
      }
    }

    __HAL_RCC_SYSCLK_CONFIG(RCC_ClkInitStruct->SYSCLKSource);
 8004b6e:	4b37      	ldr	r3, [pc, #220]	@ (8004c4c <HAL_RCC_ClockConfig+0x1bc>)
 8004b70:	689b      	ldr	r3, [r3, #8]
 8004b72:	f023 0203 	bic.w	r2, r3, #3
 8004b76:	687b      	ldr	r3, [r7, #4]
 8004b78:	685b      	ldr	r3, [r3, #4]
 8004b7a:	4934      	ldr	r1, [pc, #208]	@ (8004c4c <HAL_RCC_ClockConfig+0x1bc>)
 8004b7c:	4313      	orrs	r3, r2
 8004b7e:	608b      	str	r3, [r1, #8]

    /* Get Start Tick */
    tickstart = HAL_GetTick();
 8004b80:	f7fd fa5e 	bl	8002040 <HAL_GetTick>
 8004b84:	60f8      	str	r0, [r7, #12]

    while (__HAL_RCC_GET_SYSCLK_SOURCE() != (RCC_ClkInitStruct->SYSCLKSource << RCC_CFGR_SWS_Pos))
 8004b86:	e00a      	b.n	8004b9e <HAL_RCC_ClockConfig+0x10e>
    {
      if ((HAL_GetTick() - tickstart) > CLOCKSWITCH_TIMEOUT_VALUE)
 8004b88:	f7fd fa5a 	bl	8002040 <HAL_GetTick>
 8004b8c:	4602      	mov	r2, r0
 8004b8e:	68fb      	ldr	r3, [r7, #12]
 8004b90:	1ad3      	subs	r3, r2, r3
 8004b92:	f241 3288 	movw	r2, #5000	@ 0x1388
 8004b96:	4293      	cmp	r3, r2
 8004b98:	d901      	bls.n	8004b9e <HAL_RCC_ClockConfig+0x10e>
      {
        return HAL_TIMEOUT;
 8004b9a:	2303      	movs	r3, #3
 8004b9c:	e04f      	b.n	8004c3e <HAL_RCC_ClockConfig+0x1ae>
    while (__HAL_RCC_GET_SYSCLK_SOURCE() != (RCC_ClkInitStruct->SYSCLKSource << RCC_CFGR_SWS_Pos))
 8004b9e:	4b2b      	ldr	r3, [pc, #172]	@ (8004c4c <HAL_RCC_ClockConfig+0x1bc>)
 8004ba0:	689b      	ldr	r3, [r3, #8]
 8004ba2:	f003 020c 	and.w	r2, r3, #12
 8004ba6:	687b      	ldr	r3, [r7, #4]
 8004ba8:	685b      	ldr	r3, [r3, #4]
 8004baa:	009b      	lsls	r3, r3, #2
 8004bac:	429a      	cmp	r2, r3
 8004bae:	d1eb      	bne.n	8004b88 <HAL_RCC_ClockConfig+0xf8>
      }
    }
  }

  /* Decreasing the number of wait states because of lower CPU frequency */
  if (FLatency < __HAL_FLASH_GET_LATENCY())
 8004bb0:	4b25      	ldr	r3, [pc, #148]	@ (8004c48 <HAL_RCC_ClockConfig+0x1b8>)
 8004bb2:	681b      	ldr	r3, [r3, #0]
 8004bb4:	f003 0307 	and.w	r3, r3, #7
 8004bb8:	683a      	ldr	r2, [r7, #0]
 8004bba:	429a      	cmp	r2, r3
 8004bbc:	d20c      	bcs.n	8004bd8 <HAL_RCC_ClockConfig+0x148>
  {
    /* Program the new number of wait states to the LATENCY bits in the FLASH_ACR register */
    __HAL_FLASH_SET_LATENCY(FLatency);
 8004bbe:	4b22      	ldr	r3, [pc, #136]	@ (8004c48 <HAL_RCC_ClockConfig+0x1b8>)
 8004bc0:	683a      	ldr	r2, [r7, #0]
 8004bc2:	b2d2      	uxtb	r2, r2
 8004bc4:	701a      	strb	r2, [r3, #0]

    /* Check that the new number of wait states is taken into account to access the Flash
    memory by reading the FLASH_ACR register */
    if (__HAL_FLASH_GET_LATENCY() != FLatency)
 8004bc6:	4b20      	ldr	r3, [pc, #128]	@ (8004c48 <HAL_RCC_ClockConfig+0x1b8>)
 8004bc8:	681b      	ldr	r3, [r3, #0]
 8004bca:	f003 0307 	and.w	r3, r3, #7
 8004bce:	683a      	ldr	r2, [r7, #0]
 8004bd0:	429a      	cmp	r2, r3
 8004bd2:	d001      	beq.n	8004bd8 <HAL_RCC_ClockConfig+0x148>
    {
      return HAL_ERROR;
 8004bd4:	2301      	movs	r3, #1
 8004bd6:	e032      	b.n	8004c3e <HAL_RCC_ClockConfig+0x1ae>
    }
  }

  /*-------------------------- PCLK1 Configuration ---------------------------*/
  if (((RCC_ClkInitStruct->ClockType) & RCC_CLOCKTYPE_PCLK1) == RCC_CLOCKTYPE_PCLK1)
 8004bd8:	687b      	ldr	r3, [r7, #4]
 8004bda:	681b      	ldr	r3, [r3, #0]
 8004bdc:	f003 0304 	and.w	r3, r3, #4
 8004be0:	2b00      	cmp	r3, #0
 8004be2:	d008      	beq.n	8004bf6 <HAL_RCC_ClockConfig+0x166>
  {
    assert_param(IS_RCC_PCLK(RCC_ClkInitStruct->APB1CLKDivider));
    MODIFY_REG(RCC->CFGR, RCC_CFGR_PPRE1, RCC_ClkInitStruct->APB1CLKDivider);
 8004be4:	4b19      	ldr	r3, [pc, #100]	@ (8004c4c <HAL_RCC_ClockConfig+0x1bc>)
 8004be6:	689b      	ldr	r3, [r3, #8]
 8004be8:	f423 52e0 	bic.w	r2, r3, #7168	@ 0x1c00
 8004bec:	687b      	ldr	r3, [r7, #4]
 8004bee:	68db      	ldr	r3, [r3, #12]
 8004bf0:	4916      	ldr	r1, [pc, #88]	@ (8004c4c <HAL_RCC_ClockConfig+0x1bc>)
 8004bf2:	4313      	orrs	r3, r2
 8004bf4:	608b      	str	r3, [r1, #8]
  }

  /*-------------------------- PCLK2 Configuration ---------------------------*/
  if (((RCC_ClkInitStruct->ClockType) & RCC_CLOCKTYPE_PCLK2) == RCC_CLOCKTYPE_PCLK2)
 8004bf6:	687b      	ldr	r3, [r7, #4]
 8004bf8:	681b      	ldr	r3, [r3, #0]
 8004bfa:	f003 0308 	and.w	r3, r3, #8
 8004bfe:	2b00      	cmp	r3, #0
 8004c00:	d009      	beq.n	8004c16 <HAL_RCC_ClockConfig+0x186>
  {
    assert_param(IS_RCC_PCLK(RCC_ClkInitStruct->APB2CLKDivider));
    MODIFY_REG(RCC->CFGR, RCC_CFGR_PPRE2, ((RCC_ClkInitStruct->APB2CLKDivider) << 3U));
 8004c02:	4b12      	ldr	r3, [pc, #72]	@ (8004c4c <HAL_RCC_ClockConfig+0x1bc>)
 8004c04:	689b      	ldr	r3, [r3, #8]
 8004c06:	f423 4260 	bic.w	r2, r3, #57344	@ 0xe000
 8004c0a:	687b      	ldr	r3, [r7, #4]
 8004c0c:	691b      	ldr	r3, [r3, #16]
 8004c0e:	00db      	lsls	r3, r3, #3
 8004c10:	490e      	ldr	r1, [pc, #56]	@ (8004c4c <HAL_RCC_ClockConfig+0x1bc>)
 8004c12:	4313      	orrs	r3, r2
 8004c14:	608b      	str	r3, [r1, #8]
  }

  /* Update the SystemCoreClock global variable */
  SystemCoreClock = HAL_RCC_GetSysClockFreq() >> AHBPrescTable[(RCC->CFGR & RCC_CFGR_HPRE) >> RCC_CFGR_HPRE_Pos];
 8004c16:	f000 f821 	bl	8004c5c <HAL_RCC_GetSysClockFreq>
 8004c1a:	4602      	mov	r2, r0
 8004c1c:	4b0b      	ldr	r3, [pc, #44]	@ (8004c4c <HAL_RCC_ClockConfig+0x1bc>)
 8004c1e:	689b      	ldr	r3, [r3, #8]
 8004c20:	091b      	lsrs	r3, r3, #4
 8004c22:	f003 030f 	and.w	r3, r3, #15
 8004c26:	490a      	ldr	r1, [pc, #40]	@ (8004c50 <HAL_RCC_ClockConfig+0x1c0>)
 8004c28:	5ccb      	ldrb	r3, [r1, r3]
 8004c2a:	fa22 f303 	lsr.w	r3, r2, r3
 8004c2e:	4a09      	ldr	r2, [pc, #36]	@ (8004c54 <HAL_RCC_ClockConfig+0x1c4>)
 8004c30:	6013      	str	r3, [r2, #0]

  /* Configure the source of time base considering new system clocks settings */
  HAL_InitTick(uwTickPrio);
 8004c32:	4b09      	ldr	r3, [pc, #36]	@ (8004c58 <HAL_RCC_ClockConfig+0x1c8>)
 8004c34:	681b      	ldr	r3, [r3, #0]
 8004c36:	4618      	mov	r0, r3
 8004c38:	f7fd f9be 	bl	8001fb8 <HAL_InitTick>

  return HAL_OK;
 8004c3c:	2300      	movs	r3, #0
}
 8004c3e:	4618      	mov	r0, r3
 8004c40:	3710      	adds	r7, #16
 8004c42:	46bd      	mov	sp, r7
 8004c44:	bd80      	pop	{r7, pc}
 8004c46:	bf00      	nop
 8004c48:	40023c00 	.word	0x40023c00
 8004c4c:	40023800 	.word	0x40023800
 8004c50:	08006dd0 	.word	0x08006dd0
 8004c54:	20000008 	.word	0x20000008
 8004c58:	2000000c 	.word	0x2000000c

08004c5c <HAL_RCC_GetSysClockFreq>:
  *
  *
  * @retval SYSCLK frequency
  */
__weak uint32_t HAL_RCC_GetSysClockFreq(void)
{
 8004c5c:	e92d 4fb0 	stmdb	sp!, {r4, r5, r7, r8, r9, sl, fp, lr}
 8004c60:	b094      	sub	sp, #80	@ 0x50
 8004c62:	af00      	add	r7, sp, #0
  uint32_t pllm = 0U;
 8004c64:	2300      	movs	r3, #0
 8004c66:	647b      	str	r3, [r7, #68]	@ 0x44
  uint32_t pllvco = 0U;
 8004c68:	2300      	movs	r3, #0
 8004c6a:	64fb      	str	r3, [r7, #76]	@ 0x4c
  uint32_t pllp = 0U;
 8004c6c:	2300      	movs	r3, #0
 8004c6e:	643b      	str	r3, [r7, #64]	@ 0x40
  uint32_t sysclockfreq = 0U;
 8004c70:	2300      	movs	r3, #0
 8004c72:	64bb      	str	r3, [r7, #72]	@ 0x48

  /* Get SYSCLK source -------------------------------------------------------*/
  switch (RCC->CFGR & RCC_CFGR_SWS)
 8004c74:	4b79      	ldr	r3, [pc, #484]	@ (8004e5c <HAL_RCC_GetSysClockFreq+0x200>)
 8004c76:	689b      	ldr	r3, [r3, #8]
 8004c78:	f003 030c 	and.w	r3, r3, #12
 8004c7c:	2b08      	cmp	r3, #8
 8004c7e:	d00d      	beq.n	8004c9c <HAL_RCC_GetSysClockFreq+0x40>
 8004c80:	2b08      	cmp	r3, #8
 8004c82:	f200 80e1 	bhi.w	8004e48 <HAL_RCC_GetSysClockFreq+0x1ec>
 8004c86:	2b00      	cmp	r3, #0
 8004c88:	d002      	beq.n	8004c90 <HAL_RCC_GetSysClockFreq+0x34>
 8004c8a:	2b04      	cmp	r3, #4
 8004c8c:	d003      	beq.n	8004c96 <HAL_RCC_GetSysClockFreq+0x3a>
 8004c8e:	e0db      	b.n	8004e48 <HAL_RCC_GetSysClockFreq+0x1ec>
  {
    case RCC_CFGR_SWS_HSI:  /* HSI used as system clock source */
    {
      sysclockfreq = HSI_VALUE;
 8004c90:	4b73      	ldr	r3, [pc, #460]	@ (8004e60 <HAL_RCC_GetSysClockFreq+0x204>)
 8004c92:	64bb      	str	r3, [r7, #72]	@ 0x48
      break;
 8004c94:	e0db      	b.n	8004e4e <HAL_RCC_GetSysClockFreq+0x1f2>
    }
    case RCC_CFGR_SWS_HSE:  /* HSE used as system clock  source */
    {
      sysclockfreq = HSE_VALUE;
 8004c96:	4b73      	ldr	r3, [pc, #460]	@ (8004e64 <HAL_RCC_GetSysClockFreq+0x208>)
 8004c98:	64bb      	str	r3, [r7, #72]	@ 0x48
      break;
 8004c9a:	e0d8      	b.n	8004e4e <HAL_RCC_GetSysClockFreq+0x1f2>
    }
    case RCC_CFGR_SWS_PLL:  /* PLL used as system clock  source */
    {
      /* PLL_VCO = (HSE_VALUE or HSI_VALUE / PLLM) * PLLN
      SYSCLK = PLL_VCO / PLLP */
      pllm = RCC->PLLCFGR & RCC_PLLCFGR_PLLM;
 8004c9c:	4b6f      	ldr	r3, [pc, #444]	@ (8004e5c <HAL_RCC_GetSysClockFreq+0x200>)
 8004c9e:	685b      	ldr	r3, [r3, #4]
 8004ca0:	f003 033f 	and.w	r3, r3, #63	@ 0x3f
 8004ca4:	647b      	str	r3, [r7, #68]	@ 0x44
      if (__HAL_RCC_GET_PLL_OSCSOURCE() != RCC_PLLSOURCE_HSI)
 8004ca6:	4b6d      	ldr	r3, [pc, #436]	@ (8004e5c <HAL_RCC_GetSysClockFreq+0x200>)
 8004ca8:	685b      	ldr	r3, [r3, #4]
 8004caa:	f403 0380 	and.w	r3, r3, #4194304	@ 0x400000
 8004cae:	2b00      	cmp	r3, #0
 8004cb0:	d063      	beq.n	8004d7a <HAL_RCC_GetSysClockFreq+0x11e>
      {
        /* HSE used as PLL clock source */
        pllvco = (uint32_t)((((uint64_t) HSE_VALUE * ((uint64_t)((RCC->PLLCFGR & RCC_PLLCFGR_PLLN) >> RCC_PLLCFGR_PLLN_Pos)))) / (uint64_t)pllm);
 8004cb2:	4b6a      	ldr	r3, [pc, #424]	@ (8004e5c <HAL_RCC_GetSysClockFreq+0x200>)
 8004cb4:	685b      	ldr	r3, [r3, #4]
 8004cb6:	099b      	lsrs	r3, r3, #6
 8004cb8:	2200      	movs	r2, #0
 8004cba:	63bb      	str	r3, [r7, #56]	@ 0x38
 8004cbc:	63fa      	str	r2, [r7, #60]	@ 0x3c
 8004cbe:	6bbb      	ldr	r3, [r7, #56]	@ 0x38
 8004cc0:	f3c3 0308 	ubfx	r3, r3, #0, #9
 8004cc4:	633b      	str	r3, [r7, #48]	@ 0x30
 8004cc6:	2300      	movs	r3, #0
 8004cc8:	637b      	str	r3, [r7, #52]	@ 0x34
 8004cca:	e9d7 450c 	ldrd	r4, r5, [r7, #48]	@ 0x30
 8004cce:	4622      	mov	r2, r4
 8004cd0:	462b      	mov	r3, r5
 8004cd2:	f04f 0000 	mov.w	r0, #0
 8004cd6:	f04f 0100 	mov.w	r1, #0
 8004cda:	0159      	lsls	r1, r3, #5
 8004cdc:	ea41 61d2 	orr.w	r1, r1, r2, lsr #27
 8004ce0:	0150      	lsls	r0, r2, #5
 8004ce2:	4602      	mov	r2, r0
 8004ce4:	460b      	mov	r3, r1
 8004ce6:	4621      	mov	r1, r4
 8004ce8:	1a51      	subs	r1, r2, r1
 8004cea:	6139      	str	r1, [r7, #16]
 8004cec:	4629      	mov	r1, r5
 8004cee:	eb63 0301 	sbc.w	r3, r3, r1
 8004cf2:	617b      	str	r3, [r7, #20]
 8004cf4:	f04f 0200 	mov.w	r2, #0
 8004cf8:	f04f 0300 	mov.w	r3, #0
 8004cfc:	e9d7 ab04 	ldrd	sl, fp, [r7, #16]
 8004d00:	4659      	mov	r1, fp
 8004d02:	018b      	lsls	r3, r1, #6
 8004d04:	4651      	mov	r1, sl
 8004d06:	ea43 6391 	orr.w	r3, r3, r1, lsr #26
 8004d0a:	4651      	mov	r1, sl
 8004d0c:	018a      	lsls	r2, r1, #6
 8004d0e:	4651      	mov	r1, sl
 8004d10:	ebb2 0801 	subs.w	r8, r2, r1
 8004d14:	4659      	mov	r1, fp
 8004d16:	eb63 0901 	sbc.w	r9, r3, r1
 8004d1a:	f04f 0200 	mov.w	r2, #0
 8004d1e:	f04f 0300 	mov.w	r3, #0
 8004d22:	ea4f 03c9 	mov.w	r3, r9, lsl #3
 8004d26:	ea43 7358 	orr.w	r3, r3, r8, lsr #29
 8004d2a:	ea4f 02c8 	mov.w	r2, r8, lsl #3
 8004d2e:	4690      	mov	r8, r2
 8004d30:	4699      	mov	r9, r3
 8004d32:	4623      	mov	r3, r4
 8004d34:	eb18 0303 	adds.w	r3, r8, r3
 8004d38:	60bb      	str	r3, [r7, #8]
 8004d3a:	462b      	mov	r3, r5
 8004d3c:	eb49 0303 	adc.w	r3, r9, r3
 8004d40:	60fb      	str	r3, [r7, #12]
 8004d42:	f04f 0200 	mov.w	r2, #0
 8004d46:	f04f 0300 	mov.w	r3, #0
 8004d4a:	e9d7 4502 	ldrd	r4, r5, [r7, #8]
 8004d4e:	4629      	mov	r1, r5
 8004d50:	024b      	lsls	r3, r1, #9
 8004d52:	4621      	mov	r1, r4
 8004d54:	ea43 53d1 	orr.w	r3, r3, r1, lsr #23
 8004d58:	4621      	mov	r1, r4
 8004d5a:	024a      	lsls	r2, r1, #9
 8004d5c:	4610      	mov	r0, r2
 8004d5e:	4619      	mov	r1, r3
 8004d60:	6c7b      	ldr	r3, [r7, #68]	@ 0x44
 8004d62:	2200      	movs	r2, #0
 8004d64:	62bb      	str	r3, [r7, #40]	@ 0x28
 8004d66:	62fa      	str	r2, [r7, #44]	@ 0x2c
 8004d68:	e9d7 230a 	ldrd	r2, r3, [r7, #40]	@ 0x28
 8004d6c:	f7fb fa2c 	bl	80001c8 <__aeabi_uldivmod>
 8004d70:	4602      	mov	r2, r0
 8004d72:	460b      	mov	r3, r1
 8004d74:	4613      	mov	r3, r2
 8004d76:	64fb      	str	r3, [r7, #76]	@ 0x4c
 8004d78:	e058      	b.n	8004e2c <HAL_RCC_GetSysClockFreq+0x1d0>
      }
      else
      {
        /* HSI used as PLL clock source */
        pllvco = (uint32_t)((((uint64_t) HSI_VALUE * ((uint64_t)((RCC->PLLCFGR & RCC_PLLCFGR_PLLN) >> RCC_PLLCFGR_PLLN_Pos)))) / (uint64_t)pllm);
 8004d7a:	4b38      	ldr	r3, [pc, #224]	@ (8004e5c <HAL_RCC_GetSysClockFreq+0x200>)
 8004d7c:	685b      	ldr	r3, [r3, #4]
 8004d7e:	099b      	lsrs	r3, r3, #6
 8004d80:	2200      	movs	r2, #0
 8004d82:	4618      	mov	r0, r3
 8004d84:	4611      	mov	r1, r2
 8004d86:	f3c0 0308 	ubfx	r3, r0, #0, #9
 8004d8a:	623b      	str	r3, [r7, #32]
 8004d8c:	2300      	movs	r3, #0
 8004d8e:	627b      	str	r3, [r7, #36]	@ 0x24
 8004d90:	e9d7 8908 	ldrd	r8, r9, [r7, #32]
 8004d94:	4642      	mov	r2, r8
 8004d96:	464b      	mov	r3, r9
 8004d98:	f04f 0000 	mov.w	r0, #0
 8004d9c:	f04f 0100 	mov.w	r1, #0
 8004da0:	0159      	lsls	r1, r3, #5
 8004da2:	ea41 61d2 	orr.w	r1, r1, r2, lsr #27
 8004da6:	0150      	lsls	r0, r2, #5
 8004da8:	4602      	mov	r2, r0
 8004daa:	460b      	mov	r3, r1
 8004dac:	4641      	mov	r1, r8
 8004dae:	ebb2 0a01 	subs.w	sl, r2, r1
 8004db2:	4649      	mov	r1, r9
 8004db4:	eb63 0b01 	sbc.w	fp, r3, r1
 8004db8:	f04f 0200 	mov.w	r2, #0
 8004dbc:	f04f 0300 	mov.w	r3, #0
 8004dc0:	ea4f 138b 	mov.w	r3, fp, lsl #6
 8004dc4:	ea43 639a 	orr.w	r3, r3, sl, lsr #26
 8004dc8:	ea4f 128a 	mov.w	r2, sl, lsl #6
 8004dcc:	ebb2 040a 	subs.w	r4, r2, sl
 8004dd0:	eb63 050b 	sbc.w	r5, r3, fp
 8004dd4:	f04f 0200 	mov.w	r2, #0
 8004dd8:	f04f 0300 	mov.w	r3, #0
 8004ddc:	00eb      	lsls	r3, r5, #3
 8004dde:	ea43 7354 	orr.w	r3, r3, r4, lsr #29
 8004de2:	00e2      	lsls	r2, r4, #3
 8004de4:	4614      	mov	r4, r2
 8004de6:	461d      	mov	r5, r3
 8004de8:	4643      	mov	r3, r8
 8004dea:	18e3      	adds	r3, r4, r3
 8004dec:	603b      	str	r3, [r7, #0]
 8004dee:	464b      	mov	r3, r9
 8004df0:	eb45 0303 	adc.w	r3, r5, r3
 8004df4:	607b      	str	r3, [r7, #4]
 8004df6:	f04f 0200 	mov.w	r2, #0
 8004dfa:	f04f 0300 	mov.w	r3, #0
 8004dfe:	e9d7 4500 	ldrd	r4, r5, [r7]
 8004e02:	4629      	mov	r1, r5
 8004e04:	028b      	lsls	r3, r1, #10
 8004e06:	4621      	mov	r1, r4
 8004e08:	ea43 5391 	orr.w	r3, r3, r1, lsr #22
 8004e0c:	4621      	mov	r1, r4
 8004e0e:	028a      	lsls	r2, r1, #10
 8004e10:	4610      	mov	r0, r2
 8004e12:	4619      	mov	r1, r3
 8004e14:	6c7b      	ldr	r3, [r7, #68]	@ 0x44
 8004e16:	2200      	movs	r2, #0
 8004e18:	61bb      	str	r3, [r7, #24]
 8004e1a:	61fa      	str	r2, [r7, #28]
 8004e1c:	e9d7 2306 	ldrd	r2, r3, [r7, #24]
 8004e20:	f7fb f9d2 	bl	80001c8 <__aeabi_uldivmod>
 8004e24:	4602      	mov	r2, r0
 8004e26:	460b      	mov	r3, r1
 8004e28:	4613      	mov	r3, r2
 8004e2a:	64fb      	str	r3, [r7, #76]	@ 0x4c
      }
      pllp = ((((RCC->PLLCFGR & RCC_PLLCFGR_PLLP) >> RCC_PLLCFGR_PLLP_Pos) + 1U) * 2U);
 8004e2c:	4b0b      	ldr	r3, [pc, #44]	@ (8004e5c <HAL_RCC_GetSysClockFreq+0x200>)
 8004e2e:	685b      	ldr	r3, [r3, #4]
 8004e30:	0c1b      	lsrs	r3, r3, #16
 8004e32:	f003 0303 	and.w	r3, r3, #3
 8004e36:	3301      	adds	r3, #1
 8004e38:	005b      	lsls	r3, r3, #1
 8004e3a:	643b      	str	r3, [r7, #64]	@ 0x40

      sysclockfreq = pllvco / pllp;
 8004e3c:	6cfa      	ldr	r2, [r7, #76]	@ 0x4c
 8004e3e:	6c3b      	ldr	r3, [r7, #64]	@ 0x40
 8004e40:	fbb2 f3f3 	udiv	r3, r2, r3
 8004e44:	64bb      	str	r3, [r7, #72]	@ 0x48
      break;
 8004e46:	e002      	b.n	8004e4e <HAL_RCC_GetSysClockFreq+0x1f2>
    }
    default:
    {
      sysclockfreq = HSI_VALUE;
 8004e48:	4b05      	ldr	r3, [pc, #20]	@ (8004e60 <HAL_RCC_GetSysClockFreq+0x204>)
 8004e4a:	64bb      	str	r3, [r7, #72]	@ 0x48
      break;
 8004e4c:	bf00      	nop
    }
  }
  return sysclockfreq;
 8004e4e:	6cbb      	ldr	r3, [r7, #72]	@ 0x48
}
 8004e50:	4618      	mov	r0, r3
 8004e52:	3750      	adds	r7, #80	@ 0x50
 8004e54:	46bd      	mov	sp, r7
 8004e56:	e8bd 8fb0 	ldmia.w	sp!, {r4, r5, r7, r8, r9, sl, fp, pc}
 8004e5a:	bf00      	nop
 8004e5c:	40023800 	.word	0x40023800
 8004e60:	00f42400 	.word	0x00f42400
 8004e64:	007a1200 	.word	0x007a1200

08004e68 <HAL_RCC_GetHCLKFreq>:
  * @note   The SystemCoreClock CMSIS variable is used to store System Clock Frequency
  *         and updated within this function
  * @retval HCLK frequency
  */
uint32_t HAL_RCC_GetHCLKFreq(void)
{
 8004e68:	b480      	push	{r7}
 8004e6a:	af00      	add	r7, sp, #0
  return SystemCoreClock;
 8004e6c:	4b03      	ldr	r3, [pc, #12]	@ (8004e7c <HAL_RCC_GetHCLKFreq+0x14>)
 8004e6e:	681b      	ldr	r3, [r3, #0]
}
 8004e70:	4618      	mov	r0, r3
 8004e72:	46bd      	mov	sp, r7
 8004e74:	f85d 7b04 	ldr.w	r7, [sp], #4
 8004e78:	4770      	bx	lr
 8004e7a:	bf00      	nop
 8004e7c:	20000008 	.word	0x20000008

08004e80 <HAL_RCC_GetPCLK1Freq>:
  * @note   Each time PCLK1 changes, this function must be called to update the
  *         right PCLK1 value. Otherwise, any configuration based on this function will be incorrect.
  * @retval PCLK1 frequency
  */
uint32_t HAL_RCC_GetPCLK1Freq(void)
{
 8004e80:	b580      	push	{r7, lr}
 8004e82:	af00      	add	r7, sp, #0
  /* Get HCLK source and Compute PCLK1 frequency ---------------------------*/
  return (HAL_RCC_GetHCLKFreq() >> APBPrescTable[(RCC->CFGR & RCC_CFGR_PPRE1) >> RCC_CFGR_PPRE1_Pos]);
 8004e84:	f7ff fff0 	bl	8004e68 <HAL_RCC_GetHCLKFreq>
 8004e88:	4602      	mov	r2, r0
 8004e8a:	4b05      	ldr	r3, [pc, #20]	@ (8004ea0 <HAL_RCC_GetPCLK1Freq+0x20>)
 8004e8c:	689b      	ldr	r3, [r3, #8]
 8004e8e:	0a9b      	lsrs	r3, r3, #10
 8004e90:	f003 0307 	and.w	r3, r3, #7
 8004e94:	4903      	ldr	r1, [pc, #12]	@ (8004ea4 <HAL_RCC_GetPCLK1Freq+0x24>)
 8004e96:	5ccb      	ldrb	r3, [r1, r3]
 8004e98:	fa22 f303 	lsr.w	r3, r2, r3
}
 8004e9c:	4618      	mov	r0, r3
 8004e9e:	bd80      	pop	{r7, pc}
 8004ea0:	40023800 	.word	0x40023800
 8004ea4:	08006de0 	.word	0x08006de0

08004ea8 <HAL_RCC_GetPCLK2Freq>:
  * @note   Each time PCLK2 changes, this function must be called to update the
  *         right PCLK2 value. Otherwise, any configuration based on this function will be incorrect.
  * @retval PCLK2 frequency
  */
uint32_t HAL_RCC_GetPCLK2Freq(void)
{
 8004ea8:	b580      	push	{r7, lr}
 8004eaa:	af00      	add	r7, sp, #0
  /* Get HCLK source and Compute PCLK2 frequency ---------------------------*/
  return (HAL_RCC_GetHCLKFreq() >> APBPrescTable[(RCC->CFGR & RCC_CFGR_PPRE2) >> RCC_CFGR_PPRE2_Pos]);
 8004eac:	f7ff ffdc 	bl	8004e68 <HAL_RCC_GetHCLKFreq>
 8004eb0:	4602      	mov	r2, r0
 8004eb2:	4b05      	ldr	r3, [pc, #20]	@ (8004ec8 <HAL_RCC_GetPCLK2Freq+0x20>)
 8004eb4:	689b      	ldr	r3, [r3, #8]
 8004eb6:	0b5b      	lsrs	r3, r3, #13
 8004eb8:	f003 0307 	and.w	r3, r3, #7
 8004ebc:	4903      	ldr	r1, [pc, #12]	@ (8004ecc <HAL_RCC_GetPCLK2Freq+0x24>)
 8004ebe:	5ccb      	ldrb	r3, [r1, r3]
 8004ec0:	fa22 f303 	lsr.w	r3, r2, r3
}
 8004ec4:	4618      	mov	r0, r3
 8004ec6:	bd80      	pop	{r7, pc}
 8004ec8:	40023800 	.word	0x40023800
 8004ecc:	08006de0 	.word	0x08006de0

08004ed0 <HAL_RCCEx_PeriphCLKConfig>:
  *        domain (RTC and RCC_BDCR register expect BKPSRAM) will be reset
  *
  * @retval HAL status
  */
HAL_StatusTypeDef HAL_RCCEx_PeriphCLKConfig(RCC_PeriphCLKInitTypeDef  *PeriphClkInit)
{
 8004ed0:	b580      	push	{r7, lr}
 8004ed2:	b086      	sub	sp, #24
 8004ed4:	af00      	add	r7, sp, #0
 8004ed6:	6078      	str	r0, [r7, #4]
  uint32_t tickstart = 0U;
 8004ed8:	2300      	movs	r3, #0
 8004eda:	617b      	str	r3, [r7, #20]
  uint32_t tmpreg1 = 0U;
 8004edc:	2300      	movs	r3, #0
 8004ede:	613b      	str	r3, [r7, #16]

  /* Check the parameters */
  assert_param(IS_RCC_PERIPHCLOCK(PeriphClkInit->PeriphClockSelection));

  /*---------------------------- I2S configuration ---------------------------*/
  if ((((PeriphClkInit->PeriphClockSelection) & RCC_PERIPHCLK_I2S) == RCC_PERIPHCLK_I2S) ||
 8004ee0:	687b      	ldr	r3, [r7, #4]
 8004ee2:	681b      	ldr	r3, [r3, #0]
 8004ee4:	f003 0301 	and.w	r3, r3, #1
 8004ee8:	2b00      	cmp	r3, #0
 8004eea:	d105      	bne.n	8004ef8 <HAL_RCCEx_PeriphCLKConfig+0x28>
      (((PeriphClkInit->PeriphClockSelection) & RCC_PERIPHCLK_PLLI2S) == RCC_PERIPHCLK_PLLI2S))
 8004eec:	687b      	ldr	r3, [r7, #4]
 8004eee:	681b      	ldr	r3, [r3, #0]
 8004ef0:	f003 0304 	and.w	r3, r3, #4
  if ((((PeriphClkInit->PeriphClockSelection) & RCC_PERIPHCLK_I2S) == RCC_PERIPHCLK_I2S) ||
 8004ef4:	2b00      	cmp	r3, #0
 8004ef6:	d035      	beq.n	8004f64 <HAL_RCCEx_PeriphCLKConfig+0x94>
    assert_param(IS_RCC_PLLI2SN_VALUE(PeriphClkInit->PLLI2S.PLLI2SN));
#if defined(STM32F411xE)
    assert_param(IS_RCC_PLLI2SM_VALUE(PeriphClkInit->PLLI2S.PLLI2SM));
#endif /* STM32F411xE */
    /* Disable the PLLI2S */
    __HAL_RCC_PLLI2S_DISABLE();
 8004ef8:	4b62      	ldr	r3, [pc, #392]	@ (8005084 <HAL_RCCEx_PeriphCLKConfig+0x1b4>)
 8004efa:	2200      	movs	r2, #0
 8004efc:	601a      	str	r2, [r3, #0]
    /* Get tick */
    tickstart = HAL_GetTick();
 8004efe:	f7fd f89f 	bl	8002040 <HAL_GetTick>
 8004f02:	6178      	str	r0, [r7, #20]
    /* Wait till PLLI2S is disabled */
    while (__HAL_RCC_GET_FLAG(RCC_FLAG_PLLI2SRDY)  != RESET)
 8004f04:	e008      	b.n	8004f18 <HAL_RCCEx_PeriphCLKConfig+0x48>
    {
      if ((HAL_GetTick() - tickstart) > PLLI2S_TIMEOUT_VALUE)
 8004f06:	f7fd f89b 	bl	8002040 <HAL_GetTick>
 8004f0a:	4602      	mov	r2, r0
 8004f0c:	697b      	ldr	r3, [r7, #20]
 8004f0e:	1ad3      	subs	r3, r2, r3
 8004f10:	2b02      	cmp	r3, #2
 8004f12:	d901      	bls.n	8004f18 <HAL_RCCEx_PeriphCLKConfig+0x48>
      {
        /* return in case of Timeout detected */
        return HAL_TIMEOUT;
 8004f14:	2303      	movs	r3, #3
 8004f16:	e0b0      	b.n	800507a <HAL_RCCEx_PeriphCLKConfig+0x1aa>
    while (__HAL_RCC_GET_FLAG(RCC_FLAG_PLLI2SRDY)  != RESET)
 8004f18:	4b5b      	ldr	r3, [pc, #364]	@ (8005088 <HAL_RCCEx_PeriphCLKConfig+0x1b8>)
 8004f1a:	681b      	ldr	r3, [r3, #0]
 8004f1c:	f003 6300 	and.w	r3, r3, #134217728	@ 0x8000000
 8004f20:	2b00      	cmp	r3, #0
 8004f22:	d1f0      	bne.n	8004f06 <HAL_RCCEx_PeriphCLKConfig+0x36>
                                   PeriphClkInit->PLLI2S.PLLI2SR);
#else
    /* Configure the PLLI2S division factors */
    /* PLLI2S_VCO = f(VCO clock) = f(PLLI2S clock input) * (PLLI2SN/PLLM) */
    /* I2SCLK = f(PLLI2S clock output) = f(VCO clock) / PLLI2SR */
    __HAL_RCC_PLLI2S_CONFIG(PeriphClkInit->PLLI2S.PLLI2SN, PeriphClkInit->PLLI2S.PLLI2SR);
 8004f24:	687b      	ldr	r3, [r7, #4]
 8004f26:	685b      	ldr	r3, [r3, #4]
 8004f28:	019a      	lsls	r2, r3, #6
 8004f2a:	687b      	ldr	r3, [r7, #4]
 8004f2c:	689b      	ldr	r3, [r3, #8]
 8004f2e:	071b      	lsls	r3, r3, #28
 8004f30:	4955      	ldr	r1, [pc, #340]	@ (8005088 <HAL_RCCEx_PeriphCLKConfig+0x1b8>)
 8004f32:	4313      	orrs	r3, r2
 8004f34:	f8c1 3084 	str.w	r3, [r1, #132]	@ 0x84
#endif /* STM32F411xE */

    /* Enable the PLLI2S */
    __HAL_RCC_PLLI2S_ENABLE();
 8004f38:	4b52      	ldr	r3, [pc, #328]	@ (8005084 <HAL_RCCEx_PeriphCLKConfig+0x1b4>)
 8004f3a:	2201      	movs	r2, #1
 8004f3c:	601a      	str	r2, [r3, #0]
    /* Get tick */
    tickstart = HAL_GetTick();
 8004f3e:	f7fd f87f 	bl	8002040 <HAL_GetTick>
 8004f42:	6178      	str	r0, [r7, #20]
    /* Wait till PLLI2S is ready */
    while (__HAL_RCC_GET_FLAG(RCC_FLAG_PLLI2SRDY)  == RESET)
 8004f44:	e008      	b.n	8004f58 <HAL_RCCEx_PeriphCLKConfig+0x88>
    {
      if ((HAL_GetTick() - tickstart) > PLLI2S_TIMEOUT_VALUE)
 8004f46:	f7fd f87b 	bl	8002040 <HAL_GetTick>
 8004f4a:	4602      	mov	r2, r0
 8004f4c:	697b      	ldr	r3, [r7, #20]
 8004f4e:	1ad3      	subs	r3, r2, r3
 8004f50:	2b02      	cmp	r3, #2
 8004f52:	d901      	bls.n	8004f58 <HAL_RCCEx_PeriphCLKConfig+0x88>
      {
        /* return in case of Timeout detected */
        return HAL_TIMEOUT;
 8004f54:	2303      	movs	r3, #3
 8004f56:	e090      	b.n	800507a <HAL_RCCEx_PeriphCLKConfig+0x1aa>
    while (__HAL_RCC_GET_FLAG(RCC_FLAG_PLLI2SRDY)  == RESET)
 8004f58:	4b4b      	ldr	r3, [pc, #300]	@ (8005088 <HAL_RCCEx_PeriphCLKConfig+0x1b8>)
 8004f5a:	681b      	ldr	r3, [r3, #0]
 8004f5c:	f003 6300 	and.w	r3, r3, #134217728	@ 0x8000000
 8004f60:	2b00      	cmp	r3, #0
 8004f62:	d0f0      	beq.n	8004f46 <HAL_RCCEx_PeriphCLKConfig+0x76>
      }
    }
  }

  /*---------------------------- RTC configuration ---------------------------*/
  if (((PeriphClkInit->PeriphClockSelection) & RCC_PERIPHCLK_RTC) == (RCC_PERIPHCLK_RTC))
 8004f64:	687b      	ldr	r3, [r7, #4]
 8004f66:	681b      	ldr	r3, [r3, #0]
 8004f68:	f003 0302 	and.w	r3, r3, #2
 8004f6c:	2b00      	cmp	r3, #0
 8004f6e:	f000 8083 	beq.w	8005078 <HAL_RCCEx_PeriphCLKConfig+0x1a8>
  {
    /* Check for RTC Parameters used to output RTCCLK */
    assert_param(IS_RCC_RTCCLKSOURCE(PeriphClkInit->RTCClockSelection));

    /* Enable Power Clock*/
    __HAL_RCC_PWR_CLK_ENABLE();
 8004f72:	2300      	movs	r3, #0
 8004f74:	60fb      	str	r3, [r7, #12]
 8004f76:	4b44      	ldr	r3, [pc, #272]	@ (8005088 <HAL_RCCEx_PeriphCLKConfig+0x1b8>)
 8004f78:	6c1b      	ldr	r3, [r3, #64]	@ 0x40
 8004f7a:	4a43      	ldr	r2, [pc, #268]	@ (8005088 <HAL_RCCEx_PeriphCLKConfig+0x1b8>)
 8004f7c:	f043 5380 	orr.w	r3, r3, #268435456	@ 0x10000000
 8004f80:	6413      	str	r3, [r2, #64]	@ 0x40
 8004f82:	4b41      	ldr	r3, [pc, #260]	@ (8005088 <HAL_RCCEx_PeriphCLKConfig+0x1b8>)
 8004f84:	6c1b      	ldr	r3, [r3, #64]	@ 0x40
 8004f86:	f003 5380 	and.w	r3, r3, #268435456	@ 0x10000000
 8004f8a:	60fb      	str	r3, [r7, #12]
 8004f8c:	68fb      	ldr	r3, [r7, #12]

    /* Enable write access to Backup domain */
    PWR->CR |= PWR_CR_DBP;
 8004f8e:	4b3f      	ldr	r3, [pc, #252]	@ (800508c <HAL_RCCEx_PeriphCLKConfig+0x1bc>)
 8004f90:	681b      	ldr	r3, [r3, #0]
 8004f92:	4a3e      	ldr	r2, [pc, #248]	@ (800508c <HAL_RCCEx_PeriphCLKConfig+0x1bc>)
 8004f94:	f443 7380 	orr.w	r3, r3, #256	@ 0x100
 8004f98:	6013      	str	r3, [r2, #0]

    /* Get tick */
    tickstart = HAL_GetTick();
 8004f9a:	f7fd f851 	bl	8002040 <HAL_GetTick>
 8004f9e:	6178      	str	r0, [r7, #20]

    while ((PWR->CR & PWR_CR_DBP) == RESET)
 8004fa0:	e008      	b.n	8004fb4 <HAL_RCCEx_PeriphCLKConfig+0xe4>
    {
      if ((HAL_GetTick() - tickstart) > RCC_DBP_TIMEOUT_VALUE)
 8004fa2:	f7fd f84d 	bl	8002040 <HAL_GetTick>
 8004fa6:	4602      	mov	r2, r0
 8004fa8:	697b      	ldr	r3, [r7, #20]
 8004faa:	1ad3      	subs	r3, r2, r3
 8004fac:	2b02      	cmp	r3, #2
 8004fae:	d901      	bls.n	8004fb4 <HAL_RCCEx_PeriphCLKConfig+0xe4>
      {
        return HAL_TIMEOUT;
 8004fb0:	2303      	movs	r3, #3
 8004fb2:	e062      	b.n	800507a <HAL_RCCEx_PeriphCLKConfig+0x1aa>
    while ((PWR->CR & PWR_CR_DBP) == RESET)
 8004fb4:	4b35      	ldr	r3, [pc, #212]	@ (800508c <HAL_RCCEx_PeriphCLKConfig+0x1bc>)
 8004fb6:	681b      	ldr	r3, [r3, #0]
 8004fb8:	f403 7380 	and.w	r3, r3, #256	@ 0x100
 8004fbc:	2b00      	cmp	r3, #0
 8004fbe:	d0f0      	beq.n	8004fa2 <HAL_RCCEx_PeriphCLKConfig+0xd2>
      }
    }
    /* Reset the Backup domain only if the RTC Clock source selection is modified from reset value */
    tmpreg1 = (RCC->BDCR & RCC_BDCR_RTCSEL);
 8004fc0:	4b31      	ldr	r3, [pc, #196]	@ (8005088 <HAL_RCCEx_PeriphCLKConfig+0x1b8>)
 8004fc2:	6f1b      	ldr	r3, [r3, #112]	@ 0x70
 8004fc4:	f403 7340 	and.w	r3, r3, #768	@ 0x300
 8004fc8:	613b      	str	r3, [r7, #16]
    if ((tmpreg1 != 0x00000000U) && ((tmpreg1) != (PeriphClkInit->RTCClockSelection & RCC_BDCR_RTCSEL)))
 8004fca:	693b      	ldr	r3, [r7, #16]
 8004fcc:	2b00      	cmp	r3, #0
 8004fce:	d02f      	beq.n	8005030 <HAL_RCCEx_PeriphCLKConfig+0x160>
 8004fd0:	687b      	ldr	r3, [r7, #4]
 8004fd2:	68db      	ldr	r3, [r3, #12]
 8004fd4:	f403 7340 	and.w	r3, r3, #768	@ 0x300
 8004fd8:	693a      	ldr	r2, [r7, #16]
 8004fda:	429a      	cmp	r2, r3
 8004fdc:	d028      	beq.n	8005030 <HAL_RCCEx_PeriphCLKConfig+0x160>
    {
      /* Store the content of BDCR register before the reset of Backup Domain */
      tmpreg1 = (RCC->BDCR & ~(RCC_BDCR_RTCSEL));
 8004fde:	4b2a      	ldr	r3, [pc, #168]	@ (8005088 <HAL_RCCEx_PeriphCLKConfig+0x1b8>)
 8004fe0:	6f1b      	ldr	r3, [r3, #112]	@ 0x70
 8004fe2:	f423 7340 	bic.w	r3, r3, #768	@ 0x300
 8004fe6:	613b      	str	r3, [r7, #16]
      /* RTC Clock selection can be changed only if the Backup Domain is reset */
      __HAL_RCC_BACKUPRESET_FORCE();
 8004fe8:	4b29      	ldr	r3, [pc, #164]	@ (8005090 <HAL_RCCEx_PeriphCLKConfig+0x1c0>)
 8004fea:	2201      	movs	r2, #1
 8004fec:	601a      	str	r2, [r3, #0]
      __HAL_RCC_BACKUPRESET_RELEASE();
 8004fee:	4b28      	ldr	r3, [pc, #160]	@ (8005090 <HAL_RCCEx_PeriphCLKConfig+0x1c0>)
 8004ff0:	2200      	movs	r2, #0
 8004ff2:	601a      	str	r2, [r3, #0]
      /* Restore the Content of BDCR register */
      RCC->BDCR = tmpreg1;
 8004ff4:	4a24      	ldr	r2, [pc, #144]	@ (8005088 <HAL_RCCEx_PeriphCLKConfig+0x1b8>)
 8004ff6:	693b      	ldr	r3, [r7, #16]
 8004ff8:	6713      	str	r3, [r2, #112]	@ 0x70

      /* Wait for LSE reactivation if LSE was enable prior to Backup Domain reset */
      if (HAL_IS_BIT_SET(RCC->BDCR, RCC_BDCR_LSEON))
 8004ffa:	4b23      	ldr	r3, [pc, #140]	@ (8005088 <HAL_RCCEx_PeriphCLKConfig+0x1b8>)
 8004ffc:	6f1b      	ldr	r3, [r3, #112]	@ 0x70
 8004ffe:	f003 0301 	and.w	r3, r3, #1
 8005002:	2b01      	cmp	r3, #1
 8005004:	d114      	bne.n	8005030 <HAL_RCCEx_PeriphCLKConfig+0x160>
      {
        /* Get tick */
        tickstart = HAL_GetTick();
 8005006:	f7fd f81b 	bl	8002040 <HAL_GetTick>
 800500a:	6178      	str	r0, [r7, #20]

        /* Wait till LSE is ready */
        while (__HAL_RCC_GET_FLAG(RCC_FLAG_LSERDY) == RESET)
 800500c:	e00a      	b.n	8005024 <HAL_RCCEx_PeriphCLKConfig+0x154>
        {
          if ((HAL_GetTick() - tickstart) > RCC_LSE_TIMEOUT_VALUE)
 800500e:	f7fd f817 	bl	8002040 <HAL_GetTick>
 8005012:	4602      	mov	r2, r0
 8005014:	697b      	ldr	r3, [r7, #20]
 8005016:	1ad3      	subs	r3, r2, r3
 8005018:	f241 3288 	movw	r2, #5000	@ 0x1388
 800501c:	4293      	cmp	r3, r2
 800501e:	d901      	bls.n	8005024 <HAL_RCCEx_PeriphCLKConfig+0x154>
          {
            return HAL_TIMEOUT;
 8005020:	2303      	movs	r3, #3
 8005022:	e02a      	b.n	800507a <HAL_RCCEx_PeriphCLKConfig+0x1aa>
        while (__HAL_RCC_GET_FLAG(RCC_FLAG_LSERDY) == RESET)
 8005024:	4b18      	ldr	r3, [pc, #96]	@ (8005088 <HAL_RCCEx_PeriphCLKConfig+0x1b8>)
 8005026:	6f1b      	ldr	r3, [r3, #112]	@ 0x70
 8005028:	f003 0302 	and.w	r3, r3, #2
 800502c:	2b00      	cmp	r3, #0
 800502e:	d0ee      	beq.n	800500e <HAL_RCCEx_PeriphCLKConfig+0x13e>
          }
        }
      }
    }
    __HAL_RCC_RTC_CONFIG(PeriphClkInit->RTCClockSelection);
 8005030:	687b      	ldr	r3, [r7, #4]
 8005032:	68db      	ldr	r3, [r3, #12]
 8005034:	f403 7340 	and.w	r3, r3, #768	@ 0x300
 8005038:	f5b3 7f40 	cmp.w	r3, #768	@ 0x300
 800503c:	d10d      	bne.n	800505a <HAL_RCCEx_PeriphCLKConfig+0x18a>
 800503e:	4b12      	ldr	r3, [pc, #72]	@ (8005088 <HAL_RCCEx_PeriphCLKConfig+0x1b8>)
 8005040:	689b      	ldr	r3, [r3, #8]
 8005042:	f423 12f8 	bic.w	r2, r3, #2031616	@ 0x1f0000
 8005046:	687b      	ldr	r3, [r7, #4]
 8005048:	68db      	ldr	r3, [r3, #12]
 800504a:	f023 4370 	bic.w	r3, r3, #4026531840	@ 0xf0000000
 800504e:	f423 7340 	bic.w	r3, r3, #768	@ 0x300
 8005052:	490d      	ldr	r1, [pc, #52]	@ (8005088 <HAL_RCCEx_PeriphCLKConfig+0x1b8>)
 8005054:	4313      	orrs	r3, r2
 8005056:	608b      	str	r3, [r1, #8]
 8005058:	e005      	b.n	8005066 <HAL_RCCEx_PeriphCLKConfig+0x196>
 800505a:	4b0b      	ldr	r3, [pc, #44]	@ (8005088 <HAL_RCCEx_PeriphCLKConfig+0x1b8>)
 800505c:	689b      	ldr	r3, [r3, #8]
 800505e:	4a0a      	ldr	r2, [pc, #40]	@ (8005088 <HAL_RCCEx_PeriphCLKConfig+0x1b8>)
 8005060:	f423 13f8 	bic.w	r3, r3, #2031616	@ 0x1f0000
 8005064:	6093      	str	r3, [r2, #8]
 8005066:	4b08      	ldr	r3, [pc, #32]	@ (8005088 <HAL_RCCEx_PeriphCLKConfig+0x1b8>)
 8005068:	6f1a      	ldr	r2, [r3, #112]	@ 0x70
 800506a:	687b      	ldr	r3, [r7, #4]
 800506c:	68db      	ldr	r3, [r3, #12]
 800506e:	f3c3 030b 	ubfx	r3, r3, #0, #12
 8005072:	4905      	ldr	r1, [pc, #20]	@ (8005088 <HAL_RCCEx_PeriphCLKConfig+0x1b8>)
 8005074:	4313      	orrs	r3, r2
 8005076:	670b      	str	r3, [r1, #112]	@ 0x70
  if (((PeriphClkInit->PeriphClockSelection) & RCC_PERIPHCLK_TIM) == (RCC_PERIPHCLK_TIM))
  {
    __HAL_RCC_TIMCLKPRESCALER(PeriphClkInit->TIMPresSelection);
  }
#endif /* STM32F401xC || STM32F401xE || STM32F411xE */
  return HAL_OK;
 8005078:	2300      	movs	r3, #0
}
 800507a:	4618      	mov	r0, r3
 800507c:	3718      	adds	r7, #24
 800507e:	46bd      	mov	sp, r7
 8005080:	bd80      	pop	{r7, pc}
 8005082:	bf00      	nop
 8005084:	42470068 	.word	0x42470068
 8005088:	40023800 	.word	0x40023800
 800508c:	40007000 	.word	0x40007000
 8005090:	42470e40 	.word	0x42470e40

08005094 <HAL_RTC_Init>:
  * @param  hrtc pointer to a RTC_HandleTypeDef structure that contains
  *                the configuration information for RTC.
  * @retval HAL status
  */
HAL_StatusTypeDef HAL_RTC_Init(RTC_HandleTypeDef *hrtc)
{
 8005094:	b580      	push	{r7, lr}
 8005096:	b084      	sub	sp, #16
 8005098:	af00      	add	r7, sp, #0
 800509a:	6078      	str	r0, [r7, #4]
  HAL_StatusTypeDef status;

  /* Check RTC handler validity */
  if (hrtc == NULL)
 800509c:	687b      	ldr	r3, [r7, #4]
 800509e:	2b00      	cmp	r3, #0
 80050a0:	d101      	bne.n	80050a6 <HAL_RTC_Init+0x12>
  {
    return HAL_ERROR;
 80050a2:	2301      	movs	r3, #1
 80050a4:	e073      	b.n	800518e <HAL_RTC_Init+0xfa>
    {
      hrtc->MspDeInitCallback = HAL_RTC_MspDeInit;
    }
  }
#else /* USE_HAL_RTC_REGISTER_CALLBACKS */
  if (hrtc->State == HAL_RTC_STATE_RESET)
 80050a6:	687b      	ldr	r3, [r7, #4]
 80050a8:	7f5b      	ldrb	r3, [r3, #29]
 80050aa:	b2db      	uxtb	r3, r3
 80050ac:	2b00      	cmp	r3, #0
 80050ae:	d105      	bne.n	80050bc <HAL_RTC_Init+0x28>
  {
    /* Allocate lock resource and initialize it */
    hrtc->Lock = HAL_UNLOCKED;
 80050b0:	687b      	ldr	r3, [r7, #4]
 80050b2:	2200      	movs	r2, #0
 80050b4:	771a      	strb	r2, [r3, #28]

    /* Initialize RTC MSP */
    HAL_RTC_MspInit(hrtc);
 80050b6:	6878      	ldr	r0, [r7, #4]
 80050b8:	f7fc fad4 	bl	8001664 <HAL_RTC_MspInit>
  }
#endif /* USE_HAL_RTC_REGISTER_CALLBACKS */

  /* Set RTC state */
  hrtc->State = HAL_RTC_STATE_BUSY;
 80050bc:	687b      	ldr	r3, [r7, #4]
 80050be:	2202      	movs	r2, #2
 80050c0:	775a      	strb	r2, [r3, #29]

  /* Check whether the calendar needs to be initialized */
  if (__HAL_RTC_IS_CALENDAR_INITIALIZED(hrtc) == 0U)
 80050c2:	687b      	ldr	r3, [r7, #4]
 80050c4:	681b      	ldr	r3, [r3, #0]
 80050c6:	68db      	ldr	r3, [r3, #12]
 80050c8:	f003 0310 	and.w	r3, r3, #16
 80050cc:	2b10      	cmp	r3, #16
 80050ce:	d055      	beq.n	800517c <HAL_RTC_Init+0xe8>
  {
    /* Disable the write protection for RTC registers */
    __HAL_RTC_WRITEPROTECTION_DISABLE(hrtc);
 80050d0:	687b      	ldr	r3, [r7, #4]
 80050d2:	681b      	ldr	r3, [r3, #0]
 80050d4:	22ca      	movs	r2, #202	@ 0xca
 80050d6:	625a      	str	r2, [r3, #36]	@ 0x24
 80050d8:	687b      	ldr	r3, [r7, #4]
 80050da:	681b      	ldr	r3, [r3, #0]
 80050dc:	2253      	movs	r2, #83	@ 0x53
 80050de:	625a      	str	r2, [r3, #36]	@ 0x24

    /* Enter Initialization mode */
    status = RTC_EnterInitMode(hrtc);
 80050e0:	6878      	ldr	r0, [r7, #4]
 80050e2:	f000 f99d 	bl	8005420 <RTC_EnterInitMode>
 80050e6:	4603      	mov	r3, r0
 80050e8:	73fb      	strb	r3, [r7, #15]

    if (status == HAL_OK)
 80050ea:	7bfb      	ldrb	r3, [r7, #15]
 80050ec:	2b00      	cmp	r3, #0
 80050ee:	d12c      	bne.n	800514a <HAL_RTC_Init+0xb6>
    {
      /* Clear RTC_CR FMT, OSEL and POL Bits */
      hrtc->Instance->CR &= ((uint32_t)~(RTC_CR_FMT | RTC_CR_OSEL | RTC_CR_POL));
 80050f0:	687b      	ldr	r3, [r7, #4]
 80050f2:	681b      	ldr	r3, [r3, #0]
 80050f4:	689b      	ldr	r3, [r3, #8]
 80050f6:	687a      	ldr	r2, [r7, #4]
 80050f8:	6812      	ldr	r2, [r2, #0]
 80050fa:	f423 03e0 	bic.w	r3, r3, #7340032	@ 0x700000
 80050fe:	f023 0340 	bic.w	r3, r3, #64	@ 0x40
 8005102:	6093      	str	r3, [r2, #8]
      /* Set RTC_CR register */
      hrtc->Instance->CR |= (uint32_t)(hrtc->Init.HourFormat | hrtc->Init.OutPut | hrtc->Init.OutPutPolarity);
 8005104:	687b      	ldr	r3, [r7, #4]
 8005106:	681b      	ldr	r3, [r3, #0]
 8005108:	6899      	ldr	r1, [r3, #8]
 800510a:	687b      	ldr	r3, [r7, #4]
 800510c:	685a      	ldr	r2, [r3, #4]
 800510e:	687b      	ldr	r3, [r7, #4]
 8005110:	691b      	ldr	r3, [r3, #16]
 8005112:	431a      	orrs	r2, r3
 8005114:	687b      	ldr	r3, [r7, #4]
 8005116:	695b      	ldr	r3, [r3, #20]
 8005118:	431a      	orrs	r2, r3
 800511a:	687b      	ldr	r3, [r7, #4]
 800511c:	681b      	ldr	r3, [r3, #0]
 800511e:	430a      	orrs	r2, r1
 8005120:	609a      	str	r2, [r3, #8]

      /* Configure the RTC PRER */
      hrtc->Instance->PRER = (uint32_t)(hrtc->Init.SynchPrediv);
 8005122:	687b      	ldr	r3, [r7, #4]
 8005124:	681b      	ldr	r3, [r3, #0]
 8005126:	687a      	ldr	r2, [r7, #4]
 8005128:	68d2      	ldr	r2, [r2, #12]
 800512a:	611a      	str	r2, [r3, #16]
      hrtc->Instance->PRER |= (uint32_t)(hrtc->Init.AsynchPrediv << RTC_PRER_PREDIV_A_Pos);
 800512c:	687b      	ldr	r3, [r7, #4]
 800512e:	681b      	ldr	r3, [r3, #0]
 8005130:	6919      	ldr	r1, [r3, #16]
 8005132:	687b      	ldr	r3, [r7, #4]
 8005134:	689b      	ldr	r3, [r3, #8]
 8005136:	041a      	lsls	r2, r3, #16
 8005138:	687b      	ldr	r3, [r7, #4]
 800513a:	681b      	ldr	r3, [r3, #0]
 800513c:	430a      	orrs	r2, r1
 800513e:	611a      	str	r2, [r3, #16]

      /* Exit Initialization mode */
      status = RTC_ExitInitMode(hrtc);
 8005140:	6878      	ldr	r0, [r7, #4]
 8005142:	f000 f9a4 	bl	800548e <RTC_ExitInitMode>
 8005146:	4603      	mov	r3, r0
 8005148:	73fb      	strb	r3, [r7, #15]
    }

    if (status == HAL_OK)
 800514a:	7bfb      	ldrb	r3, [r7, #15]
 800514c:	2b00      	cmp	r3, #0
 800514e:	d110      	bne.n	8005172 <HAL_RTC_Init+0xde>
    {
      hrtc->Instance->TAFCR &= (uint32_t)~RTC_OUTPUT_TYPE_PUSHPULL;
 8005150:	687b      	ldr	r3, [r7, #4]
 8005152:	681b      	ldr	r3, [r3, #0]
 8005154:	6c1a      	ldr	r2, [r3, #64]	@ 0x40
 8005156:	687b      	ldr	r3, [r7, #4]
 8005158:	681b      	ldr	r3, [r3, #0]
 800515a:	f422 2280 	bic.w	r2, r2, #262144	@ 0x40000
 800515e:	641a      	str	r2, [r3, #64]	@ 0x40
      hrtc->Instance->TAFCR |= (uint32_t)(hrtc->Init.OutPutType);
 8005160:	687b      	ldr	r3, [r7, #4]
 8005162:	681b      	ldr	r3, [r3, #0]
 8005164:	6c19      	ldr	r1, [r3, #64]	@ 0x40
 8005166:	687b      	ldr	r3, [r7, #4]
 8005168:	699a      	ldr	r2, [r3, #24]
 800516a:	687b      	ldr	r3, [r7, #4]
 800516c:	681b      	ldr	r3, [r3, #0]
 800516e:	430a      	orrs	r2, r1
 8005170:	641a      	str	r2, [r3, #64]	@ 0x40
    }

    /* Enable the write protection for RTC registers */
    __HAL_RTC_WRITEPROTECTION_ENABLE(hrtc);
 8005172:	687b      	ldr	r3, [r7, #4]
 8005174:	681b      	ldr	r3, [r3, #0]
 8005176:	22ff      	movs	r2, #255	@ 0xff
 8005178:	625a      	str	r2, [r3, #36]	@ 0x24
 800517a:	e001      	b.n	8005180 <HAL_RTC_Init+0xec>
  }
  else
  {
    /* The calendar is already initialized */
    status = HAL_OK;
 800517c:	2300      	movs	r3, #0
 800517e:	73fb      	strb	r3, [r7, #15]
  }

  if (status == HAL_OK)
 8005180:	7bfb      	ldrb	r3, [r7, #15]
 8005182:	2b00      	cmp	r3, #0
 8005184:	d102      	bne.n	800518c <HAL_RTC_Init+0xf8>
  {
    hrtc->State = HAL_RTC_STATE_READY;
 8005186:	687b      	ldr	r3, [r7, #4]
 8005188:	2201      	movs	r2, #1
 800518a:	775a      	strb	r2, [r3, #29]
  }

  return status;
 800518c:	7bfb      	ldrb	r3, [r7, #15]
}
 800518e:	4618      	mov	r0, r3
 8005190:	3710      	adds	r7, #16
 8005192:	46bd      	mov	sp, r7
 8005194:	bd80      	pop	{r7, pc}

08005196 <HAL_RTC_SetTime>:
  *            @arg RTC_FORMAT_BIN: Binary data format
  *            @arg RTC_FORMAT_BCD: BCD data format
  * @retval HAL status
  */
HAL_StatusTypeDef HAL_RTC_SetTime(RTC_HandleTypeDef *hrtc, RTC_TimeTypeDef *sTime, uint32_t Format)
{
 8005196:	b590      	push	{r4, r7, lr}
 8005198:	b087      	sub	sp, #28
 800519a:	af00      	add	r7, sp, #0
 800519c:	60f8      	str	r0, [r7, #12]
 800519e:	60b9      	str	r1, [r7, #8]
 80051a0:	607a      	str	r2, [r7, #4]
  uint32_t tmpreg = 0U;
 80051a2:	2300      	movs	r3, #0
 80051a4:	617b      	str	r3, [r7, #20]
  assert_param(IS_RTC_FORMAT(Format));
  assert_param(IS_RTC_DAYLIGHT_SAVING(sTime->DayLightSaving));
  assert_param(IS_RTC_STORE_OPERATION(sTime->StoreOperation));

  /* Process Locked */
  __HAL_LOCK(hrtc);
 80051a6:	68fb      	ldr	r3, [r7, #12]
 80051a8:	7f1b      	ldrb	r3, [r3, #28]
 80051aa:	2b01      	cmp	r3, #1
 80051ac:	d101      	bne.n	80051b2 <HAL_RTC_SetTime+0x1c>
 80051ae:	2302      	movs	r3, #2
 80051b0:	e087      	b.n	80052c2 <HAL_RTC_SetTime+0x12c>
 80051b2:	68fb      	ldr	r3, [r7, #12]
 80051b4:	2201      	movs	r2, #1
 80051b6:	771a      	strb	r2, [r3, #28]

  hrtc->State = HAL_RTC_STATE_BUSY;
 80051b8:	68fb      	ldr	r3, [r7, #12]
 80051ba:	2202      	movs	r2, #2
 80051bc:	775a      	strb	r2, [r3, #29]

  if (Format == RTC_FORMAT_BIN)
 80051be:	687b      	ldr	r3, [r7, #4]
 80051c0:	2b00      	cmp	r3, #0
 80051c2:	d126      	bne.n	8005212 <HAL_RTC_SetTime+0x7c>
  {
    if ((hrtc->Instance->CR & RTC_CR_FMT) != 0U)
 80051c4:	68fb      	ldr	r3, [r7, #12]
 80051c6:	681b      	ldr	r3, [r3, #0]
 80051c8:	689b      	ldr	r3, [r3, #8]
 80051ca:	f003 0340 	and.w	r3, r3, #64	@ 0x40
 80051ce:	2b00      	cmp	r3, #0
 80051d0:	d102      	bne.n	80051d8 <HAL_RTC_SetTime+0x42>
      assert_param(IS_RTC_HOUR12(sTime->Hours));
      assert_param(IS_RTC_HOURFORMAT12(sTime->TimeFormat));
    }
    else
    {
      sTime->TimeFormat = 0x00U;
 80051d2:	68bb      	ldr	r3, [r7, #8]
 80051d4:	2200      	movs	r2, #0
 80051d6:	70da      	strb	r2, [r3, #3]
      assert_param(IS_RTC_HOUR24(sTime->Hours));
    }
    assert_param(IS_RTC_MINUTES(sTime->Minutes));
    assert_param(IS_RTC_SECONDS(sTime->Seconds));

    tmpreg = (uint32_t)(( (uint32_t)RTC_ByteToBcd2(sTime->Hours)   << RTC_TR_HU_Pos)  | \
 80051d8:	68bb      	ldr	r3, [r7, #8]
 80051da:	781b      	ldrb	r3, [r3, #0]
 80051dc:	4618      	mov	r0, r3
 80051de:	f000 f97b 	bl	80054d8 <RTC_ByteToBcd2>
 80051e2:	4603      	mov	r3, r0
 80051e4:	041c      	lsls	r4, r3, #16
                        ( (uint32_t)RTC_ByteToBcd2(sTime->Minutes) << RTC_TR_MNU_Pos) | \
 80051e6:	68bb      	ldr	r3, [r7, #8]
 80051e8:	785b      	ldrb	r3, [r3, #1]
 80051ea:	4618      	mov	r0, r3
 80051ec:	f000 f974 	bl	80054d8 <RTC_ByteToBcd2>
 80051f0:	4603      	mov	r3, r0
 80051f2:	021b      	lsls	r3, r3, #8
    tmpreg = (uint32_t)(( (uint32_t)RTC_ByteToBcd2(sTime->Hours)   << RTC_TR_HU_Pos)  | \
 80051f4:	431c      	orrs	r4, r3
                        ( (uint32_t)RTC_ByteToBcd2(sTime->Seconds))                   | \
 80051f6:	68bb      	ldr	r3, [r7, #8]
 80051f8:	789b      	ldrb	r3, [r3, #2]
 80051fa:	4618      	mov	r0, r3
 80051fc:	f000 f96c 	bl	80054d8 <RTC_ByteToBcd2>
 8005200:	4603      	mov	r3, r0
                        ( (uint32_t)RTC_ByteToBcd2(sTime->Minutes) << RTC_TR_MNU_Pos) | \
 8005202:	ea44 0203 	orr.w	r2, r4, r3
                        (((uint32_t)sTime->TimeFormat)             << RTC_TR_PM_Pos));
 8005206:	68bb      	ldr	r3, [r7, #8]
 8005208:	78db      	ldrb	r3, [r3, #3]
 800520a:	059b      	lsls	r3, r3, #22
    tmpreg = (uint32_t)(( (uint32_t)RTC_ByteToBcd2(sTime->Hours)   << RTC_TR_HU_Pos)  | \
 800520c:	4313      	orrs	r3, r2
 800520e:	617b      	str	r3, [r7, #20]
 8005210:	e018      	b.n	8005244 <HAL_RTC_SetTime+0xae>
  }
  else
  {
    if ((hrtc->Instance->CR & RTC_CR_FMT) != 0U)
 8005212:	68fb      	ldr	r3, [r7, #12]
 8005214:	681b      	ldr	r3, [r3, #0]
 8005216:	689b      	ldr	r3, [r3, #8]
 8005218:	f003 0340 	and.w	r3, r3, #64	@ 0x40
 800521c:	2b00      	cmp	r3, #0
 800521e:	d102      	bne.n	8005226 <HAL_RTC_SetTime+0x90>
      assert_param(IS_RTC_HOUR12(RTC_Bcd2ToByte(sTime->Hours)));
      assert_param(IS_RTC_HOURFORMAT12(sTime->TimeFormat));
    }
    else
    {
      sTime->TimeFormat = 0x00U;
 8005220:	68bb      	ldr	r3, [r7, #8]
 8005222:	2200      	movs	r2, #0
 8005224:	70da      	strb	r2, [r3, #3]
      assert_param(IS_RTC_HOUR24(RTC_Bcd2ToByte(sTime->Hours)));
    }
    assert_param(IS_RTC_MINUTES(RTC_Bcd2ToByte(sTime->Minutes)));
    assert_param(IS_RTC_SECONDS(RTC_Bcd2ToByte(sTime->Seconds)));
    tmpreg = (((uint32_t)(sTime->Hours)      << RTC_TR_HU_Pos)  | \
 8005226:	68bb      	ldr	r3, [r7, #8]
 8005228:	781b      	ldrb	r3, [r3, #0]
 800522a:	041a      	lsls	r2, r3, #16
              ((uint32_t)(sTime->Minutes)    << RTC_TR_MNU_Pos) | \
 800522c:	68bb      	ldr	r3, [r7, #8]
 800522e:	785b      	ldrb	r3, [r3, #1]
 8005230:	021b      	lsls	r3, r3, #8
    tmpreg = (((uint32_t)(sTime->Hours)      << RTC_TR_HU_Pos)  | \
 8005232:	4313      	orrs	r3, r2
              ((uint32_t) sTime->Seconds)                       | \
 8005234:	68ba      	ldr	r2, [r7, #8]
 8005236:	7892      	ldrb	r2, [r2, #2]
              ((uint32_t)(sTime->Minutes)    << RTC_TR_MNU_Pos) | \
 8005238:	431a      	orrs	r2, r3
              ((uint32_t)(sTime->TimeFormat) << RTC_TR_PM_Pos));
 800523a:	68bb      	ldr	r3, [r7, #8]
 800523c:	78db      	ldrb	r3, [r3, #3]
 800523e:	059b      	lsls	r3, r3, #22
    tmpreg = (((uint32_t)(sTime->Hours)      << RTC_TR_HU_Pos)  | \
 8005240:	4313      	orrs	r3, r2
 8005242:	617b      	str	r3, [r7, #20]
  }

  /* Disable the write protection for RTC registers */
  __HAL_RTC_WRITEPROTECTION_DISABLE(hrtc);
 8005244:	68fb      	ldr	r3, [r7, #12]
 8005246:	681b      	ldr	r3, [r3, #0]
 8005248:	22ca      	movs	r2, #202	@ 0xca
 800524a:	625a      	str	r2, [r3, #36]	@ 0x24
 800524c:	68fb      	ldr	r3, [r7, #12]
 800524e:	681b      	ldr	r3, [r3, #0]
 8005250:	2253      	movs	r2, #83	@ 0x53
 8005252:	625a      	str	r2, [r3, #36]	@ 0x24

  /* Enter Initialization mode */
  status = RTC_EnterInitMode(hrtc);
 8005254:	68f8      	ldr	r0, [r7, #12]
 8005256:	f000 f8e3 	bl	8005420 <RTC_EnterInitMode>
 800525a:	4603      	mov	r3, r0
 800525c:	74fb      	strb	r3, [r7, #19]

  if (status == HAL_OK)
 800525e:	7cfb      	ldrb	r3, [r7, #19]
 8005260:	2b00      	cmp	r3, #0
 8005262:	d120      	bne.n	80052a6 <HAL_RTC_SetTime+0x110>
  {
    /* Set the RTC_TR register */
    hrtc->Instance->TR = (uint32_t)(tmpreg & RTC_TR_RESERVED_MASK);
 8005264:	68fb      	ldr	r3, [r7, #12]
 8005266:	681a      	ldr	r2, [r3, #0]
 8005268:	697b      	ldr	r3, [r7, #20]
 800526a:	f003 337f 	and.w	r3, r3, #2139062143	@ 0x7f7f7f7f
 800526e:	f023 43fe 	bic.w	r3, r3, #2130706432	@ 0x7f000000
 8005272:	6013      	str	r3, [r2, #0]

    /* Clear the bits to be configured (Deprecated. Use HAL_RTC_DST_xxx functions instead) */
    hrtc->Instance->CR &= (uint32_t)~RTC_CR_BKP;
 8005274:	68fb      	ldr	r3, [r7, #12]
 8005276:	681b      	ldr	r3, [r3, #0]
 8005278:	689a      	ldr	r2, [r3, #8]
 800527a:	68fb      	ldr	r3, [r7, #12]
 800527c:	681b      	ldr	r3, [r3, #0]
 800527e:	f422 2280 	bic.w	r2, r2, #262144	@ 0x40000
 8005282:	609a      	str	r2, [r3, #8]

    /* Configure the RTC_CR register (Deprecated. Use HAL_RTC_DST_xxx functions instead) */
    hrtc->Instance->CR |= (uint32_t)(sTime->DayLightSaving | sTime->StoreOperation);
 8005284:	68fb      	ldr	r3, [r7, #12]
 8005286:	681b      	ldr	r3, [r3, #0]
 8005288:	6899      	ldr	r1, [r3, #8]
 800528a:	68bb      	ldr	r3, [r7, #8]
 800528c:	68da      	ldr	r2, [r3, #12]
 800528e:	68bb      	ldr	r3, [r7, #8]
 8005290:	691b      	ldr	r3, [r3, #16]
 8005292:	431a      	orrs	r2, r3
 8005294:	68fb      	ldr	r3, [r7, #12]
 8005296:	681b      	ldr	r3, [r3, #0]
 8005298:	430a      	orrs	r2, r1
 800529a:	609a      	str	r2, [r3, #8]

    /* Exit Initialization mode */
    status = RTC_ExitInitMode(hrtc);
 800529c:	68f8      	ldr	r0, [r7, #12]
 800529e:	f000 f8f6 	bl	800548e <RTC_ExitInitMode>
 80052a2:	4603      	mov	r3, r0
 80052a4:	74fb      	strb	r3, [r7, #19]
  }

  if (status == HAL_OK)
 80052a6:	7cfb      	ldrb	r3, [r7, #19]
 80052a8:	2b00      	cmp	r3, #0
 80052aa:	d102      	bne.n	80052b2 <HAL_RTC_SetTime+0x11c>
  {
    hrtc->State = HAL_RTC_STATE_READY;
 80052ac:	68fb      	ldr	r3, [r7, #12]
 80052ae:	2201      	movs	r2, #1
 80052b0:	775a      	strb	r2, [r3, #29]
  }

  /* Enable the write protection for RTC registers */
  __HAL_RTC_WRITEPROTECTION_ENABLE(hrtc);
 80052b2:	68fb      	ldr	r3, [r7, #12]
 80052b4:	681b      	ldr	r3, [r3, #0]
 80052b6:	22ff      	movs	r2, #255	@ 0xff
 80052b8:	625a      	str	r2, [r3, #36]	@ 0x24

  /* Process Unlocked */
  __HAL_UNLOCK(hrtc);
 80052ba:	68fb      	ldr	r3, [r7, #12]
 80052bc:	2200      	movs	r2, #0
 80052be:	771a      	strb	r2, [r3, #28]

  return status;
 80052c0:	7cfb      	ldrb	r3, [r7, #19]
}
 80052c2:	4618      	mov	r0, r3
 80052c4:	371c      	adds	r7, #28
 80052c6:	46bd      	mov	sp, r7
 80052c8:	bd90      	pop	{r4, r7, pc}

080052ca <HAL_RTC_SetDate>:
  *            @arg RTC_FORMAT_BIN: Binary data format
  *            @arg RTC_FORMAT_BCD: BCD data format
  * @retval HAL status
  */
HAL_StatusTypeDef HAL_RTC_SetDate(RTC_HandleTypeDef *hrtc, RTC_DateTypeDef *sDate, uint32_t Format)
{
 80052ca:	b590      	push	{r4, r7, lr}
 80052cc:	b087      	sub	sp, #28
 80052ce:	af00      	add	r7, sp, #0
 80052d0:	60f8      	str	r0, [r7, #12]
 80052d2:	60b9      	str	r1, [r7, #8]
 80052d4:	607a      	str	r2, [r7, #4]
  uint32_t datetmpreg = 0U;
 80052d6:	2300      	movs	r3, #0
 80052d8:	617b      	str	r3, [r7, #20]

  /* Check the parameters */
  assert_param(IS_RTC_FORMAT(Format));

  /* Process Locked */
  __HAL_LOCK(hrtc);
 80052da:	68fb      	ldr	r3, [r7, #12]
 80052dc:	7f1b      	ldrb	r3, [r3, #28]
 80052de:	2b01      	cmp	r3, #1
 80052e0:	d101      	bne.n	80052e6 <HAL_RTC_SetDate+0x1c>
 80052e2:	2302      	movs	r3, #2
 80052e4:	e071      	b.n	80053ca <HAL_RTC_SetDate+0x100>
 80052e6:	68fb      	ldr	r3, [r7, #12]
 80052e8:	2201      	movs	r2, #1
 80052ea:	771a      	strb	r2, [r3, #28]

  hrtc->State = HAL_RTC_STATE_BUSY;
 80052ec:	68fb      	ldr	r3, [r7, #12]
 80052ee:	2202      	movs	r2, #2
 80052f0:	775a      	strb	r2, [r3, #29]

  if ((Format == RTC_FORMAT_BIN) && ((sDate->Month & 0x10U) == 0x10U))
 80052f2:	687b      	ldr	r3, [r7, #4]
 80052f4:	2b00      	cmp	r3, #0
 80052f6:	d10e      	bne.n	8005316 <HAL_RTC_SetDate+0x4c>
 80052f8:	68bb      	ldr	r3, [r7, #8]
 80052fa:	785b      	ldrb	r3, [r3, #1]
 80052fc:	f003 0310 	and.w	r3, r3, #16
 8005300:	2b00      	cmp	r3, #0
 8005302:	d008      	beq.n	8005316 <HAL_RTC_SetDate+0x4c>
  {
    sDate->Month = (uint8_t)((sDate->Month & (uint8_t)~(0x10U)) + (uint8_t)0x0AU);
 8005304:	68bb      	ldr	r3, [r7, #8]
 8005306:	785b      	ldrb	r3, [r3, #1]
 8005308:	f023 0310 	bic.w	r3, r3, #16
 800530c:	b2db      	uxtb	r3, r3
 800530e:	330a      	adds	r3, #10
 8005310:	b2da      	uxtb	r2, r3
 8005312:	68bb      	ldr	r3, [r7, #8]
 8005314:	705a      	strb	r2, [r3, #1]
  }

  assert_param(IS_RTC_WEEKDAY(sDate->WeekDay));

  if (Format == RTC_FORMAT_BIN)
 8005316:	687b      	ldr	r3, [r7, #4]
 8005318:	2b00      	cmp	r3, #0
 800531a:	d11c      	bne.n	8005356 <HAL_RTC_SetDate+0x8c>
  {
    assert_param(IS_RTC_YEAR(sDate->Year));
    assert_param(IS_RTC_MONTH(sDate->Month));
    assert_param(IS_RTC_DATE(sDate->Date));

    datetmpreg = (((uint32_t)RTC_ByteToBcd2(sDate->Year)  << RTC_DR_YU_Pos) | \
 800531c:	68bb      	ldr	r3, [r7, #8]
 800531e:	78db      	ldrb	r3, [r3, #3]
 8005320:	4618      	mov	r0, r3
 8005322:	f000 f8d9 	bl	80054d8 <RTC_ByteToBcd2>
 8005326:	4603      	mov	r3, r0
 8005328:	041c      	lsls	r4, r3, #16
                  ((uint32_t)RTC_ByteToBcd2(sDate->Month) << RTC_DR_MU_Pos) | \
 800532a:	68bb      	ldr	r3, [r7, #8]
 800532c:	785b      	ldrb	r3, [r3, #1]
 800532e:	4618      	mov	r0, r3
 8005330:	f000 f8d2 	bl	80054d8 <RTC_ByteToBcd2>
 8005334:	4603      	mov	r3, r0
 8005336:	021b      	lsls	r3, r3, #8
    datetmpreg = (((uint32_t)RTC_ByteToBcd2(sDate->Year)  << RTC_DR_YU_Pos) | \
 8005338:	431c      	orrs	r4, r3
                  ((uint32_t)RTC_ByteToBcd2(sDate->Date))                   | \
 800533a:	68bb      	ldr	r3, [r7, #8]
 800533c:	789b      	ldrb	r3, [r3, #2]
 800533e:	4618      	mov	r0, r3
 8005340:	f000 f8ca 	bl	80054d8 <RTC_ByteToBcd2>
 8005344:	4603      	mov	r3, r0
                  ((uint32_t)RTC_ByteToBcd2(sDate->Month) << RTC_DR_MU_Pos) | \
 8005346:	ea44 0203 	orr.w	r2, r4, r3
                  ((uint32_t)sDate->WeekDay               << RTC_DR_WDU_Pos));
 800534a:	68bb      	ldr	r3, [r7, #8]
 800534c:	781b      	ldrb	r3, [r3, #0]
 800534e:	035b      	lsls	r3, r3, #13
    datetmpreg = (((uint32_t)RTC_ByteToBcd2(sDate->Year)  << RTC_DR_YU_Pos) | \
 8005350:	4313      	orrs	r3, r2
 8005352:	617b      	str	r3, [r7, #20]
 8005354:	e00e      	b.n	8005374 <HAL_RTC_SetDate+0xaa>
  {
    assert_param(IS_RTC_YEAR(RTC_Bcd2ToByte(sDate->Year)));
    assert_param(IS_RTC_MONTH(RTC_Bcd2ToByte(sDate->Month)));
    assert_param(IS_RTC_DATE(RTC_Bcd2ToByte(sDate->Date)));

    datetmpreg = ((((uint32_t)sDate->Year)    << RTC_DR_YU_Pos) | \
 8005356:	68bb      	ldr	r3, [r7, #8]
 8005358:	78db      	ldrb	r3, [r3, #3]
 800535a:	041a      	lsls	r2, r3, #16
                  (((uint32_t)sDate->Month)   << RTC_DR_MU_Pos) | \
 800535c:	68bb      	ldr	r3, [r7, #8]
 800535e:	785b      	ldrb	r3, [r3, #1]
 8005360:	021b      	lsls	r3, r3, #8
    datetmpreg = ((((uint32_t)sDate->Year)    << RTC_DR_YU_Pos) | \
 8005362:	4313      	orrs	r3, r2
                  ((uint32_t) sDate->Date)                      | \
 8005364:	68ba      	ldr	r2, [r7, #8]
 8005366:	7892      	ldrb	r2, [r2, #2]
                  (((uint32_t)sDate->Month)   << RTC_DR_MU_Pos) | \
 8005368:	431a      	orrs	r2, r3
                  (((uint32_t)sDate->WeekDay) << RTC_DR_WDU_Pos));
 800536a:	68bb      	ldr	r3, [r7, #8]
 800536c:	781b      	ldrb	r3, [r3, #0]
 800536e:	035b      	lsls	r3, r3, #13
    datetmpreg = ((((uint32_t)sDate->Year)    << RTC_DR_YU_Pos) | \
 8005370:	4313      	orrs	r3, r2
 8005372:	617b      	str	r3, [r7, #20]
  }

  /* Disable the write protection for RTC registers */
  __HAL_RTC_WRITEPROTECTION_DISABLE(hrtc);
 8005374:	68fb      	ldr	r3, [r7, #12]
 8005376:	681b      	ldr	r3, [r3, #0]
 8005378:	22ca      	movs	r2, #202	@ 0xca
 800537a:	625a      	str	r2, [r3, #36]	@ 0x24
 800537c:	68fb      	ldr	r3, [r7, #12]
 800537e:	681b      	ldr	r3, [r3, #0]
 8005380:	2253      	movs	r2, #83	@ 0x53
 8005382:	625a      	str	r2, [r3, #36]	@ 0x24

  /* Enter Initialization mode */
  status = RTC_EnterInitMode(hrtc);
 8005384:	68f8      	ldr	r0, [r7, #12]
 8005386:	f000 f84b 	bl	8005420 <RTC_EnterInitMode>
 800538a:	4603      	mov	r3, r0
 800538c:	74fb      	strb	r3, [r7, #19]

  if (status == HAL_OK)
 800538e:	7cfb      	ldrb	r3, [r7, #19]
 8005390:	2b00      	cmp	r3, #0
 8005392:	d10c      	bne.n	80053ae <HAL_RTC_SetDate+0xe4>
  {
    /* Set the RTC_DR register */
    hrtc->Instance->DR = (uint32_t)(datetmpreg & RTC_DR_RESERVED_MASK);
 8005394:	68fb      	ldr	r3, [r7, #12]
 8005396:	681a      	ldr	r2, [r3, #0]
 8005398:	697b      	ldr	r3, [r7, #20]
 800539a:	f023 437f 	bic.w	r3, r3, #4278190080	@ 0xff000000
 800539e:	f023 03c0 	bic.w	r3, r3, #192	@ 0xc0
 80053a2:	6053      	str	r3, [r2, #4]

    /* Exit Initialization mode */
    status = RTC_ExitInitMode(hrtc);
 80053a4:	68f8      	ldr	r0, [r7, #12]
 80053a6:	f000 f872 	bl	800548e <RTC_ExitInitMode>
 80053aa:	4603      	mov	r3, r0
 80053ac:	74fb      	strb	r3, [r7, #19]
  }

  if (status == HAL_OK)
 80053ae:	7cfb      	ldrb	r3, [r7, #19]
 80053b0:	2b00      	cmp	r3, #0
 80053b2:	d102      	bne.n	80053ba <HAL_RTC_SetDate+0xf0>
  {
    hrtc->State = HAL_RTC_STATE_READY;
 80053b4:	68fb      	ldr	r3, [r7, #12]
 80053b6:	2201      	movs	r2, #1
 80053b8:	775a      	strb	r2, [r3, #29]
  }

  /* Enable the write protection for RTC registers */
  __HAL_RTC_WRITEPROTECTION_ENABLE(hrtc);
 80053ba:	68fb      	ldr	r3, [r7, #12]
 80053bc:	681b      	ldr	r3, [r3, #0]
 80053be:	22ff      	movs	r2, #255	@ 0xff
 80053c0:	625a      	str	r2, [r3, #36]	@ 0x24

  /* Process Unlocked */
  __HAL_UNLOCK(hrtc);
 80053c2:	68fb      	ldr	r3, [r7, #12]
 80053c4:	2200      	movs	r2, #0
 80053c6:	771a      	strb	r2, [r3, #28]

  return status;
 80053c8:	7cfb      	ldrb	r3, [r7, #19]
}
 80053ca:	4618      	mov	r0, r3
 80053cc:	371c      	adds	r7, #28
 80053ce:	46bd      	mov	sp, r7
 80053d0:	bd90      	pop	{r4, r7, pc}
	...

080053d4 <HAL_RTC_WaitForSynchro>:
  * @param  hrtc pointer to a RTC_HandleTypeDef structure that contains
  *                the configuration information for RTC.
  * @retval HAL status
  */
HAL_StatusTypeDef HAL_RTC_WaitForSynchro(RTC_HandleTypeDef *hrtc)
{
 80053d4:	b580      	push	{r7, lr}
 80053d6:	b084      	sub	sp, #16
 80053d8:	af00      	add	r7, sp, #0
 80053da:	6078      	str	r0, [r7, #4]
  uint32_t tickstart = 0U;
 80053dc:	2300      	movs	r3, #0
 80053de:	60fb      	str	r3, [r7, #12]

  /* Clear RSF flag, keep reserved bits at reset values (setting other flags has no effect) */
  hrtc->Instance->ISR = ((uint32_t)(RTC_RSF_MASK & RTC_ISR_RESERVED_MASK));
 80053e0:	687b      	ldr	r3, [r7, #4]
 80053e2:	681b      	ldr	r3, [r3, #0]
 80053e4:	4a0d      	ldr	r2, [pc, #52]	@ (800541c <HAL_RTC_WaitForSynchro+0x48>)
 80053e6:	60da      	str	r2, [r3, #12]

  /* Get tick */
  tickstart = HAL_GetTick();
 80053e8:	f7fc fe2a 	bl	8002040 <HAL_GetTick>
 80053ec:	60f8      	str	r0, [r7, #12]

  /* Wait the registers to be synchronised */
  while ((hrtc->Instance->ISR & RTC_ISR_RSF) == 0U)
 80053ee:	e009      	b.n	8005404 <HAL_RTC_WaitForSynchro+0x30>
  {
    if ((HAL_GetTick() - tickstart) > RTC_TIMEOUT_VALUE)
 80053f0:	f7fc fe26 	bl	8002040 <HAL_GetTick>
 80053f4:	4602      	mov	r2, r0
 80053f6:	68fb      	ldr	r3, [r7, #12]
 80053f8:	1ad3      	subs	r3, r2, r3
 80053fa:	f5b3 7f7a 	cmp.w	r3, #1000	@ 0x3e8
 80053fe:	d901      	bls.n	8005404 <HAL_RTC_WaitForSynchro+0x30>
    {
      return HAL_TIMEOUT;
 8005400:	2303      	movs	r3, #3
 8005402:	e007      	b.n	8005414 <HAL_RTC_WaitForSynchro+0x40>
  while ((hrtc->Instance->ISR & RTC_ISR_RSF) == 0U)
 8005404:	687b      	ldr	r3, [r7, #4]
 8005406:	681b      	ldr	r3, [r3, #0]
 8005408:	68db      	ldr	r3, [r3, #12]
 800540a:	f003 0320 	and.w	r3, r3, #32
 800540e:	2b00      	cmp	r3, #0
 8005410:	d0ee      	beq.n	80053f0 <HAL_RTC_WaitForSynchro+0x1c>
    }
  }

  return HAL_OK;
 8005412:	2300      	movs	r3, #0
}
 8005414:	4618      	mov	r0, r3
 8005416:	3710      	adds	r7, #16
 8005418:	46bd      	mov	sp, r7
 800541a:	bd80      	pop	{r7, pc}
 800541c:	00017f5f 	.word	0x00017f5f

08005420 <RTC_EnterInitMode>:
  * @param  hrtc pointer to a RTC_HandleTypeDef structure that contains
  *                the configuration information for RTC.
  * @retval HAL status
  */
HAL_StatusTypeDef RTC_EnterInitMode(RTC_HandleTypeDef *hrtc)
{
 8005420:	b580      	push	{r7, lr}
 8005422:	b084      	sub	sp, #16
 8005424:	af00      	add	r7, sp, #0
 8005426:	6078      	str	r0, [r7, #4]
  uint32_t tickstart = 0U;
 8005428:	2300      	movs	r3, #0
 800542a:	60bb      	str	r3, [r7, #8]
  HAL_StatusTypeDef status = HAL_OK;
 800542c:	2300      	movs	r3, #0
 800542e:	73fb      	strb	r3, [r7, #15]

  /* Check that Initialization mode is not already set */
  if (READ_BIT(hrtc->Instance->ISR, RTC_ISR_INITF) == 0U)
 8005430:	687b      	ldr	r3, [r7, #4]
 8005432:	681b      	ldr	r3, [r3, #0]
 8005434:	68db      	ldr	r3, [r3, #12]
 8005436:	f003 0340 	and.w	r3, r3, #64	@ 0x40
 800543a:	2b00      	cmp	r3, #0
 800543c:	d122      	bne.n	8005484 <RTC_EnterInitMode+0x64>
  {
    /* Set INIT bit to enter Initialization mode */
    SET_BIT(hrtc->Instance->ISR, RTC_ISR_INIT);
 800543e:	687b      	ldr	r3, [r7, #4]
 8005440:	681b      	ldr	r3, [r3, #0]
 8005442:	68da      	ldr	r2, [r3, #12]
 8005444:	687b      	ldr	r3, [r7, #4]
 8005446:	681b      	ldr	r3, [r3, #0]
 8005448:	f042 0280 	orr.w	r2, r2, #128	@ 0x80
 800544c:	60da      	str	r2, [r3, #12]

    /* Get tick */
    tickstart = HAL_GetTick();
 800544e:	f7fc fdf7 	bl	8002040 <HAL_GetTick>
 8005452:	60b8      	str	r0, [r7, #8]

    /* Wait till RTC is in INIT state and if timeout is reached exit */
    while ((READ_BIT(hrtc->Instance->ISR, RTC_ISR_INITF) == 0U) && (status != HAL_ERROR))
 8005454:	e00c      	b.n	8005470 <RTC_EnterInitMode+0x50>
    {
      if ((HAL_GetTick() - tickstart) > RTC_TIMEOUT_VALUE)
 8005456:	f7fc fdf3 	bl	8002040 <HAL_GetTick>
 800545a:	4602      	mov	r2, r0
 800545c:	68bb      	ldr	r3, [r7, #8]
 800545e:	1ad3      	subs	r3, r2, r3
 8005460:	f5b3 7f7a 	cmp.w	r3, #1000	@ 0x3e8
 8005464:	d904      	bls.n	8005470 <RTC_EnterInitMode+0x50>
      {
        /* Set RTC state */
        hrtc->State = HAL_RTC_STATE_ERROR;
 8005466:	687b      	ldr	r3, [r7, #4]
 8005468:	2204      	movs	r2, #4
 800546a:	775a      	strb	r2, [r3, #29]
        status = HAL_ERROR;
 800546c:	2301      	movs	r3, #1
 800546e:	73fb      	strb	r3, [r7, #15]
    while ((READ_BIT(hrtc->Instance->ISR, RTC_ISR_INITF) == 0U) && (status != HAL_ERROR))
 8005470:	687b      	ldr	r3, [r7, #4]
 8005472:	681b      	ldr	r3, [r3, #0]
 8005474:	68db      	ldr	r3, [r3, #12]
 8005476:	f003 0340 	and.w	r3, r3, #64	@ 0x40
 800547a:	2b00      	cmp	r3, #0
 800547c:	d102      	bne.n	8005484 <RTC_EnterInitMode+0x64>
 800547e:	7bfb      	ldrb	r3, [r7, #15]
 8005480:	2b01      	cmp	r3, #1
 8005482:	d1e8      	bne.n	8005456 <RTC_EnterInitMode+0x36>
      }
    }
  }

  return status;
 8005484:	7bfb      	ldrb	r3, [r7, #15]
}
 8005486:	4618      	mov	r0, r3
 8005488:	3710      	adds	r7, #16
 800548a:	46bd      	mov	sp, r7
 800548c:	bd80      	pop	{r7, pc}

0800548e <RTC_ExitInitMode>:
  * @param  hrtc pointer to a RTC_HandleTypeDef structure that contains
  *                the configuration information for RTC.
  * @retval HAL status
  */
HAL_StatusTypeDef RTC_ExitInitMode(RTC_HandleTypeDef *hrtc)
{
 800548e:	b580      	push	{r7, lr}
 8005490:	b084      	sub	sp, #16
 8005492:	af00      	add	r7, sp, #0
 8005494:	6078      	str	r0, [r7, #4]
  HAL_StatusTypeDef status = HAL_OK;
 8005496:	2300      	movs	r3, #0
 8005498:	73fb      	strb	r3, [r7, #15]

  /* Clear INIT bit to exit Initialization mode */
  CLEAR_BIT(hrtc->Instance->ISR, RTC_ISR_INIT);
 800549a:	687b      	ldr	r3, [r7, #4]
 800549c:	681b      	ldr	r3, [r3, #0]
 800549e:	68da      	ldr	r2, [r3, #12]
 80054a0:	687b      	ldr	r3, [r7, #4]
 80054a2:	681b      	ldr	r3, [r3, #0]
 80054a4:	f022 0280 	bic.w	r2, r2, #128	@ 0x80
 80054a8:	60da      	str	r2, [r3, #12]

  /* If CR_BYPSHAD bit = 0, wait for synchro */
  if (READ_BIT(hrtc->Instance->CR, RTC_CR_BYPSHAD) == 0U)
 80054aa:	687b      	ldr	r3, [r7, #4]
 80054ac:	681b      	ldr	r3, [r3, #0]
 80054ae:	689b      	ldr	r3, [r3, #8]
 80054b0:	f003 0320 	and.w	r3, r3, #32
 80054b4:	2b00      	cmp	r3, #0
 80054b6:	d10a      	bne.n	80054ce <RTC_ExitInitMode+0x40>
  {
    if (HAL_RTC_WaitForSynchro(hrtc) != HAL_OK)
 80054b8:	6878      	ldr	r0, [r7, #4]
 80054ba:	f7ff ff8b 	bl	80053d4 <HAL_RTC_WaitForSynchro>
 80054be:	4603      	mov	r3, r0
 80054c0:	2b00      	cmp	r3, #0
 80054c2:	d004      	beq.n	80054ce <RTC_ExitInitMode+0x40>
    {
      /* Set RTC state */
      hrtc->State = HAL_RTC_STATE_ERROR;
 80054c4:	687b      	ldr	r3, [r7, #4]
 80054c6:	2204      	movs	r2, #4
 80054c8:	775a      	strb	r2, [r3, #29]
      status = HAL_ERROR;
 80054ca:	2301      	movs	r3, #1
 80054cc:	73fb      	strb	r3, [r7, #15]
    }
  }

  return status;
 80054ce:	7bfb      	ldrb	r3, [r7, #15]
}
 80054d0:	4618      	mov	r0, r3
 80054d2:	3710      	adds	r7, #16
 80054d4:	46bd      	mov	sp, r7
 80054d6:	bd80      	pop	{r7, pc}

080054d8 <RTC_ByteToBcd2>:
  * @brief  Converts a 2-digit number from decimal to BCD format.
  * @param  number decimal-formatted number (from 0 to 99) to be converted
  * @retval Converted byte
  */
uint8_t RTC_ByteToBcd2(uint8_t number)
{
 80054d8:	b480      	push	{r7}
 80054da:	b085      	sub	sp, #20
 80054dc:	af00      	add	r7, sp, #0
 80054de:	4603      	mov	r3, r0
 80054e0:	71fb      	strb	r3, [r7, #7]
  uint32_t bcdhigh = 0U;
 80054e2:	2300      	movs	r3, #0
 80054e4:	60fb      	str	r3, [r7, #12]

  while (number >= 10U)
 80054e6:	e005      	b.n	80054f4 <RTC_ByteToBcd2+0x1c>
  {
    bcdhigh++;
 80054e8:	68fb      	ldr	r3, [r7, #12]
 80054ea:	3301      	adds	r3, #1
 80054ec:	60fb      	str	r3, [r7, #12]
    number -= 10U;
 80054ee:	79fb      	ldrb	r3, [r7, #7]
 80054f0:	3b0a      	subs	r3, #10
 80054f2:	71fb      	strb	r3, [r7, #7]
  while (number >= 10U)
 80054f4:	79fb      	ldrb	r3, [r7, #7]
 80054f6:	2b09      	cmp	r3, #9
 80054f8:	d8f6      	bhi.n	80054e8 <RTC_ByteToBcd2+0x10>
  }

  return ((uint8_t)(bcdhigh << 4U) | number);
 80054fa:	68fb      	ldr	r3, [r7, #12]
 80054fc:	b2db      	uxtb	r3, r3
 80054fe:	011b      	lsls	r3, r3, #4
 8005500:	b2da      	uxtb	r2, r3
 8005502:	79fb      	ldrb	r3, [r7, #7]
 8005504:	4313      	orrs	r3, r2
 8005506:	b2db      	uxtb	r3, r3
}
 8005508:	4618      	mov	r0, r3
 800550a:	3714      	adds	r7, #20
 800550c:	46bd      	mov	sp, r7
 800550e:	f85d 7b04 	ldr.w	r7, [sp], #4
 8005512:	4770      	bx	lr

08005514 <HAL_RTCEx_SetWakeUpTimer_IT>:
  * @param  WakeUpCounter Wakeup counter
  * @param  WakeUpClock Wakeup clock
  * @retval HAL status
  */
HAL_StatusTypeDef HAL_RTCEx_SetWakeUpTimer_IT(RTC_HandleTypeDef *hrtc, uint32_t WakeUpCounter, uint32_t WakeUpClock)
{
 8005514:	b480      	push	{r7}
 8005516:	b087      	sub	sp, #28
 8005518:	af00      	add	r7, sp, #0
 800551a:	60f8      	str	r0, [r7, #12]
 800551c:	60b9      	str	r1, [r7, #8]
 800551e:	607a      	str	r2, [r7, #4]
  __IO uint32_t count  = RTC_TIMEOUT_VALUE * (SystemCoreClock / 32U / 1000U);
 8005520:	4b5a      	ldr	r3, [pc, #360]	@ (800568c <HAL_RTCEx_SetWakeUpTimer_IT+0x178>)
 8005522:	681b      	ldr	r3, [r3, #0]
 8005524:	4a5a      	ldr	r2, [pc, #360]	@ (8005690 <HAL_RTCEx_SetWakeUpTimer_IT+0x17c>)
 8005526:	fba2 2303 	umull	r2, r3, r2, r3
 800552a:	0adb      	lsrs	r3, r3, #11
 800552c:	f44f 727a 	mov.w	r2, #1000	@ 0x3e8
 8005530:	fb02 f303 	mul.w	r3, r2, r3
 8005534:	617b      	str	r3, [r7, #20]
  /* Check the parameters */
  assert_param(IS_RTC_WAKEUP_CLOCK(WakeUpClock));
  assert_param(IS_RTC_WAKEUP_COUNTER(WakeUpCounter));

  /* Process Locked */
  __HAL_LOCK(hrtc);
 8005536:	68fb      	ldr	r3, [r7, #12]
 8005538:	7f1b      	ldrb	r3, [r3, #28]
 800553a:	2b01      	cmp	r3, #1
 800553c:	d101      	bne.n	8005542 <HAL_RTCEx_SetWakeUpTimer_IT+0x2e>
 800553e:	2302      	movs	r3, #2
 8005540:	e09d      	b.n	800567e <HAL_RTCEx_SetWakeUpTimer_IT+0x16a>
 8005542:	68fb      	ldr	r3, [r7, #12]
 8005544:	2201      	movs	r2, #1
 8005546:	771a      	strb	r2, [r3, #28]

  hrtc->State = HAL_RTC_STATE_BUSY;
 8005548:	68fb      	ldr	r3, [r7, #12]
 800554a:	2202      	movs	r2, #2
 800554c:	775a      	strb	r2, [r3, #29]

  /* Disable the write protection for RTC registers */
  __HAL_RTC_WRITEPROTECTION_DISABLE(hrtc);
 800554e:	68fb      	ldr	r3, [r7, #12]
 8005550:	681b      	ldr	r3, [r3, #0]
 8005552:	22ca      	movs	r2, #202	@ 0xca
 8005554:	625a      	str	r2, [r3, #36]	@ 0x24
 8005556:	68fb      	ldr	r3, [r7, #12]
 8005558:	681b      	ldr	r3, [r3, #0]
 800555a:	2253      	movs	r2, #83	@ 0x53
 800555c:	625a      	str	r2, [r3, #36]	@ 0x24

  /* Check RTC WUTWF flag is reset only when wakeup timer enabled */
  if ((hrtc->Instance->CR & RTC_CR_WUTE) != 0U)
 800555e:	68fb      	ldr	r3, [r7, #12]
 8005560:	681b      	ldr	r3, [r3, #0]
 8005562:	689b      	ldr	r3, [r3, #8]
 8005564:	f403 6380 	and.w	r3, r3, #1024	@ 0x400
 8005568:	2b00      	cmp	r3, #0
 800556a:	d018      	beq.n	800559e <HAL_RTCEx_SetWakeUpTimer_IT+0x8a>
  {
    /* Wait till RTC WUTWF flag is reset and if timeout is reached exit */
    do
    {
      count = count - 1U;
 800556c:	697b      	ldr	r3, [r7, #20]
 800556e:	3b01      	subs	r3, #1
 8005570:	617b      	str	r3, [r7, #20]
      if (count == 0U)
 8005572:	697b      	ldr	r3, [r7, #20]
 8005574:	2b00      	cmp	r3, #0
 8005576:	d10b      	bne.n	8005590 <HAL_RTCEx_SetWakeUpTimer_IT+0x7c>
      {
        /* Enable the write protection for RTC registers */
        __HAL_RTC_WRITEPROTECTION_ENABLE(hrtc);
 8005578:	68fb      	ldr	r3, [r7, #12]
 800557a:	681b      	ldr	r3, [r3, #0]
 800557c:	22ff      	movs	r2, #255	@ 0xff
 800557e:	625a      	str	r2, [r3, #36]	@ 0x24

        hrtc->State = HAL_RTC_STATE_TIMEOUT;
 8005580:	68fb      	ldr	r3, [r7, #12]
 8005582:	2203      	movs	r2, #3
 8005584:	775a      	strb	r2, [r3, #29]

        /* Process Unlocked */
        __HAL_UNLOCK(hrtc);
 8005586:	68fb      	ldr	r3, [r7, #12]
 8005588:	2200      	movs	r2, #0
 800558a:	771a      	strb	r2, [r3, #28]

        return HAL_TIMEOUT;
 800558c:	2303      	movs	r3, #3
 800558e:	e076      	b.n	800567e <HAL_RTCEx_SetWakeUpTimer_IT+0x16a>
      }
    } while (__HAL_RTC_WAKEUPTIMER_GET_FLAG(hrtc, RTC_FLAG_WUTWF) != 0U);
 8005590:	68fb      	ldr	r3, [r7, #12]
 8005592:	681b      	ldr	r3, [r3, #0]
 8005594:	68db      	ldr	r3, [r3, #12]
 8005596:	f003 0304 	and.w	r3, r3, #4
 800559a:	2b00      	cmp	r3, #0
 800559c:	d1e6      	bne.n	800556c <HAL_RTCEx_SetWakeUpTimer_IT+0x58>
  }

  /* Disable the Wakeup timer */
  __HAL_RTC_WAKEUPTIMER_DISABLE(hrtc);
 800559e:	68fb      	ldr	r3, [r7, #12]
 80055a0:	681b      	ldr	r3, [r3, #0]
 80055a2:	689a      	ldr	r2, [r3, #8]
 80055a4:	68fb      	ldr	r3, [r7, #12]
 80055a6:	681b      	ldr	r3, [r3, #0]
 80055a8:	f422 6280 	bic.w	r2, r2, #1024	@ 0x400
 80055ac:	609a      	str	r2, [r3, #8]

  /* Clear the Wakeup flag */
  __HAL_RTC_WAKEUPTIMER_CLEAR_FLAG(hrtc, RTC_FLAG_WUTF);
 80055ae:	68fb      	ldr	r3, [r7, #12]
 80055b0:	681b      	ldr	r3, [r3, #0]
 80055b2:	68db      	ldr	r3, [r3, #12]
 80055b4:	b2da      	uxtb	r2, r3
 80055b6:	68fb      	ldr	r3, [r7, #12]
 80055b8:	681b      	ldr	r3, [r3, #0]
 80055ba:	f462 6290 	orn	r2, r2, #1152	@ 0x480
 80055be:	60da      	str	r2, [r3, #12]

  /* Reload the counter */
  count = RTC_TIMEOUT_VALUE * (SystemCoreClock / 32U / 1000U);
 80055c0:	4b32      	ldr	r3, [pc, #200]	@ (800568c <HAL_RTCEx_SetWakeUpTimer_IT+0x178>)
 80055c2:	681b      	ldr	r3, [r3, #0]
 80055c4:	4a32      	ldr	r2, [pc, #200]	@ (8005690 <HAL_RTCEx_SetWakeUpTimer_IT+0x17c>)
 80055c6:	fba2 2303 	umull	r2, r3, r2, r3
 80055ca:	0adb      	lsrs	r3, r3, #11
 80055cc:	f44f 727a 	mov.w	r2, #1000	@ 0x3e8
 80055d0:	fb02 f303 	mul.w	r3, r2, r3
 80055d4:	617b      	str	r3, [r7, #20]

  /* Wait till RTC WUTWF flag is set and if timeout is reached exit */
  do
  {
    count = count - 1U;
 80055d6:	697b      	ldr	r3, [r7, #20]
 80055d8:	3b01      	subs	r3, #1
 80055da:	617b      	str	r3, [r7, #20]
    if (count == 0U)
 80055dc:	697b      	ldr	r3, [r7, #20]
 80055de:	2b00      	cmp	r3, #0
 80055e0:	d10b      	bne.n	80055fa <HAL_RTCEx_SetWakeUpTimer_IT+0xe6>
    {
      /* Enable the write protection for RTC registers */
      __HAL_RTC_WRITEPROTECTION_ENABLE(hrtc);
 80055e2:	68fb      	ldr	r3, [r7, #12]
 80055e4:	681b      	ldr	r3, [r3, #0]
 80055e6:	22ff      	movs	r2, #255	@ 0xff
 80055e8:	625a      	str	r2, [r3, #36]	@ 0x24

      hrtc->State = HAL_RTC_STATE_TIMEOUT;
 80055ea:	68fb      	ldr	r3, [r7, #12]
 80055ec:	2203      	movs	r2, #3
 80055ee:	775a      	strb	r2, [r3, #29]

      /* Process Unlocked */
      __HAL_UNLOCK(hrtc);
 80055f0:	68fb      	ldr	r3, [r7, #12]
 80055f2:	2200      	movs	r2, #0
 80055f4:	771a      	strb	r2, [r3, #28]

      return HAL_TIMEOUT;
 80055f6:	2303      	movs	r3, #3
 80055f8:	e041      	b.n	800567e <HAL_RTCEx_SetWakeUpTimer_IT+0x16a>
    }
  } while (__HAL_RTC_WAKEUPTIMER_GET_FLAG(hrtc, RTC_FLAG_WUTWF) == 0U);
 80055fa:	68fb      	ldr	r3, [r7, #12]
 80055fc:	681b      	ldr	r3, [r3, #0]
 80055fe:	68db      	ldr	r3, [r3, #12]
 8005600:	f003 0304 	and.w	r3, r3, #4
 8005604:	2b00      	cmp	r3, #0
 8005606:	d0e6      	beq.n	80055d6 <HAL_RTCEx_SetWakeUpTimer_IT+0xc2>

  /* Clear the Wakeup Timer clock source bits in CR register */
  hrtc->Instance->CR &= (uint32_t)~RTC_CR_WUCKSEL;
 8005608:	68fb      	ldr	r3, [r7, #12]
 800560a:	681b      	ldr	r3, [r3, #0]
 800560c:	689a      	ldr	r2, [r3, #8]
 800560e:	68fb      	ldr	r3, [r7, #12]
 8005610:	681b      	ldr	r3, [r3, #0]
 8005612:	f022 0207 	bic.w	r2, r2, #7
 8005616:	609a      	str	r2, [r3, #8]

  /* Configure the clock source */
  hrtc->Instance->CR |= (uint32_t)WakeUpClock;
 8005618:	68fb      	ldr	r3, [r7, #12]
 800561a:	681b      	ldr	r3, [r3, #0]
 800561c:	6899      	ldr	r1, [r3, #8]
 800561e:	68fb      	ldr	r3, [r7, #12]
 8005620:	681b      	ldr	r3, [r3, #0]
 8005622:	687a      	ldr	r2, [r7, #4]
 8005624:	430a      	orrs	r2, r1
 8005626:	609a      	str	r2, [r3, #8]

  /* Configure the Wakeup Timer counter */
  hrtc->Instance->WUTR = (uint32_t)WakeUpCounter;
 8005628:	68fb      	ldr	r3, [r7, #12]
 800562a:	681b      	ldr	r3, [r3, #0]
 800562c:	68ba      	ldr	r2, [r7, #8]
 800562e:	615a      	str	r2, [r3, #20]

  /* Enable and configure the EXTI line associated to the RTC Wakeup Timer interrupt */
  __HAL_RTC_WAKEUPTIMER_EXTI_ENABLE_IT();
 8005630:	4b18      	ldr	r3, [pc, #96]	@ (8005694 <HAL_RTCEx_SetWakeUpTimer_IT+0x180>)
 8005632:	681b      	ldr	r3, [r3, #0]
 8005634:	4a17      	ldr	r2, [pc, #92]	@ (8005694 <HAL_RTCEx_SetWakeUpTimer_IT+0x180>)
 8005636:	f443 0380 	orr.w	r3, r3, #4194304	@ 0x400000
 800563a:	6013      	str	r3, [r2, #0]
  __HAL_RTC_WAKEUPTIMER_EXTI_ENABLE_RISING_EDGE();
 800563c:	4b15      	ldr	r3, [pc, #84]	@ (8005694 <HAL_RTCEx_SetWakeUpTimer_IT+0x180>)
 800563e:	689b      	ldr	r3, [r3, #8]
 8005640:	4a14      	ldr	r2, [pc, #80]	@ (8005694 <HAL_RTCEx_SetWakeUpTimer_IT+0x180>)
 8005642:	f443 0380 	orr.w	r3, r3, #4194304	@ 0x400000
 8005646:	6093      	str	r3, [r2, #8]

  /* Configure the interrupt in the RTC_CR register */
  __HAL_RTC_WAKEUPTIMER_ENABLE_IT(hrtc, RTC_IT_WUT);
 8005648:	68fb      	ldr	r3, [r7, #12]
 800564a:	681b      	ldr	r3, [r3, #0]
 800564c:	689a      	ldr	r2, [r3, #8]
 800564e:	68fb      	ldr	r3, [r7, #12]
 8005650:	681b      	ldr	r3, [r3, #0]
 8005652:	f442 4280 	orr.w	r2, r2, #16384	@ 0x4000
 8005656:	609a      	str	r2, [r3, #8]

  /* Enable the Wakeup Timer */
  __HAL_RTC_WAKEUPTIMER_ENABLE(hrtc);
 8005658:	68fb      	ldr	r3, [r7, #12]
 800565a:	681b      	ldr	r3, [r3, #0]
 800565c:	689a      	ldr	r2, [r3, #8]
 800565e:	68fb      	ldr	r3, [r7, #12]
 8005660:	681b      	ldr	r3, [r3, #0]
 8005662:	f442 6280 	orr.w	r2, r2, #1024	@ 0x400
 8005666:	609a      	str	r2, [r3, #8]

  /* Enable the write protection for RTC registers */
  __HAL_RTC_WRITEPROTECTION_ENABLE(hrtc);
 8005668:	68fb      	ldr	r3, [r7, #12]
 800566a:	681b      	ldr	r3, [r3, #0]
 800566c:	22ff      	movs	r2, #255	@ 0xff
 800566e:	625a      	str	r2, [r3, #36]	@ 0x24

  hrtc->State = HAL_RTC_STATE_READY;
 8005670:	68fb      	ldr	r3, [r7, #12]
 8005672:	2201      	movs	r2, #1
 8005674:	775a      	strb	r2, [r3, #29]

  /* Process Unlocked */
  __HAL_UNLOCK(hrtc);
 8005676:	68fb      	ldr	r3, [r7, #12]
 8005678:	2200      	movs	r2, #0
 800567a:	771a      	strb	r2, [r3, #28]

  return HAL_OK;
 800567c:	2300      	movs	r3, #0
}
 800567e:	4618      	mov	r0, r3
 8005680:	371c      	adds	r7, #28
 8005682:	46bd      	mov	sp, r7
 8005684:	f85d 7b04 	ldr.w	r7, [sp], #4
 8005688:	4770      	bx	lr
 800568a:	bf00      	nop
 800568c:	20000008 	.word	0x20000008
 8005690:	10624dd3 	.word	0x10624dd3
 8005694:	40013c00 	.word	0x40013c00

08005698 <HAL_RTCEx_WakeUpTimerIRQHandler>:
  * @param  hrtc pointer to a RTC_HandleTypeDef structure that contains
  *                the configuration information for RTC.
  * @retval None
  */
void HAL_RTCEx_WakeUpTimerIRQHandler(RTC_HandleTypeDef *hrtc)
{
 8005698:	b580      	push	{r7, lr}
 800569a:	b082      	sub	sp, #8
 800569c:	af00      	add	r7, sp, #0
 800569e:	6078      	str	r0, [r7, #4]
  /* Clear the EXTI flag associated to the RTC Wakeup Timer interrupt */
  __HAL_RTC_WAKEUPTIMER_EXTI_CLEAR_FLAG();
 80056a0:	4b0e      	ldr	r3, [pc, #56]	@ (80056dc <HAL_RTCEx_WakeUpTimerIRQHandler+0x44>)
 80056a2:	f44f 0280 	mov.w	r2, #4194304	@ 0x400000
 80056a6:	615a      	str	r2, [r3, #20]

  /* Get the pending status of the Wakeup timer Interrupt */
  if (__HAL_RTC_WAKEUPTIMER_GET_FLAG(hrtc, RTC_FLAG_WUTF) != 0U)
 80056a8:	687b      	ldr	r3, [r7, #4]
 80056aa:	681b      	ldr	r3, [r3, #0]
 80056ac:	68db      	ldr	r3, [r3, #12]
 80056ae:	f403 6380 	and.w	r3, r3, #1024	@ 0x400
 80056b2:	2b00      	cmp	r3, #0
 80056b4:	d00b      	beq.n	80056ce <HAL_RTCEx_WakeUpTimerIRQHandler+0x36>
  {
    /* Clear the Wakeup timer interrupt pending bit */
    __HAL_RTC_WAKEUPTIMER_CLEAR_FLAG(hrtc, RTC_FLAG_WUTF);
 80056b6:	687b      	ldr	r3, [r7, #4]
 80056b8:	681b      	ldr	r3, [r3, #0]
 80056ba:	68db      	ldr	r3, [r3, #12]
 80056bc:	b2da      	uxtb	r2, r3
 80056be:	687b      	ldr	r3, [r7, #4]
 80056c0:	681b      	ldr	r3, [r3, #0]
 80056c2:	f462 6290 	orn	r2, r2, #1152	@ 0x480
 80056c6:	60da      	str	r2, [r3, #12]

    /* Wakeup timer callback */
#if (USE_HAL_RTC_REGISTER_CALLBACKS == 1)
    hrtc->WakeUpTimerEventCallback(hrtc);
#else
    HAL_RTCEx_WakeUpTimerEventCallback(hrtc);
 80056c8:	6878      	ldr	r0, [r7, #4]
 80056ca:	f7fb fe99 	bl	8001400 <HAL_RTCEx_WakeUpTimerEventCallback>
#endif /* USE_HAL_RTC_REGISTER_CALLBACKS */
  }

  /* Change RTC state */
  hrtc->State = HAL_RTC_STATE_READY;
 80056ce:	687b      	ldr	r3, [r7, #4]
 80056d0:	2201      	movs	r2, #1
 80056d2:	775a      	strb	r2, [r3, #29]
}
 80056d4:	bf00      	nop
 80056d6:	3708      	adds	r7, #8
 80056d8:	46bd      	mov	sp, r7
 80056da:	bd80      	pop	{r7, pc}
 80056dc:	40013c00 	.word	0x40013c00

080056e0 <HAL_TIM_Base_Init>:
  *         Ex: call @ref HAL_TIM_Base_DeInit() before HAL_TIM_Base_Init()
  * @param  htim TIM Base handle
  * @retval HAL status
  */
HAL_StatusTypeDef HAL_TIM_Base_Init(TIM_HandleTypeDef *htim)
{
 80056e0:	b580      	push	{r7, lr}
 80056e2:	b082      	sub	sp, #8
 80056e4:	af00      	add	r7, sp, #0
 80056e6:	6078      	str	r0, [r7, #4]
  /* Check the TIM handle allocation */
  if (htim == NULL)
 80056e8:	687b      	ldr	r3, [r7, #4]
 80056ea:	2b00      	cmp	r3, #0
 80056ec:	d101      	bne.n	80056f2 <HAL_TIM_Base_Init+0x12>
  {
    return HAL_ERROR;
 80056ee:	2301      	movs	r3, #1
 80056f0:	e041      	b.n	8005776 <HAL_TIM_Base_Init+0x96>
  assert_param(IS_TIM_COUNTER_MODE(htim->Init.CounterMode));
  assert_param(IS_TIM_CLOCKDIVISION_DIV(htim->Init.ClockDivision));
  assert_param(IS_TIM_PERIOD(htim, htim->Init.Period));
  assert_param(IS_TIM_AUTORELOAD_PRELOAD(htim->Init.AutoReloadPreload));

  if (htim->State == HAL_TIM_STATE_RESET)
 80056f2:	687b      	ldr	r3, [r7, #4]
 80056f4:	f893 303d 	ldrb.w	r3, [r3, #61]	@ 0x3d
 80056f8:	b2db      	uxtb	r3, r3
 80056fa:	2b00      	cmp	r3, #0
 80056fc:	d106      	bne.n	800570c <HAL_TIM_Base_Init+0x2c>
  {
    /* Allocate lock resource and initialize it */
    htim->Lock = HAL_UNLOCKED;
 80056fe:	687b      	ldr	r3, [r7, #4]
 8005700:	2200      	movs	r2, #0
 8005702:	f883 203c 	strb.w	r2, [r3, #60]	@ 0x3c
    }
    /* Init the low level hardware : GPIO, CLOCK, NVIC */
    htim->Base_MspInitCallback(htim);
#else
    /* Init the low level hardware : GPIO, CLOCK, NVIC */
    HAL_TIM_Base_MspInit(htim);
 8005706:	6878      	ldr	r0, [r7, #4]
 8005708:	f7fb ffde 	bl	80016c8 <HAL_TIM_Base_MspInit>
#endif /* USE_HAL_TIM_REGISTER_CALLBACKS */
  }

  /* Set the TIM state */
  htim->State = HAL_TIM_STATE_BUSY;
 800570c:	687b      	ldr	r3, [r7, #4]
 800570e:	2202      	movs	r2, #2
 8005710:	f883 203d 	strb.w	r2, [r3, #61]	@ 0x3d

  /* Set the Time Base configuration */
  TIM_Base_SetConfig(htim->Instance, &htim->Init);
 8005714:	687b      	ldr	r3, [r7, #4]
 8005716:	681a      	ldr	r2, [r3, #0]
 8005718:	687b      	ldr	r3, [r7, #4]
 800571a:	3304      	adds	r3, #4
 800571c:	4619      	mov	r1, r3
 800571e:	4610      	mov	r0, r2
 8005720:	f000 fc62 	bl	8005fe8 <TIM_Base_SetConfig>

  /* Initialize the DMA burst operation state */
  htim->DMABurstState = HAL_DMA_BURST_STATE_READY;
 8005724:	687b      	ldr	r3, [r7, #4]
 8005726:	2201      	movs	r2, #1
 8005728:	f883 2046 	strb.w	r2, [r3, #70]	@ 0x46

  /* Initialize the TIM channels state */
  TIM_CHANNEL_STATE_SET_ALL(htim, HAL_TIM_CHANNEL_STATE_READY);
 800572c:	687b      	ldr	r3, [r7, #4]
 800572e:	2201      	movs	r2, #1
 8005730:	f883 203e 	strb.w	r2, [r3, #62]	@ 0x3e
 8005734:	687b      	ldr	r3, [r7, #4]
 8005736:	2201      	movs	r2, #1
 8005738:	f883 203f 	strb.w	r2, [r3, #63]	@ 0x3f
 800573c:	687b      	ldr	r3, [r7, #4]
 800573e:	2201      	movs	r2, #1
 8005740:	f883 2040 	strb.w	r2, [r3, #64]	@ 0x40
 8005744:	687b      	ldr	r3, [r7, #4]
 8005746:	2201      	movs	r2, #1
 8005748:	f883 2041 	strb.w	r2, [r3, #65]	@ 0x41
  TIM_CHANNEL_N_STATE_SET_ALL(htim, HAL_TIM_CHANNEL_STATE_READY);
 800574c:	687b      	ldr	r3, [r7, #4]
 800574e:	2201      	movs	r2, #1
 8005750:	f883 2042 	strb.w	r2, [r3, #66]	@ 0x42
 8005754:	687b      	ldr	r3, [r7, #4]
 8005756:	2201      	movs	r2, #1
 8005758:	f883 2043 	strb.w	r2, [r3, #67]	@ 0x43
 800575c:	687b      	ldr	r3, [r7, #4]
 800575e:	2201      	movs	r2, #1
 8005760:	f883 2044 	strb.w	r2, [r3, #68]	@ 0x44
 8005764:	687b      	ldr	r3, [r7, #4]
 8005766:	2201      	movs	r2, #1
 8005768:	f883 2045 	strb.w	r2, [r3, #69]	@ 0x45

  /* Initialize the TIM state*/
  htim->State = HAL_TIM_STATE_READY;
 800576c:	687b      	ldr	r3, [r7, #4]
 800576e:	2201      	movs	r2, #1
 8005770:	f883 203d 	strb.w	r2, [r3, #61]	@ 0x3d

  return HAL_OK;
 8005774:	2300      	movs	r3, #0
}
 8005776:	4618      	mov	r0, r3
 8005778:	3708      	adds	r7, #8
 800577a:	46bd      	mov	sp, r7
 800577c:	bd80      	pop	{r7, pc}
	...

08005780 <HAL_TIM_Base_Start_IT>:
  * @brief  Starts the TIM Base generation in interrupt mode.
  * @param  htim TIM Base handle
  * @retval HAL status
  */
HAL_StatusTypeDef HAL_TIM_Base_Start_IT(TIM_HandleTypeDef *htim)
{
 8005780:	b480      	push	{r7}
 8005782:	b085      	sub	sp, #20
 8005784:	af00      	add	r7, sp, #0
 8005786:	6078      	str	r0, [r7, #4]

  /* Check the parameters */
  assert_param(IS_TIM_INSTANCE(htim->Instance));

  /* Check the TIM state */
  if (htim->State != HAL_TIM_STATE_READY)
 8005788:	687b      	ldr	r3, [r7, #4]
 800578a:	f893 303d 	ldrb.w	r3, [r3, #61]	@ 0x3d
 800578e:	b2db      	uxtb	r3, r3
 8005790:	2b01      	cmp	r3, #1
 8005792:	d001      	beq.n	8005798 <HAL_TIM_Base_Start_IT+0x18>
  {
    return HAL_ERROR;
 8005794:	2301      	movs	r3, #1
 8005796:	e04e      	b.n	8005836 <HAL_TIM_Base_Start_IT+0xb6>
  }

  /* Set the TIM state */
  htim->State = HAL_TIM_STATE_BUSY;
 8005798:	687b      	ldr	r3, [r7, #4]
 800579a:	2202      	movs	r2, #2
 800579c:	f883 203d 	strb.w	r2, [r3, #61]	@ 0x3d

  /* Enable the TIM Update interrupt */
  __HAL_TIM_ENABLE_IT(htim, TIM_IT_UPDATE);
 80057a0:	687b      	ldr	r3, [r7, #4]
 80057a2:	681b      	ldr	r3, [r3, #0]
 80057a4:	68da      	ldr	r2, [r3, #12]
 80057a6:	687b      	ldr	r3, [r7, #4]
 80057a8:	681b      	ldr	r3, [r3, #0]
 80057aa:	f042 0201 	orr.w	r2, r2, #1
 80057ae:	60da      	str	r2, [r3, #12]

  /* Enable the Peripheral, except in trigger mode where enable is automatically done with trigger */
  if (IS_TIM_SLAVE_INSTANCE(htim->Instance))
 80057b0:	687b      	ldr	r3, [r7, #4]
 80057b2:	681b      	ldr	r3, [r3, #0]
 80057b4:	4a23      	ldr	r2, [pc, #140]	@ (8005844 <HAL_TIM_Base_Start_IT+0xc4>)
 80057b6:	4293      	cmp	r3, r2
 80057b8:	d022      	beq.n	8005800 <HAL_TIM_Base_Start_IT+0x80>
 80057ba:	687b      	ldr	r3, [r7, #4]
 80057bc:	681b      	ldr	r3, [r3, #0]
 80057be:	f1b3 4f80 	cmp.w	r3, #1073741824	@ 0x40000000
 80057c2:	d01d      	beq.n	8005800 <HAL_TIM_Base_Start_IT+0x80>
 80057c4:	687b      	ldr	r3, [r7, #4]
 80057c6:	681b      	ldr	r3, [r3, #0]
 80057c8:	4a1f      	ldr	r2, [pc, #124]	@ (8005848 <HAL_TIM_Base_Start_IT+0xc8>)
 80057ca:	4293      	cmp	r3, r2
 80057cc:	d018      	beq.n	8005800 <HAL_TIM_Base_Start_IT+0x80>
 80057ce:	687b      	ldr	r3, [r7, #4]
 80057d0:	681b      	ldr	r3, [r3, #0]
 80057d2:	4a1e      	ldr	r2, [pc, #120]	@ (800584c <HAL_TIM_Base_Start_IT+0xcc>)
 80057d4:	4293      	cmp	r3, r2
 80057d6:	d013      	beq.n	8005800 <HAL_TIM_Base_Start_IT+0x80>
 80057d8:	687b      	ldr	r3, [r7, #4]
 80057da:	681b      	ldr	r3, [r3, #0]
 80057dc:	4a1c      	ldr	r2, [pc, #112]	@ (8005850 <HAL_TIM_Base_Start_IT+0xd0>)
 80057de:	4293      	cmp	r3, r2
 80057e0:	d00e      	beq.n	8005800 <HAL_TIM_Base_Start_IT+0x80>
 80057e2:	687b      	ldr	r3, [r7, #4]
 80057e4:	681b      	ldr	r3, [r3, #0]
 80057e6:	4a1b      	ldr	r2, [pc, #108]	@ (8005854 <HAL_TIM_Base_Start_IT+0xd4>)
 80057e8:	4293      	cmp	r3, r2
 80057ea:	d009      	beq.n	8005800 <HAL_TIM_Base_Start_IT+0x80>
 80057ec:	687b      	ldr	r3, [r7, #4]
 80057ee:	681b      	ldr	r3, [r3, #0]
 80057f0:	4a19      	ldr	r2, [pc, #100]	@ (8005858 <HAL_TIM_Base_Start_IT+0xd8>)
 80057f2:	4293      	cmp	r3, r2
 80057f4:	d004      	beq.n	8005800 <HAL_TIM_Base_Start_IT+0x80>
 80057f6:	687b      	ldr	r3, [r7, #4]
 80057f8:	681b      	ldr	r3, [r3, #0]
 80057fa:	4a18      	ldr	r2, [pc, #96]	@ (800585c <HAL_TIM_Base_Start_IT+0xdc>)
 80057fc:	4293      	cmp	r3, r2
 80057fe:	d111      	bne.n	8005824 <HAL_TIM_Base_Start_IT+0xa4>
  {
    tmpsmcr = htim->Instance->SMCR & TIM_SMCR_SMS;
 8005800:	687b      	ldr	r3, [r7, #4]
 8005802:	681b      	ldr	r3, [r3, #0]
 8005804:	689b      	ldr	r3, [r3, #8]
 8005806:	f003 0307 	and.w	r3, r3, #7
 800580a:	60fb      	str	r3, [r7, #12]
    if (!IS_TIM_SLAVEMODE_TRIGGER_ENABLED(tmpsmcr))
 800580c:	68fb      	ldr	r3, [r7, #12]
 800580e:	2b06      	cmp	r3, #6
 8005810:	d010      	beq.n	8005834 <HAL_TIM_Base_Start_IT+0xb4>
    {
      __HAL_TIM_ENABLE(htim);
 8005812:	687b      	ldr	r3, [r7, #4]
 8005814:	681b      	ldr	r3, [r3, #0]
 8005816:	681a      	ldr	r2, [r3, #0]
 8005818:	687b      	ldr	r3, [r7, #4]
 800581a:	681b      	ldr	r3, [r3, #0]
 800581c:	f042 0201 	orr.w	r2, r2, #1
 8005820:	601a      	str	r2, [r3, #0]
    if (!IS_TIM_SLAVEMODE_TRIGGER_ENABLED(tmpsmcr))
 8005822:	e007      	b.n	8005834 <HAL_TIM_Base_Start_IT+0xb4>
    }
  }
  else
  {
    __HAL_TIM_ENABLE(htim);
 8005824:	687b      	ldr	r3, [r7, #4]
 8005826:	681b      	ldr	r3, [r3, #0]
 8005828:	681a      	ldr	r2, [r3, #0]
 800582a:	687b      	ldr	r3, [r7, #4]
 800582c:	681b      	ldr	r3, [r3, #0]
 800582e:	f042 0201 	orr.w	r2, r2, #1
 8005832:	601a      	str	r2, [r3, #0]
  }

  /* Return function status */
  return HAL_OK;
 8005834:	2300      	movs	r3, #0
}
 8005836:	4618      	mov	r0, r3
 8005838:	3714      	adds	r7, #20
 800583a:	46bd      	mov	sp, r7
 800583c:	f85d 7b04 	ldr.w	r7, [sp], #4
 8005840:	4770      	bx	lr
 8005842:	bf00      	nop
 8005844:	40010000 	.word	0x40010000
 8005848:	40000400 	.word	0x40000400
 800584c:	40000800 	.word	0x40000800
 8005850:	40000c00 	.word	0x40000c00
 8005854:	40010400 	.word	0x40010400
 8005858:	40014000 	.word	0x40014000
 800585c:	40001800 	.word	0x40001800

08005860 <HAL_TIM_PWM_Init>:
  *         Ex: call @ref HAL_TIM_PWM_DeInit() before HAL_TIM_PWM_Init()
  * @param  htim TIM PWM handle
  * @retval HAL status
  */
HAL_StatusTypeDef HAL_TIM_PWM_Init(TIM_HandleTypeDef *htim)
{
 8005860:	b580      	push	{r7, lr}
 8005862:	b082      	sub	sp, #8
 8005864:	af00      	add	r7, sp, #0
 8005866:	6078      	str	r0, [r7, #4]
  /* Check the TIM handle allocation */
  if (htim == NULL)
 8005868:	687b      	ldr	r3, [r7, #4]
 800586a:	2b00      	cmp	r3, #0
 800586c:	d101      	bne.n	8005872 <HAL_TIM_PWM_Init+0x12>
  {
    return HAL_ERROR;
 800586e:	2301      	movs	r3, #1
 8005870:	e041      	b.n	80058f6 <HAL_TIM_PWM_Init+0x96>
  assert_param(IS_TIM_COUNTER_MODE(htim->Init.CounterMode));
  assert_param(IS_TIM_CLOCKDIVISION_DIV(htim->Init.ClockDivision));
  assert_param(IS_TIM_PERIOD(htim, htim->Init.Period));
  assert_param(IS_TIM_AUTORELOAD_PRELOAD(htim->Init.AutoReloadPreload));

  if (htim->State == HAL_TIM_STATE_RESET)
 8005872:	687b      	ldr	r3, [r7, #4]
 8005874:	f893 303d 	ldrb.w	r3, [r3, #61]	@ 0x3d
 8005878:	b2db      	uxtb	r3, r3
 800587a:	2b00      	cmp	r3, #0
 800587c:	d106      	bne.n	800588c <HAL_TIM_PWM_Init+0x2c>
  {
    /* Allocate lock resource and initialize it */
    htim->Lock = HAL_UNLOCKED;
 800587e:	687b      	ldr	r3, [r7, #4]
 8005880:	2200      	movs	r2, #0
 8005882:	f883 203c 	strb.w	r2, [r3, #60]	@ 0x3c
    }
    /* Init the low level hardware : GPIO, CLOCK, NVIC */
    htim->PWM_MspInitCallback(htim);
#else
    /* Init the low level hardware : GPIO, CLOCK, NVIC and DMA */
    HAL_TIM_PWM_MspInit(htim);
 8005886:	6878      	ldr	r0, [r7, #4]
 8005888:	f000 f839 	bl	80058fe <HAL_TIM_PWM_MspInit>
#endif /* USE_HAL_TIM_REGISTER_CALLBACKS */
  }

  /* Set the TIM state */
  htim->State = HAL_TIM_STATE_BUSY;
 800588c:	687b      	ldr	r3, [r7, #4]
 800588e:	2202      	movs	r2, #2
 8005890:	f883 203d 	strb.w	r2, [r3, #61]	@ 0x3d

  /* Init the base time for the PWM */
  TIM_Base_SetConfig(htim->Instance, &htim->Init);
 8005894:	687b      	ldr	r3, [r7, #4]
 8005896:	681a      	ldr	r2, [r3, #0]
 8005898:	687b      	ldr	r3, [r7, #4]
 800589a:	3304      	adds	r3, #4
 800589c:	4619      	mov	r1, r3
 800589e:	4610      	mov	r0, r2
 80058a0:	f000 fba2 	bl	8005fe8 <TIM_Base_SetConfig>

  /* Initialize the DMA burst operation state */
  htim->DMABurstState = HAL_DMA_BURST_STATE_READY;
 80058a4:	687b      	ldr	r3, [r7, #4]
 80058a6:	2201      	movs	r2, #1
 80058a8:	f883 2046 	strb.w	r2, [r3, #70]	@ 0x46

  /* Initialize the TIM channels state */
  TIM_CHANNEL_STATE_SET_ALL(htim, HAL_TIM_CHANNEL_STATE_READY);
 80058ac:	687b      	ldr	r3, [r7, #4]
 80058ae:	2201      	movs	r2, #1
 80058b0:	f883 203e 	strb.w	r2, [r3, #62]	@ 0x3e
 80058b4:	687b      	ldr	r3, [r7, #4]
 80058b6:	2201      	movs	r2, #1
 80058b8:	f883 203f 	strb.w	r2, [r3, #63]	@ 0x3f
 80058bc:	687b      	ldr	r3, [r7, #4]
 80058be:	2201      	movs	r2, #1
 80058c0:	f883 2040 	strb.w	r2, [r3, #64]	@ 0x40
 80058c4:	687b      	ldr	r3, [r7, #4]
 80058c6:	2201      	movs	r2, #1
 80058c8:	f883 2041 	strb.w	r2, [r3, #65]	@ 0x41
  TIM_CHANNEL_N_STATE_SET_ALL(htim, HAL_TIM_CHANNEL_STATE_READY);
 80058cc:	687b      	ldr	r3, [r7, #4]
 80058ce:	2201      	movs	r2, #1
 80058d0:	f883 2042 	strb.w	r2, [r3, #66]	@ 0x42
 80058d4:	687b      	ldr	r3, [r7, #4]
 80058d6:	2201      	movs	r2, #1
 80058d8:	f883 2043 	strb.w	r2, [r3, #67]	@ 0x43
 80058dc:	687b      	ldr	r3, [r7, #4]
 80058de:	2201      	movs	r2, #1
 80058e0:	f883 2044 	strb.w	r2, [r3, #68]	@ 0x44
 80058e4:	687b      	ldr	r3, [r7, #4]
 80058e6:	2201      	movs	r2, #1
 80058e8:	f883 2045 	strb.w	r2, [r3, #69]	@ 0x45

  /* Initialize the TIM state*/
  htim->State = HAL_TIM_STATE_READY;
 80058ec:	687b      	ldr	r3, [r7, #4]
 80058ee:	2201      	movs	r2, #1
 80058f0:	f883 203d 	strb.w	r2, [r3, #61]	@ 0x3d

  return HAL_OK;
 80058f4:	2300      	movs	r3, #0
}
 80058f6:	4618      	mov	r0, r3
 80058f8:	3708      	adds	r7, #8
 80058fa:	46bd      	mov	sp, r7
 80058fc:	bd80      	pop	{r7, pc}

080058fe <HAL_TIM_PWM_MspInit>:
  * @brief  Initializes the TIM PWM MSP.
  * @param  htim TIM PWM handle
  * @retval None
  */
__weak void HAL_TIM_PWM_MspInit(TIM_HandleTypeDef *htim)
{
 80058fe:	b480      	push	{r7}
 8005900:	b083      	sub	sp, #12
 8005902:	af00      	add	r7, sp, #0
 8005904:	6078      	str	r0, [r7, #4]
  UNUSED(htim);

  /* NOTE : This function should not be modified, when the callback is needed,
            the HAL_TIM_PWM_MspInit could be implemented in the user file
   */
}
 8005906:	bf00      	nop
 8005908:	370c      	adds	r7, #12
 800590a:	46bd      	mov	sp, r7
 800590c:	f85d 7b04 	ldr.w	r7, [sp], #4
 8005910:	4770      	bx	lr
	...

08005914 <HAL_TIM_PWM_Start>:
  *            @arg TIM_CHANNEL_3: TIM Channel 3 selected
  *            @arg TIM_CHANNEL_4: TIM Channel 4 selected
  * @retval HAL status
  */
HAL_StatusTypeDef HAL_TIM_PWM_Start(TIM_HandleTypeDef *htim, uint32_t Channel)
{
 8005914:	b580      	push	{r7, lr}
 8005916:	b084      	sub	sp, #16
 8005918:	af00      	add	r7, sp, #0
 800591a:	6078      	str	r0, [r7, #4]
 800591c:	6039      	str	r1, [r7, #0]

  /* Check the parameters */
  assert_param(IS_TIM_CCX_INSTANCE(htim->Instance, Channel));

  /* Check the TIM channel state */
  if (TIM_CHANNEL_STATE_GET(htim, Channel) != HAL_TIM_CHANNEL_STATE_READY)
 800591e:	683b      	ldr	r3, [r7, #0]
 8005920:	2b00      	cmp	r3, #0
 8005922:	d109      	bne.n	8005938 <HAL_TIM_PWM_Start+0x24>
 8005924:	687b      	ldr	r3, [r7, #4]
 8005926:	f893 303e 	ldrb.w	r3, [r3, #62]	@ 0x3e
 800592a:	b2db      	uxtb	r3, r3
 800592c:	2b01      	cmp	r3, #1
 800592e:	bf14      	ite	ne
 8005930:	2301      	movne	r3, #1
 8005932:	2300      	moveq	r3, #0
 8005934:	b2db      	uxtb	r3, r3
 8005936:	e022      	b.n	800597e <HAL_TIM_PWM_Start+0x6a>
 8005938:	683b      	ldr	r3, [r7, #0]
 800593a:	2b04      	cmp	r3, #4
 800593c:	d109      	bne.n	8005952 <HAL_TIM_PWM_Start+0x3e>
 800593e:	687b      	ldr	r3, [r7, #4]
 8005940:	f893 303f 	ldrb.w	r3, [r3, #63]	@ 0x3f
 8005944:	b2db      	uxtb	r3, r3
 8005946:	2b01      	cmp	r3, #1
 8005948:	bf14      	ite	ne
 800594a:	2301      	movne	r3, #1
 800594c:	2300      	moveq	r3, #0
 800594e:	b2db      	uxtb	r3, r3
 8005950:	e015      	b.n	800597e <HAL_TIM_PWM_Start+0x6a>
 8005952:	683b      	ldr	r3, [r7, #0]
 8005954:	2b08      	cmp	r3, #8
 8005956:	d109      	bne.n	800596c <HAL_TIM_PWM_Start+0x58>
 8005958:	687b      	ldr	r3, [r7, #4]
 800595a:	f893 3040 	ldrb.w	r3, [r3, #64]	@ 0x40
 800595e:	b2db      	uxtb	r3, r3
 8005960:	2b01      	cmp	r3, #1
 8005962:	bf14      	ite	ne
 8005964:	2301      	movne	r3, #1
 8005966:	2300      	moveq	r3, #0
 8005968:	b2db      	uxtb	r3, r3
 800596a:	e008      	b.n	800597e <HAL_TIM_PWM_Start+0x6a>
 800596c:	687b      	ldr	r3, [r7, #4]
 800596e:	f893 3041 	ldrb.w	r3, [r3, #65]	@ 0x41
 8005972:	b2db      	uxtb	r3, r3
 8005974:	2b01      	cmp	r3, #1
 8005976:	bf14      	ite	ne
 8005978:	2301      	movne	r3, #1
 800597a:	2300      	moveq	r3, #0
 800597c:	b2db      	uxtb	r3, r3
 800597e:	2b00      	cmp	r3, #0
 8005980:	d001      	beq.n	8005986 <HAL_TIM_PWM_Start+0x72>
  {
    return HAL_ERROR;
 8005982:	2301      	movs	r3, #1
 8005984:	e07c      	b.n	8005a80 <HAL_TIM_PWM_Start+0x16c>
  }

  /* Set the TIM channel state */
  TIM_CHANNEL_STATE_SET(htim, Channel, HAL_TIM_CHANNEL_STATE_BUSY);
 8005986:	683b      	ldr	r3, [r7, #0]
 8005988:	2b00      	cmp	r3, #0
 800598a:	d104      	bne.n	8005996 <HAL_TIM_PWM_Start+0x82>
 800598c:	687b      	ldr	r3, [r7, #4]
 800598e:	2202      	movs	r2, #2
 8005990:	f883 203e 	strb.w	r2, [r3, #62]	@ 0x3e
 8005994:	e013      	b.n	80059be <HAL_TIM_PWM_Start+0xaa>
 8005996:	683b      	ldr	r3, [r7, #0]
 8005998:	2b04      	cmp	r3, #4
 800599a:	d104      	bne.n	80059a6 <HAL_TIM_PWM_Start+0x92>
 800599c:	687b      	ldr	r3, [r7, #4]
 800599e:	2202      	movs	r2, #2
 80059a0:	f883 203f 	strb.w	r2, [r3, #63]	@ 0x3f
 80059a4:	e00b      	b.n	80059be <HAL_TIM_PWM_Start+0xaa>
 80059a6:	683b      	ldr	r3, [r7, #0]
 80059a8:	2b08      	cmp	r3, #8
 80059aa:	d104      	bne.n	80059b6 <HAL_TIM_PWM_Start+0xa2>
 80059ac:	687b      	ldr	r3, [r7, #4]
 80059ae:	2202      	movs	r2, #2
 80059b0:	f883 2040 	strb.w	r2, [r3, #64]	@ 0x40
 80059b4:	e003      	b.n	80059be <HAL_TIM_PWM_Start+0xaa>
 80059b6:	687b      	ldr	r3, [r7, #4]
 80059b8:	2202      	movs	r2, #2
 80059ba:	f883 2041 	strb.w	r2, [r3, #65]	@ 0x41

  /* Enable the Capture compare channel */
  TIM_CCxChannelCmd(htim->Instance, Channel, TIM_CCx_ENABLE);
 80059be:	687b      	ldr	r3, [r7, #4]
 80059c0:	681b      	ldr	r3, [r3, #0]
 80059c2:	2201      	movs	r2, #1
 80059c4:	6839      	ldr	r1, [r7, #0]
 80059c6:	4618      	mov	r0, r3
 80059c8:	f000 fdfe 	bl	80065c8 <TIM_CCxChannelCmd>

  if (IS_TIM_BREAK_INSTANCE(htim->Instance) != RESET)
 80059cc:	687b      	ldr	r3, [r7, #4]
 80059ce:	681b      	ldr	r3, [r3, #0]
 80059d0:	4a2d      	ldr	r2, [pc, #180]	@ (8005a88 <HAL_TIM_PWM_Start+0x174>)
 80059d2:	4293      	cmp	r3, r2
 80059d4:	d004      	beq.n	80059e0 <HAL_TIM_PWM_Start+0xcc>
 80059d6:	687b      	ldr	r3, [r7, #4]
 80059d8:	681b      	ldr	r3, [r3, #0]
 80059da:	4a2c      	ldr	r2, [pc, #176]	@ (8005a8c <HAL_TIM_PWM_Start+0x178>)
 80059dc:	4293      	cmp	r3, r2
 80059de:	d101      	bne.n	80059e4 <HAL_TIM_PWM_Start+0xd0>
 80059e0:	2301      	movs	r3, #1
 80059e2:	e000      	b.n	80059e6 <HAL_TIM_PWM_Start+0xd2>
 80059e4:	2300      	movs	r3, #0
 80059e6:	2b00      	cmp	r3, #0
 80059e8:	d007      	beq.n	80059fa <HAL_TIM_PWM_Start+0xe6>
  {
    /* Enable the main output */
    __HAL_TIM_MOE_ENABLE(htim);
 80059ea:	687b      	ldr	r3, [r7, #4]
 80059ec:	681b      	ldr	r3, [r3, #0]
 80059ee:	6c5a      	ldr	r2, [r3, #68]	@ 0x44
 80059f0:	687b      	ldr	r3, [r7, #4]
 80059f2:	681b      	ldr	r3, [r3, #0]
 80059f4:	f442 4200 	orr.w	r2, r2, #32768	@ 0x8000
 80059f8:	645a      	str	r2, [r3, #68]	@ 0x44
  }

  /* Enable the Peripheral, except in trigger mode where enable is automatically done with trigger */
  if (IS_TIM_SLAVE_INSTANCE(htim->Instance))
 80059fa:	687b      	ldr	r3, [r7, #4]
 80059fc:	681b      	ldr	r3, [r3, #0]
 80059fe:	4a22      	ldr	r2, [pc, #136]	@ (8005a88 <HAL_TIM_PWM_Start+0x174>)
 8005a00:	4293      	cmp	r3, r2
 8005a02:	d022      	beq.n	8005a4a <HAL_TIM_PWM_Start+0x136>
 8005a04:	687b      	ldr	r3, [r7, #4]
 8005a06:	681b      	ldr	r3, [r3, #0]
 8005a08:	f1b3 4f80 	cmp.w	r3, #1073741824	@ 0x40000000
 8005a0c:	d01d      	beq.n	8005a4a <HAL_TIM_PWM_Start+0x136>
 8005a0e:	687b      	ldr	r3, [r7, #4]
 8005a10:	681b      	ldr	r3, [r3, #0]
 8005a12:	4a1f      	ldr	r2, [pc, #124]	@ (8005a90 <HAL_TIM_PWM_Start+0x17c>)
 8005a14:	4293      	cmp	r3, r2
 8005a16:	d018      	beq.n	8005a4a <HAL_TIM_PWM_Start+0x136>
 8005a18:	687b      	ldr	r3, [r7, #4]
 8005a1a:	681b      	ldr	r3, [r3, #0]
 8005a1c:	4a1d      	ldr	r2, [pc, #116]	@ (8005a94 <HAL_TIM_PWM_Start+0x180>)
 8005a1e:	4293      	cmp	r3, r2
 8005a20:	d013      	beq.n	8005a4a <HAL_TIM_PWM_Start+0x136>
 8005a22:	687b      	ldr	r3, [r7, #4]
 8005a24:	681b      	ldr	r3, [r3, #0]
 8005a26:	4a1c      	ldr	r2, [pc, #112]	@ (8005a98 <HAL_TIM_PWM_Start+0x184>)
 8005a28:	4293      	cmp	r3, r2
 8005a2a:	d00e      	beq.n	8005a4a <HAL_TIM_PWM_Start+0x136>
 8005a2c:	687b      	ldr	r3, [r7, #4]
 8005a2e:	681b      	ldr	r3, [r3, #0]
 8005a30:	4a16      	ldr	r2, [pc, #88]	@ (8005a8c <HAL_TIM_PWM_Start+0x178>)
 8005a32:	4293      	cmp	r3, r2
 8005a34:	d009      	beq.n	8005a4a <HAL_TIM_PWM_Start+0x136>
 8005a36:	687b      	ldr	r3, [r7, #4]
 8005a38:	681b      	ldr	r3, [r3, #0]
 8005a3a:	4a18      	ldr	r2, [pc, #96]	@ (8005a9c <HAL_TIM_PWM_Start+0x188>)
 8005a3c:	4293      	cmp	r3, r2
 8005a3e:	d004      	beq.n	8005a4a <HAL_TIM_PWM_Start+0x136>
 8005a40:	687b      	ldr	r3, [r7, #4]
 8005a42:	681b      	ldr	r3, [r3, #0]
 8005a44:	4a16      	ldr	r2, [pc, #88]	@ (8005aa0 <HAL_TIM_PWM_Start+0x18c>)
 8005a46:	4293      	cmp	r3, r2
 8005a48:	d111      	bne.n	8005a6e <HAL_TIM_PWM_Start+0x15a>
  {
    tmpsmcr = htim->Instance->SMCR & TIM_SMCR_SMS;
 8005a4a:	687b      	ldr	r3, [r7, #4]
 8005a4c:	681b      	ldr	r3, [r3, #0]
 8005a4e:	689b      	ldr	r3, [r3, #8]
 8005a50:	f003 0307 	and.w	r3, r3, #7
 8005a54:	60fb      	str	r3, [r7, #12]
    if (!IS_TIM_SLAVEMODE_TRIGGER_ENABLED(tmpsmcr))
 8005a56:	68fb      	ldr	r3, [r7, #12]
 8005a58:	2b06      	cmp	r3, #6
 8005a5a:	d010      	beq.n	8005a7e <HAL_TIM_PWM_Start+0x16a>
    {
      __HAL_TIM_ENABLE(htim);
 8005a5c:	687b      	ldr	r3, [r7, #4]
 8005a5e:	681b      	ldr	r3, [r3, #0]
 8005a60:	681a      	ldr	r2, [r3, #0]
 8005a62:	687b      	ldr	r3, [r7, #4]
 8005a64:	681b      	ldr	r3, [r3, #0]
 8005a66:	f042 0201 	orr.w	r2, r2, #1
 8005a6a:	601a      	str	r2, [r3, #0]
    if (!IS_TIM_SLAVEMODE_TRIGGER_ENABLED(tmpsmcr))
 8005a6c:	e007      	b.n	8005a7e <HAL_TIM_PWM_Start+0x16a>
    }
  }
  else
  {
    __HAL_TIM_ENABLE(htim);
 8005a6e:	687b      	ldr	r3, [r7, #4]
 8005a70:	681b      	ldr	r3, [r3, #0]
 8005a72:	681a      	ldr	r2, [r3, #0]
 8005a74:	687b      	ldr	r3, [r7, #4]
 8005a76:	681b      	ldr	r3, [r3, #0]
 8005a78:	f042 0201 	orr.w	r2, r2, #1
 8005a7c:	601a      	str	r2, [r3, #0]
  }

  /* Return function status */
  return HAL_OK;
 8005a7e:	2300      	movs	r3, #0
}
 8005a80:	4618      	mov	r0, r3
 8005a82:	3710      	adds	r7, #16
 8005a84:	46bd      	mov	sp, r7
 8005a86:	bd80      	pop	{r7, pc}
 8005a88:	40010000 	.word	0x40010000
 8005a8c:	40010400 	.word	0x40010400
 8005a90:	40000400 	.word	0x40000400
 8005a94:	40000800 	.word	0x40000800
 8005a98:	40000c00 	.word	0x40000c00
 8005a9c:	40014000 	.word	0x40014000
 8005aa0:	40001800 	.word	0x40001800

08005aa4 <HAL_TIM_IRQHandler>:
  * @brief  This function handles TIM interrupts requests.
  * @param  htim TIM  handle
  * @retval None
  */
void HAL_TIM_IRQHandler(TIM_HandleTypeDef *htim)
{
 8005aa4:	b580      	push	{r7, lr}
 8005aa6:	b084      	sub	sp, #16
 8005aa8:	af00      	add	r7, sp, #0
 8005aaa:	6078      	str	r0, [r7, #4]
  uint32_t itsource = htim->Instance->DIER;
 8005aac:	687b      	ldr	r3, [r7, #4]
 8005aae:	681b      	ldr	r3, [r3, #0]
 8005ab0:	68db      	ldr	r3, [r3, #12]
 8005ab2:	60fb      	str	r3, [r7, #12]
  uint32_t itflag   = htim->Instance->SR;
 8005ab4:	687b      	ldr	r3, [r7, #4]
 8005ab6:	681b      	ldr	r3, [r3, #0]
 8005ab8:	691b      	ldr	r3, [r3, #16]
 8005aba:	60bb      	str	r3, [r7, #8]

  /* Capture compare 1 event */
  if ((itflag & (TIM_FLAG_CC1)) == (TIM_FLAG_CC1))
 8005abc:	68bb      	ldr	r3, [r7, #8]
 8005abe:	f003 0302 	and.w	r3, r3, #2
 8005ac2:	2b00      	cmp	r3, #0
 8005ac4:	d020      	beq.n	8005b08 <HAL_TIM_IRQHandler+0x64>
  {
    if ((itsource & (TIM_IT_CC1)) == (TIM_IT_CC1))
 8005ac6:	68fb      	ldr	r3, [r7, #12]
 8005ac8:	f003 0302 	and.w	r3, r3, #2
 8005acc:	2b00      	cmp	r3, #0
 8005ace:	d01b      	beq.n	8005b08 <HAL_TIM_IRQHandler+0x64>
    {
      {
        __HAL_TIM_CLEAR_FLAG(htim, TIM_FLAG_CC1);
 8005ad0:	687b      	ldr	r3, [r7, #4]
 8005ad2:	681b      	ldr	r3, [r3, #0]
 8005ad4:	f06f 0202 	mvn.w	r2, #2
 8005ad8:	611a      	str	r2, [r3, #16]
        htim->Channel = HAL_TIM_ACTIVE_CHANNEL_1;
 8005ada:	687b      	ldr	r3, [r7, #4]
 8005adc:	2201      	movs	r2, #1
 8005ade:	771a      	strb	r2, [r3, #28]

        /* Input capture event */
        if ((htim->Instance->CCMR1 & TIM_CCMR1_CC1S) != 0x00U)
 8005ae0:	687b      	ldr	r3, [r7, #4]
 8005ae2:	681b      	ldr	r3, [r3, #0]
 8005ae4:	699b      	ldr	r3, [r3, #24]
 8005ae6:	f003 0303 	and.w	r3, r3, #3
 8005aea:	2b00      	cmp	r3, #0
 8005aec:	d003      	beq.n	8005af6 <HAL_TIM_IRQHandler+0x52>
        {
#if (USE_HAL_TIM_REGISTER_CALLBACKS == 1)
          htim->IC_CaptureCallback(htim);
#else
          HAL_TIM_IC_CaptureCallback(htim);
 8005aee:	6878      	ldr	r0, [r7, #4]
 8005af0:	f000 fa5b 	bl	8005faa <HAL_TIM_IC_CaptureCallback>
 8005af4:	e005      	b.n	8005b02 <HAL_TIM_IRQHandler+0x5e>
        {
#if (USE_HAL_TIM_REGISTER_CALLBACKS == 1)
          htim->OC_DelayElapsedCallback(htim);
          htim->PWM_PulseFinishedCallback(htim);
#else
          HAL_TIM_OC_DelayElapsedCallback(htim);
 8005af6:	6878      	ldr	r0, [r7, #4]
 8005af8:	f000 fa4d 	bl	8005f96 <HAL_TIM_OC_DelayElapsedCallback>
          HAL_TIM_PWM_PulseFinishedCallback(htim);
 8005afc:	6878      	ldr	r0, [r7, #4]
 8005afe:	f000 fa5e 	bl	8005fbe <HAL_TIM_PWM_PulseFinishedCallback>
#endif /* USE_HAL_TIM_REGISTER_CALLBACKS */
        }
        htim->Channel = HAL_TIM_ACTIVE_CHANNEL_CLEARED;
 8005b02:	687b      	ldr	r3, [r7, #4]
 8005b04:	2200      	movs	r2, #0
 8005b06:	771a      	strb	r2, [r3, #28]
      }
    }
  }
  /* Capture compare 2 event */
  if ((itflag & (TIM_FLAG_CC2)) == (TIM_FLAG_CC2))
 8005b08:	68bb      	ldr	r3, [r7, #8]
 8005b0a:	f003 0304 	and.w	r3, r3, #4
 8005b0e:	2b00      	cmp	r3, #0
 8005b10:	d020      	beq.n	8005b54 <HAL_TIM_IRQHandler+0xb0>
  {
    if ((itsource & (TIM_IT_CC2)) == (TIM_IT_CC2))
 8005b12:	68fb      	ldr	r3, [r7, #12]
 8005b14:	f003 0304 	and.w	r3, r3, #4
 8005b18:	2b00      	cmp	r3, #0
 8005b1a:	d01b      	beq.n	8005b54 <HAL_TIM_IRQHandler+0xb0>
    {
      __HAL_TIM_CLEAR_FLAG(htim, TIM_FLAG_CC2);
 8005b1c:	687b      	ldr	r3, [r7, #4]
 8005b1e:	681b      	ldr	r3, [r3, #0]
 8005b20:	f06f 0204 	mvn.w	r2, #4
 8005b24:	611a      	str	r2, [r3, #16]
      htim->Channel = HAL_TIM_ACTIVE_CHANNEL_2;
 8005b26:	687b      	ldr	r3, [r7, #4]
 8005b28:	2202      	movs	r2, #2
 8005b2a:	771a      	strb	r2, [r3, #28]
      /* Input capture event */
      if ((htim->Instance->CCMR1 & TIM_CCMR1_CC2S) != 0x00U)
 8005b2c:	687b      	ldr	r3, [r7, #4]
 8005b2e:	681b      	ldr	r3, [r3, #0]
 8005b30:	699b      	ldr	r3, [r3, #24]
 8005b32:	f403 7340 	and.w	r3, r3, #768	@ 0x300
 8005b36:	2b00      	cmp	r3, #0
 8005b38:	d003      	beq.n	8005b42 <HAL_TIM_IRQHandler+0x9e>
      {
#if (USE_HAL_TIM_REGISTER_CALLBACKS == 1)
        htim->IC_CaptureCallback(htim);
#else
        HAL_TIM_IC_CaptureCallback(htim);
 8005b3a:	6878      	ldr	r0, [r7, #4]
 8005b3c:	f000 fa35 	bl	8005faa <HAL_TIM_IC_CaptureCallback>
 8005b40:	e005      	b.n	8005b4e <HAL_TIM_IRQHandler+0xaa>
      {
#if (USE_HAL_TIM_REGISTER_CALLBACKS == 1)
        htim->OC_DelayElapsedCallback(htim);
        htim->PWM_PulseFinishedCallback(htim);
#else
        HAL_TIM_OC_DelayElapsedCallback(htim);
 8005b42:	6878      	ldr	r0, [r7, #4]
 8005b44:	f000 fa27 	bl	8005f96 <HAL_TIM_OC_DelayElapsedCallback>
        HAL_TIM_PWM_PulseFinishedCallback(htim);
 8005b48:	6878      	ldr	r0, [r7, #4]
 8005b4a:	f000 fa38 	bl	8005fbe <HAL_TIM_PWM_PulseFinishedCallback>
#endif /* USE_HAL_TIM_REGISTER_CALLBACKS */
      }
      htim->Channel = HAL_TIM_ACTIVE_CHANNEL_CLEARED;
 8005b4e:	687b      	ldr	r3, [r7, #4]
 8005b50:	2200      	movs	r2, #0
 8005b52:	771a      	strb	r2, [r3, #28]
    }
  }
  /* Capture compare 3 event */
  if ((itflag & (TIM_FLAG_CC3)) == (TIM_FLAG_CC3))
 8005b54:	68bb      	ldr	r3, [r7, #8]
 8005b56:	f003 0308 	and.w	r3, r3, #8
 8005b5a:	2b00      	cmp	r3, #0
 8005b5c:	d020      	beq.n	8005ba0 <HAL_TIM_IRQHandler+0xfc>
  {
    if ((itsource & (TIM_IT_CC3)) == (TIM_IT_CC3))
 8005b5e:	68fb      	ldr	r3, [r7, #12]
 8005b60:	f003 0308 	and.w	r3, r3, #8
 8005b64:	2b00      	cmp	r3, #0
 8005b66:	d01b      	beq.n	8005ba0 <HAL_TIM_IRQHandler+0xfc>
    {
      __HAL_TIM_CLEAR_FLAG(htim, TIM_FLAG_CC3);
 8005b68:	687b      	ldr	r3, [r7, #4]
 8005b6a:	681b      	ldr	r3, [r3, #0]
 8005b6c:	f06f 0208 	mvn.w	r2, #8
 8005b70:	611a      	str	r2, [r3, #16]
      htim->Channel = HAL_TIM_ACTIVE_CHANNEL_3;
 8005b72:	687b      	ldr	r3, [r7, #4]
 8005b74:	2204      	movs	r2, #4
 8005b76:	771a      	strb	r2, [r3, #28]
      /* Input capture event */
      if ((htim->Instance->CCMR2 & TIM_CCMR2_CC3S) != 0x00U)
 8005b78:	687b      	ldr	r3, [r7, #4]
 8005b7a:	681b      	ldr	r3, [r3, #0]
 8005b7c:	69db      	ldr	r3, [r3, #28]
 8005b7e:	f003 0303 	and.w	r3, r3, #3
 8005b82:	2b00      	cmp	r3, #0
 8005b84:	d003      	beq.n	8005b8e <HAL_TIM_IRQHandler+0xea>
      {
#if (USE_HAL_TIM_REGISTER_CALLBACKS == 1)
        htim->IC_CaptureCallback(htim);
#else
        HAL_TIM_IC_CaptureCallback(htim);
 8005b86:	6878      	ldr	r0, [r7, #4]
 8005b88:	f000 fa0f 	bl	8005faa <HAL_TIM_IC_CaptureCallback>
 8005b8c:	e005      	b.n	8005b9a <HAL_TIM_IRQHandler+0xf6>
      {
#if (USE_HAL_TIM_REGISTER_CALLBACKS == 1)
        htim->OC_DelayElapsedCallback(htim);
        htim->PWM_PulseFinishedCallback(htim);
#else
        HAL_TIM_OC_DelayElapsedCallback(htim);
 8005b8e:	6878      	ldr	r0, [r7, #4]
 8005b90:	f000 fa01 	bl	8005f96 <HAL_TIM_OC_DelayElapsedCallback>
        HAL_TIM_PWM_PulseFinishedCallback(htim);
 8005b94:	6878      	ldr	r0, [r7, #4]
 8005b96:	f000 fa12 	bl	8005fbe <HAL_TIM_PWM_PulseFinishedCallback>
#endif /* USE_HAL_TIM_REGISTER_CALLBACKS */
      }
      htim->Channel = HAL_TIM_ACTIVE_CHANNEL_CLEARED;
 8005b9a:	687b      	ldr	r3, [r7, #4]
 8005b9c:	2200      	movs	r2, #0
 8005b9e:	771a      	strb	r2, [r3, #28]
    }
  }
  /* Capture compare 4 event */
  if ((itflag & (TIM_FLAG_CC4)) == (TIM_FLAG_CC4))
 8005ba0:	68bb      	ldr	r3, [r7, #8]
 8005ba2:	f003 0310 	and.w	r3, r3, #16
 8005ba6:	2b00      	cmp	r3, #0
 8005ba8:	d020      	beq.n	8005bec <HAL_TIM_IRQHandler+0x148>
  {
    if ((itsource & (TIM_IT_CC4)) == (TIM_IT_CC4))
 8005baa:	68fb      	ldr	r3, [r7, #12]
 8005bac:	f003 0310 	and.w	r3, r3, #16
 8005bb0:	2b00      	cmp	r3, #0
 8005bb2:	d01b      	beq.n	8005bec <HAL_TIM_IRQHandler+0x148>
    {
      __HAL_TIM_CLEAR_FLAG(htim, TIM_FLAG_CC4);
 8005bb4:	687b      	ldr	r3, [r7, #4]
 8005bb6:	681b      	ldr	r3, [r3, #0]
 8005bb8:	f06f 0210 	mvn.w	r2, #16
 8005bbc:	611a      	str	r2, [r3, #16]
      htim->Channel = HAL_TIM_ACTIVE_CHANNEL_4;
 8005bbe:	687b      	ldr	r3, [r7, #4]
 8005bc0:	2208      	movs	r2, #8
 8005bc2:	771a      	strb	r2, [r3, #28]
      /* Input capture event */
      if ((htim->Instance->CCMR2 & TIM_CCMR2_CC4S) != 0x00U)
 8005bc4:	687b      	ldr	r3, [r7, #4]
 8005bc6:	681b      	ldr	r3, [r3, #0]
 8005bc8:	69db      	ldr	r3, [r3, #28]
 8005bca:	f403 7340 	and.w	r3, r3, #768	@ 0x300
 8005bce:	2b00      	cmp	r3, #0
 8005bd0:	d003      	beq.n	8005bda <HAL_TIM_IRQHandler+0x136>
      {
#if (USE_HAL_TIM_REGISTER_CALLBACKS == 1)
        htim->IC_CaptureCallback(htim);
#else
        HAL_TIM_IC_CaptureCallback(htim);
 8005bd2:	6878      	ldr	r0, [r7, #4]
 8005bd4:	f000 f9e9 	bl	8005faa <HAL_TIM_IC_CaptureCallback>
 8005bd8:	e005      	b.n	8005be6 <HAL_TIM_IRQHandler+0x142>
      {
#if (USE_HAL_TIM_REGISTER_CALLBACKS == 1)
        htim->OC_DelayElapsedCallback(htim);
        htim->PWM_PulseFinishedCallback(htim);
#else
        HAL_TIM_OC_DelayElapsedCallback(htim);
 8005bda:	6878      	ldr	r0, [r7, #4]
 8005bdc:	f000 f9db 	bl	8005f96 <HAL_TIM_OC_DelayElapsedCallback>
        HAL_TIM_PWM_PulseFinishedCallback(htim);
 8005be0:	6878      	ldr	r0, [r7, #4]
 8005be2:	f000 f9ec 	bl	8005fbe <HAL_TIM_PWM_PulseFinishedCallback>
#endif /* USE_HAL_TIM_REGISTER_CALLBACKS */
      }
      htim->Channel = HAL_TIM_ACTIVE_CHANNEL_CLEARED;
 8005be6:	687b      	ldr	r3, [r7, #4]
 8005be8:	2200      	movs	r2, #0
 8005bea:	771a      	strb	r2, [r3, #28]
    }
  }
  /* TIM Update event */
  if ((itflag & (TIM_FLAG_UPDATE)) == (TIM_FLAG_UPDATE))
 8005bec:	68bb      	ldr	r3, [r7, #8]
 8005bee:	f003 0301 	and.w	r3, r3, #1
 8005bf2:	2b00      	cmp	r3, #0
 8005bf4:	d00c      	beq.n	8005c10 <HAL_TIM_IRQHandler+0x16c>
  {
    if ((itsource & (TIM_IT_UPDATE)) == (TIM_IT_UPDATE))
 8005bf6:	68fb      	ldr	r3, [r7, #12]
 8005bf8:	f003 0301 	and.w	r3, r3, #1
 8005bfc:	2b00      	cmp	r3, #0
 8005bfe:	d007      	beq.n	8005c10 <HAL_TIM_IRQHandler+0x16c>
    {
      __HAL_TIM_CLEAR_FLAG(htim, TIM_FLAG_UPDATE);
 8005c00:	687b      	ldr	r3, [r7, #4]
 8005c02:	681b      	ldr	r3, [r3, #0]
 8005c04:	f06f 0201 	mvn.w	r2, #1
 8005c08:	611a      	str	r2, [r3, #16]
#if (USE_HAL_TIM_REGISTER_CALLBACKS == 1)
      htim->PeriodElapsedCallback(htim);
#else
      HAL_TIM_PeriodElapsedCallback(htim);
 8005c0a:	6878      	ldr	r0, [r7, #4]
 8005c0c:	f7fb fb98 	bl	8001340 <HAL_TIM_PeriodElapsedCallback>
#endif /* USE_HAL_TIM_REGISTER_CALLBACKS */
    }
  }
  /* TIM Break input event */
  if ((itflag & (TIM_FLAG_BREAK)) == (TIM_FLAG_BREAK))
 8005c10:	68bb      	ldr	r3, [r7, #8]
 8005c12:	f003 0380 	and.w	r3, r3, #128	@ 0x80
 8005c16:	2b00      	cmp	r3, #0
 8005c18:	d00c      	beq.n	8005c34 <HAL_TIM_IRQHandler+0x190>
  {
    if ((itsource & (TIM_IT_BREAK)) == (TIM_IT_BREAK))
 8005c1a:	68fb      	ldr	r3, [r7, #12]
 8005c1c:	f003 0380 	and.w	r3, r3, #128	@ 0x80
 8005c20:	2b00      	cmp	r3, #0
 8005c22:	d007      	beq.n	8005c34 <HAL_TIM_IRQHandler+0x190>
    {
      __HAL_TIM_CLEAR_FLAG(htim, TIM_FLAG_BREAK);
 8005c24:	687b      	ldr	r3, [r7, #4]
 8005c26:	681b      	ldr	r3, [r3, #0]
 8005c28:	f06f 0280 	mvn.w	r2, #128	@ 0x80
 8005c2c:	611a      	str	r2, [r3, #16]
#if (USE_HAL_TIM_REGISTER_CALLBACKS == 1)
      htim->BreakCallback(htim);
#else
      HAL_TIMEx_BreakCallback(htim);
 8005c2e:	6878      	ldr	r0, [r7, #4]
 8005c30:	f000 fdc8 	bl	80067c4 <HAL_TIMEx_BreakCallback>
#endif /* USE_HAL_TIM_REGISTER_CALLBACKS */
    }
  }
  /* TIM Trigger detection event */
  if ((itflag & (TIM_FLAG_TRIGGER)) == (TIM_FLAG_TRIGGER))
 8005c34:	68bb      	ldr	r3, [r7, #8]
 8005c36:	f003 0340 	and.w	r3, r3, #64	@ 0x40
 8005c3a:	2b00      	cmp	r3, #0
 8005c3c:	d00c      	beq.n	8005c58 <HAL_TIM_IRQHandler+0x1b4>
  {
    if ((itsource & (TIM_IT_TRIGGER)) == (TIM_IT_TRIGGER))
 8005c3e:	68fb      	ldr	r3, [r7, #12]
 8005c40:	f003 0340 	and.w	r3, r3, #64	@ 0x40
 8005c44:	2b00      	cmp	r3, #0
 8005c46:	d007      	beq.n	8005c58 <HAL_TIM_IRQHandler+0x1b4>
    {
      __HAL_TIM_CLEAR_FLAG(htim, TIM_FLAG_TRIGGER);
 8005c48:	687b      	ldr	r3, [r7, #4]
 8005c4a:	681b      	ldr	r3, [r3, #0]
 8005c4c:	f06f 0240 	mvn.w	r2, #64	@ 0x40
 8005c50:	611a      	str	r2, [r3, #16]
#if (USE_HAL_TIM_REGISTER_CALLBACKS == 1)
      htim->TriggerCallback(htim);
#else
      HAL_TIM_TriggerCallback(htim);
 8005c52:	6878      	ldr	r0, [r7, #4]
 8005c54:	f000 f9bd 	bl	8005fd2 <HAL_TIM_TriggerCallback>
#endif /* USE_HAL_TIM_REGISTER_CALLBACKS */
    }
  }
  /* TIM commutation event */
  if ((itflag & (TIM_FLAG_COM)) == (TIM_FLAG_COM))
 8005c58:	68bb      	ldr	r3, [r7, #8]
 8005c5a:	f003 0320 	and.w	r3, r3, #32
 8005c5e:	2b00      	cmp	r3, #0
 8005c60:	d00c      	beq.n	8005c7c <HAL_TIM_IRQHandler+0x1d8>
  {
    if ((itsource & (TIM_IT_COM)) == (TIM_IT_COM))
 8005c62:	68fb      	ldr	r3, [r7, #12]
 8005c64:	f003 0320 	and.w	r3, r3, #32
 8005c68:	2b00      	cmp	r3, #0
 8005c6a:	d007      	beq.n	8005c7c <HAL_TIM_IRQHandler+0x1d8>
    {
      __HAL_TIM_CLEAR_FLAG(htim, TIM_FLAG_COM);
 8005c6c:	687b      	ldr	r3, [r7, #4]
 8005c6e:	681b      	ldr	r3, [r3, #0]
 8005c70:	f06f 0220 	mvn.w	r2, #32
 8005c74:	611a      	str	r2, [r3, #16]
#if (USE_HAL_TIM_REGISTER_CALLBACKS == 1)
      htim->CommutationCallback(htim);
#else
      HAL_TIMEx_CommutCallback(htim);
 8005c76:	6878      	ldr	r0, [r7, #4]
 8005c78:	f000 fd9a 	bl	80067b0 <HAL_TIMEx_CommutCallback>
#endif /* USE_HAL_TIM_REGISTER_CALLBACKS */
    }
  }
}
 8005c7c:	bf00      	nop
 8005c7e:	3710      	adds	r7, #16
 8005c80:	46bd      	mov	sp, r7
 8005c82:	bd80      	pop	{r7, pc}

08005c84 <HAL_TIM_PWM_ConfigChannel>:
  * @retval HAL status
  */
HAL_StatusTypeDef HAL_TIM_PWM_ConfigChannel(TIM_HandleTypeDef *htim,
                                            const TIM_OC_InitTypeDef *sConfig,
                                            uint32_t Channel)
{
 8005c84:	b580      	push	{r7, lr}
 8005c86:	b086      	sub	sp, #24
 8005c88:	af00      	add	r7, sp, #0
 8005c8a:	60f8      	str	r0, [r7, #12]
 8005c8c:	60b9      	str	r1, [r7, #8]
 8005c8e:	607a      	str	r2, [r7, #4]
  HAL_StatusTypeDef status = HAL_OK;
 8005c90:	2300      	movs	r3, #0
 8005c92:	75fb      	strb	r3, [r7, #23]
  assert_param(IS_TIM_PWM_MODE(sConfig->OCMode));
  assert_param(IS_TIM_OC_POLARITY(sConfig->OCPolarity));
  assert_param(IS_TIM_FAST_STATE(sConfig->OCFastMode));

  /* Process Locked */
  __HAL_LOCK(htim);
 8005c94:	68fb      	ldr	r3, [r7, #12]
 8005c96:	f893 303c 	ldrb.w	r3, [r3, #60]	@ 0x3c
 8005c9a:	2b01      	cmp	r3, #1
 8005c9c:	d101      	bne.n	8005ca2 <HAL_TIM_PWM_ConfigChannel+0x1e>
 8005c9e:	2302      	movs	r3, #2
 8005ca0:	e0ae      	b.n	8005e00 <HAL_TIM_PWM_ConfigChannel+0x17c>
 8005ca2:	68fb      	ldr	r3, [r7, #12]
 8005ca4:	2201      	movs	r2, #1
 8005ca6:	f883 203c 	strb.w	r2, [r3, #60]	@ 0x3c

  switch (Channel)
 8005caa:	687b      	ldr	r3, [r7, #4]
 8005cac:	2b0c      	cmp	r3, #12
 8005cae:	f200 809f 	bhi.w	8005df0 <HAL_TIM_PWM_ConfigChannel+0x16c>
 8005cb2:	a201      	add	r2, pc, #4	@ (adr r2, 8005cb8 <HAL_TIM_PWM_ConfigChannel+0x34>)
 8005cb4:	f852 f023 	ldr.w	pc, [r2, r3, lsl #2]
 8005cb8:	08005ced 	.word	0x08005ced
 8005cbc:	08005df1 	.word	0x08005df1
 8005cc0:	08005df1 	.word	0x08005df1
 8005cc4:	08005df1 	.word	0x08005df1
 8005cc8:	08005d2d 	.word	0x08005d2d
 8005ccc:	08005df1 	.word	0x08005df1
 8005cd0:	08005df1 	.word	0x08005df1
 8005cd4:	08005df1 	.word	0x08005df1
 8005cd8:	08005d6f 	.word	0x08005d6f
 8005cdc:	08005df1 	.word	0x08005df1
 8005ce0:	08005df1 	.word	0x08005df1
 8005ce4:	08005df1 	.word	0x08005df1
 8005ce8:	08005daf 	.word	0x08005daf
    {
      /* Check the parameters */
      assert_param(IS_TIM_CC1_INSTANCE(htim->Instance));

      /* Configure the Channel 1 in PWM mode */
      TIM_OC1_SetConfig(htim->Instance, sConfig);
 8005cec:	68fb      	ldr	r3, [r7, #12]
 8005cee:	681b      	ldr	r3, [r3, #0]
 8005cf0:	68b9      	ldr	r1, [r7, #8]
 8005cf2:	4618      	mov	r0, r3
 8005cf4:	f000 fa1e 	bl	8006134 <TIM_OC1_SetConfig>

      /* Set the Preload enable bit for channel1 */
      htim->Instance->CCMR1 |= TIM_CCMR1_OC1PE;
 8005cf8:	68fb      	ldr	r3, [r7, #12]
 8005cfa:	681b      	ldr	r3, [r3, #0]
 8005cfc:	699a      	ldr	r2, [r3, #24]
 8005cfe:	68fb      	ldr	r3, [r7, #12]
 8005d00:	681b      	ldr	r3, [r3, #0]
 8005d02:	f042 0208 	orr.w	r2, r2, #8
 8005d06:	619a      	str	r2, [r3, #24]

      /* Configure the Output Fast mode */
      htim->Instance->CCMR1 &= ~TIM_CCMR1_OC1FE;
 8005d08:	68fb      	ldr	r3, [r7, #12]
 8005d0a:	681b      	ldr	r3, [r3, #0]
 8005d0c:	699a      	ldr	r2, [r3, #24]
 8005d0e:	68fb      	ldr	r3, [r7, #12]
 8005d10:	681b      	ldr	r3, [r3, #0]
 8005d12:	f022 0204 	bic.w	r2, r2, #4
 8005d16:	619a      	str	r2, [r3, #24]
      htim->Instance->CCMR1 |= sConfig->OCFastMode;
 8005d18:	68fb      	ldr	r3, [r7, #12]
 8005d1a:	681b      	ldr	r3, [r3, #0]
 8005d1c:	6999      	ldr	r1, [r3, #24]
 8005d1e:	68bb      	ldr	r3, [r7, #8]
 8005d20:	691a      	ldr	r2, [r3, #16]
 8005d22:	68fb      	ldr	r3, [r7, #12]
 8005d24:	681b      	ldr	r3, [r3, #0]
 8005d26:	430a      	orrs	r2, r1
 8005d28:	619a      	str	r2, [r3, #24]
      break;
 8005d2a:	e064      	b.n	8005df6 <HAL_TIM_PWM_ConfigChannel+0x172>
    {
      /* Check the parameters */
      assert_param(IS_TIM_CC2_INSTANCE(htim->Instance));

      /* Configure the Channel 2 in PWM mode */
      TIM_OC2_SetConfig(htim->Instance, sConfig);
 8005d2c:	68fb      	ldr	r3, [r7, #12]
 8005d2e:	681b      	ldr	r3, [r3, #0]
 8005d30:	68b9      	ldr	r1, [r7, #8]
 8005d32:	4618      	mov	r0, r3
 8005d34:	f000 fa6e 	bl	8006214 <TIM_OC2_SetConfig>

      /* Set the Preload enable bit for channel2 */
      htim->Instance->CCMR1 |= TIM_CCMR1_OC2PE;
 8005d38:	68fb      	ldr	r3, [r7, #12]
 8005d3a:	681b      	ldr	r3, [r3, #0]
 8005d3c:	699a      	ldr	r2, [r3, #24]
 8005d3e:	68fb      	ldr	r3, [r7, #12]
 8005d40:	681b      	ldr	r3, [r3, #0]
 8005d42:	f442 6200 	orr.w	r2, r2, #2048	@ 0x800
 8005d46:	619a      	str	r2, [r3, #24]

      /* Configure the Output Fast mode */
      htim->Instance->CCMR1 &= ~TIM_CCMR1_OC2FE;
 8005d48:	68fb      	ldr	r3, [r7, #12]
 8005d4a:	681b      	ldr	r3, [r3, #0]
 8005d4c:	699a      	ldr	r2, [r3, #24]
 8005d4e:	68fb      	ldr	r3, [r7, #12]
 8005d50:	681b      	ldr	r3, [r3, #0]
 8005d52:	f422 6280 	bic.w	r2, r2, #1024	@ 0x400
 8005d56:	619a      	str	r2, [r3, #24]
      htim->Instance->CCMR1 |= sConfig->OCFastMode << 8U;
 8005d58:	68fb      	ldr	r3, [r7, #12]
 8005d5a:	681b      	ldr	r3, [r3, #0]
 8005d5c:	6999      	ldr	r1, [r3, #24]
 8005d5e:	68bb      	ldr	r3, [r7, #8]
 8005d60:	691b      	ldr	r3, [r3, #16]
 8005d62:	021a      	lsls	r2, r3, #8
 8005d64:	68fb      	ldr	r3, [r7, #12]
 8005d66:	681b      	ldr	r3, [r3, #0]
 8005d68:	430a      	orrs	r2, r1
 8005d6a:	619a      	str	r2, [r3, #24]
      break;
 8005d6c:	e043      	b.n	8005df6 <HAL_TIM_PWM_ConfigChannel+0x172>
    {
      /* Check the parameters */
      assert_param(IS_TIM_CC3_INSTANCE(htim->Instance));

      /* Configure the Channel 3 in PWM mode */
      TIM_OC3_SetConfig(htim->Instance, sConfig);
 8005d6e:	68fb      	ldr	r3, [r7, #12]
 8005d70:	681b      	ldr	r3, [r3, #0]
 8005d72:	68b9      	ldr	r1, [r7, #8]
 8005d74:	4618      	mov	r0, r3
 8005d76:	f000 fac3 	bl	8006300 <TIM_OC3_SetConfig>

      /* Set the Preload enable bit for channel3 */
      htim->Instance->CCMR2 |= TIM_CCMR2_OC3PE;
 8005d7a:	68fb      	ldr	r3, [r7, #12]
 8005d7c:	681b      	ldr	r3, [r3, #0]
 8005d7e:	69da      	ldr	r2, [r3, #28]
 8005d80:	68fb      	ldr	r3, [r7, #12]
 8005d82:	681b      	ldr	r3, [r3, #0]
 8005d84:	f042 0208 	orr.w	r2, r2, #8
 8005d88:	61da      	str	r2, [r3, #28]

      /* Configure the Output Fast mode */
      htim->Instance->CCMR2 &= ~TIM_CCMR2_OC3FE;
 8005d8a:	68fb      	ldr	r3, [r7, #12]
 8005d8c:	681b      	ldr	r3, [r3, #0]
 8005d8e:	69da      	ldr	r2, [r3, #28]
 8005d90:	68fb      	ldr	r3, [r7, #12]
 8005d92:	681b      	ldr	r3, [r3, #0]
 8005d94:	f022 0204 	bic.w	r2, r2, #4
 8005d98:	61da      	str	r2, [r3, #28]
      htim->Instance->CCMR2 |= sConfig->OCFastMode;
 8005d9a:	68fb      	ldr	r3, [r7, #12]
 8005d9c:	681b      	ldr	r3, [r3, #0]
 8005d9e:	69d9      	ldr	r1, [r3, #28]
 8005da0:	68bb      	ldr	r3, [r7, #8]
 8005da2:	691a      	ldr	r2, [r3, #16]
 8005da4:	68fb      	ldr	r3, [r7, #12]
 8005da6:	681b      	ldr	r3, [r3, #0]
 8005da8:	430a      	orrs	r2, r1
 8005daa:	61da      	str	r2, [r3, #28]
      break;
 8005dac:	e023      	b.n	8005df6 <HAL_TIM_PWM_ConfigChannel+0x172>
    {
      /* Check the parameters */
      assert_param(IS_TIM_CC4_INSTANCE(htim->Instance));

      /* Configure the Channel 4 in PWM mode */
      TIM_OC4_SetConfig(htim->Instance, sConfig);
 8005dae:	68fb      	ldr	r3, [r7, #12]
 8005db0:	681b      	ldr	r3, [r3, #0]
 8005db2:	68b9      	ldr	r1, [r7, #8]
 8005db4:	4618      	mov	r0, r3
 8005db6:	f000 fb17 	bl	80063e8 <TIM_OC4_SetConfig>

      /* Set the Preload enable bit for channel4 */
      htim->Instance->CCMR2 |= TIM_CCMR2_OC4PE;
 8005dba:	68fb      	ldr	r3, [r7, #12]
 8005dbc:	681b      	ldr	r3, [r3, #0]
 8005dbe:	69da      	ldr	r2, [r3, #28]
 8005dc0:	68fb      	ldr	r3, [r7, #12]
 8005dc2:	681b      	ldr	r3, [r3, #0]
 8005dc4:	f442 6200 	orr.w	r2, r2, #2048	@ 0x800
 8005dc8:	61da      	str	r2, [r3, #28]

      /* Configure the Output Fast mode */
      htim->Instance->CCMR2 &= ~TIM_CCMR2_OC4FE;
 8005dca:	68fb      	ldr	r3, [r7, #12]
 8005dcc:	681b      	ldr	r3, [r3, #0]
 8005dce:	69da      	ldr	r2, [r3, #28]
 8005dd0:	68fb      	ldr	r3, [r7, #12]
 8005dd2:	681b      	ldr	r3, [r3, #0]
 8005dd4:	f422 6280 	bic.w	r2, r2, #1024	@ 0x400
 8005dd8:	61da      	str	r2, [r3, #28]
      htim->Instance->CCMR2 |= sConfig->OCFastMode << 8U;
 8005dda:	68fb      	ldr	r3, [r7, #12]
 8005ddc:	681b      	ldr	r3, [r3, #0]
 8005dde:	69d9      	ldr	r1, [r3, #28]
 8005de0:	68bb      	ldr	r3, [r7, #8]
 8005de2:	691b      	ldr	r3, [r3, #16]
 8005de4:	021a      	lsls	r2, r3, #8
 8005de6:	68fb      	ldr	r3, [r7, #12]
 8005de8:	681b      	ldr	r3, [r3, #0]
 8005dea:	430a      	orrs	r2, r1
 8005dec:	61da      	str	r2, [r3, #28]
      break;
 8005dee:	e002      	b.n	8005df6 <HAL_TIM_PWM_ConfigChannel+0x172>
    }

    default:
      status = HAL_ERROR;
 8005df0:	2301      	movs	r3, #1
 8005df2:	75fb      	strb	r3, [r7, #23]
      break;
 8005df4:	bf00      	nop
  }

  __HAL_UNLOCK(htim);
 8005df6:	68fb      	ldr	r3, [r7, #12]
 8005df8:	2200      	movs	r2, #0
 8005dfa:	f883 203c 	strb.w	r2, [r3, #60]	@ 0x3c

  return status;
 8005dfe:	7dfb      	ldrb	r3, [r7, #23]
}
 8005e00:	4618      	mov	r0, r3
 8005e02:	3718      	adds	r7, #24
 8005e04:	46bd      	mov	sp, r7
 8005e06:	bd80      	pop	{r7, pc}

08005e08 <HAL_TIM_ConfigClockSource>:
  * @param  sClockSourceConfig pointer to a TIM_ClockConfigTypeDef structure that
  *         contains the clock source information for the TIM peripheral.
  * @retval HAL status
  */
HAL_StatusTypeDef HAL_TIM_ConfigClockSource(TIM_HandleTypeDef *htim, const TIM_ClockConfigTypeDef *sClockSourceConfig)
{
 8005e08:	b580      	push	{r7, lr}
 8005e0a:	b084      	sub	sp, #16
 8005e0c:	af00      	add	r7, sp, #0
 8005e0e:	6078      	str	r0, [r7, #4]
 8005e10:	6039      	str	r1, [r7, #0]
  HAL_StatusTypeDef status = HAL_OK;
 8005e12:	2300      	movs	r3, #0
 8005e14:	73fb      	strb	r3, [r7, #15]
  uint32_t tmpsmcr;

  /* Process Locked */
  __HAL_LOCK(htim);
 8005e16:	687b      	ldr	r3, [r7, #4]
 8005e18:	f893 303c 	ldrb.w	r3, [r3, #60]	@ 0x3c
 8005e1c:	2b01      	cmp	r3, #1
 8005e1e:	d101      	bne.n	8005e24 <HAL_TIM_ConfigClockSource+0x1c>
 8005e20:	2302      	movs	r3, #2
 8005e22:	e0b4      	b.n	8005f8e <HAL_TIM_ConfigClockSource+0x186>
 8005e24:	687b      	ldr	r3, [r7, #4]
 8005e26:	2201      	movs	r2, #1
 8005e28:	f883 203c 	strb.w	r2, [r3, #60]	@ 0x3c

  htim->State = HAL_TIM_STATE_BUSY;
 8005e2c:	687b      	ldr	r3, [r7, #4]
 8005e2e:	2202      	movs	r2, #2
 8005e30:	f883 203d 	strb.w	r2, [r3, #61]	@ 0x3d

  /* Check the parameters */
  assert_param(IS_TIM_CLOCKSOURCE(sClockSourceConfig->ClockSource));

  /* Reset the SMS, TS, ECE, ETPS and ETRF bits */
  tmpsmcr = htim->Instance->SMCR;
 8005e34:	687b      	ldr	r3, [r7, #4]
 8005e36:	681b      	ldr	r3, [r3, #0]
 8005e38:	689b      	ldr	r3, [r3, #8]
 8005e3a:	60bb      	str	r3, [r7, #8]
  tmpsmcr &= ~(TIM_SMCR_SMS | TIM_SMCR_TS);
 8005e3c:	68bb      	ldr	r3, [r7, #8]
 8005e3e:	f023 0377 	bic.w	r3, r3, #119	@ 0x77
 8005e42:	60bb      	str	r3, [r7, #8]
  tmpsmcr &= ~(TIM_SMCR_ETF | TIM_SMCR_ETPS | TIM_SMCR_ECE | TIM_SMCR_ETP);
 8005e44:	68bb      	ldr	r3, [r7, #8]
 8005e46:	f423 437f 	bic.w	r3, r3, #65280	@ 0xff00
 8005e4a:	60bb      	str	r3, [r7, #8]
  htim->Instance->SMCR = tmpsmcr;
 8005e4c:	687b      	ldr	r3, [r7, #4]
 8005e4e:	681b      	ldr	r3, [r3, #0]
 8005e50:	68ba      	ldr	r2, [r7, #8]
 8005e52:	609a      	str	r2, [r3, #8]

  switch (sClockSourceConfig->ClockSource)
 8005e54:	683b      	ldr	r3, [r7, #0]
 8005e56:	681b      	ldr	r3, [r3, #0]
 8005e58:	f5b3 5f00 	cmp.w	r3, #8192	@ 0x2000
 8005e5c:	d03e      	beq.n	8005edc <HAL_TIM_ConfigClockSource+0xd4>
 8005e5e:	f5b3 5f00 	cmp.w	r3, #8192	@ 0x2000
 8005e62:	f200 8087 	bhi.w	8005f74 <HAL_TIM_ConfigClockSource+0x16c>
 8005e66:	f5b3 5f80 	cmp.w	r3, #4096	@ 0x1000
 8005e6a:	f000 8086 	beq.w	8005f7a <HAL_TIM_ConfigClockSource+0x172>
 8005e6e:	f5b3 5f80 	cmp.w	r3, #4096	@ 0x1000
 8005e72:	d87f      	bhi.n	8005f74 <HAL_TIM_ConfigClockSource+0x16c>
 8005e74:	2b70      	cmp	r3, #112	@ 0x70
 8005e76:	d01a      	beq.n	8005eae <HAL_TIM_ConfigClockSource+0xa6>
 8005e78:	2b70      	cmp	r3, #112	@ 0x70
 8005e7a:	d87b      	bhi.n	8005f74 <HAL_TIM_ConfigClockSource+0x16c>
 8005e7c:	2b60      	cmp	r3, #96	@ 0x60
 8005e7e:	d050      	beq.n	8005f22 <HAL_TIM_ConfigClockSource+0x11a>
 8005e80:	2b60      	cmp	r3, #96	@ 0x60
 8005e82:	d877      	bhi.n	8005f74 <HAL_TIM_ConfigClockSource+0x16c>
 8005e84:	2b50      	cmp	r3, #80	@ 0x50
 8005e86:	d03c      	beq.n	8005f02 <HAL_TIM_ConfigClockSource+0xfa>
 8005e88:	2b50      	cmp	r3, #80	@ 0x50
 8005e8a:	d873      	bhi.n	8005f74 <HAL_TIM_ConfigClockSource+0x16c>
 8005e8c:	2b40      	cmp	r3, #64	@ 0x40
 8005e8e:	d058      	beq.n	8005f42 <HAL_TIM_ConfigClockSource+0x13a>
 8005e90:	2b40      	cmp	r3, #64	@ 0x40
 8005e92:	d86f      	bhi.n	8005f74 <HAL_TIM_ConfigClockSource+0x16c>
 8005e94:	2b30      	cmp	r3, #48	@ 0x30
 8005e96:	d064      	beq.n	8005f62 <HAL_TIM_ConfigClockSource+0x15a>
 8005e98:	2b30      	cmp	r3, #48	@ 0x30
 8005e9a:	d86b      	bhi.n	8005f74 <HAL_TIM_ConfigClockSource+0x16c>
 8005e9c:	2b20      	cmp	r3, #32
 8005e9e:	d060      	beq.n	8005f62 <HAL_TIM_ConfigClockSource+0x15a>
 8005ea0:	2b20      	cmp	r3, #32
 8005ea2:	d867      	bhi.n	8005f74 <HAL_TIM_ConfigClockSource+0x16c>
 8005ea4:	2b00      	cmp	r3, #0
 8005ea6:	d05c      	beq.n	8005f62 <HAL_TIM_ConfigClockSource+0x15a>
 8005ea8:	2b10      	cmp	r3, #16
 8005eaa:	d05a      	beq.n	8005f62 <HAL_TIM_ConfigClockSource+0x15a>
 8005eac:	e062      	b.n	8005f74 <HAL_TIM_ConfigClockSource+0x16c>
      assert_param(IS_TIM_CLOCKPRESCALER(sClockSourceConfig->ClockPrescaler));
      assert_param(IS_TIM_CLOCKPOLARITY(sClockSourceConfig->ClockPolarity));
      assert_param(IS_TIM_CLOCKFILTER(sClockSourceConfig->ClockFilter));

      /* Configure the ETR Clock source */
      TIM_ETR_SetConfig(htim->Instance,
 8005eae:	687b      	ldr	r3, [r7, #4]
 8005eb0:	6818      	ldr	r0, [r3, #0]
                        sClockSourceConfig->ClockPrescaler,
 8005eb2:	683b      	ldr	r3, [r7, #0]
 8005eb4:	6899      	ldr	r1, [r3, #8]
                        sClockSourceConfig->ClockPolarity,
 8005eb6:	683b      	ldr	r3, [r7, #0]
 8005eb8:	685a      	ldr	r2, [r3, #4]
                        sClockSourceConfig->ClockFilter);
 8005eba:	683b      	ldr	r3, [r7, #0]
 8005ebc:	68db      	ldr	r3, [r3, #12]
      TIM_ETR_SetConfig(htim->Instance,
 8005ebe:	f000 fb63 	bl	8006588 <TIM_ETR_SetConfig>

      /* Select the External clock mode1 and the ETRF trigger */
      tmpsmcr = htim->Instance->SMCR;
 8005ec2:	687b      	ldr	r3, [r7, #4]
 8005ec4:	681b      	ldr	r3, [r3, #0]
 8005ec6:	689b      	ldr	r3, [r3, #8]
 8005ec8:	60bb      	str	r3, [r7, #8]
      tmpsmcr |= (TIM_SLAVEMODE_EXTERNAL1 | TIM_CLOCKSOURCE_ETRMODE1);
 8005eca:	68bb      	ldr	r3, [r7, #8]
 8005ecc:	f043 0377 	orr.w	r3, r3, #119	@ 0x77
 8005ed0:	60bb      	str	r3, [r7, #8]
      /* Write to TIMx SMCR */
      htim->Instance->SMCR = tmpsmcr;
 8005ed2:	687b      	ldr	r3, [r7, #4]
 8005ed4:	681b      	ldr	r3, [r3, #0]
 8005ed6:	68ba      	ldr	r2, [r7, #8]
 8005ed8:	609a      	str	r2, [r3, #8]
      break;
 8005eda:	e04f      	b.n	8005f7c <HAL_TIM_ConfigClockSource+0x174>
      assert_param(IS_TIM_CLOCKPRESCALER(sClockSourceConfig->ClockPrescaler));
      assert_param(IS_TIM_CLOCKPOLARITY(sClockSourceConfig->ClockPolarity));
      assert_param(IS_TIM_CLOCKFILTER(sClockSourceConfig->ClockFilter));

      /* Configure the ETR Clock source */
      TIM_ETR_SetConfig(htim->Instance,
 8005edc:	687b      	ldr	r3, [r7, #4]
 8005ede:	6818      	ldr	r0, [r3, #0]
                        sClockSourceConfig->ClockPrescaler,
 8005ee0:	683b      	ldr	r3, [r7, #0]
 8005ee2:	6899      	ldr	r1, [r3, #8]
                        sClockSourceConfig->ClockPolarity,
 8005ee4:	683b      	ldr	r3, [r7, #0]
 8005ee6:	685a      	ldr	r2, [r3, #4]
                        sClockSourceConfig->ClockFilter);
 8005ee8:	683b      	ldr	r3, [r7, #0]
 8005eea:	68db      	ldr	r3, [r3, #12]
      TIM_ETR_SetConfig(htim->Instance,
 8005eec:	f000 fb4c 	bl	8006588 <TIM_ETR_SetConfig>
      /* Enable the External clock mode2 */
      htim->Instance->SMCR |= TIM_SMCR_ECE;
 8005ef0:	687b      	ldr	r3, [r7, #4]
 8005ef2:	681b      	ldr	r3, [r3, #0]
 8005ef4:	689a      	ldr	r2, [r3, #8]
 8005ef6:	687b      	ldr	r3, [r7, #4]
 8005ef8:	681b      	ldr	r3, [r3, #0]
 8005efa:	f442 4280 	orr.w	r2, r2, #16384	@ 0x4000
 8005efe:	609a      	str	r2, [r3, #8]
      break;
 8005f00:	e03c      	b.n	8005f7c <HAL_TIM_ConfigClockSource+0x174>

      /* Check TI1 input conditioning related parameters */
      assert_param(IS_TIM_CLOCKPOLARITY(sClockSourceConfig->ClockPolarity));
      assert_param(IS_TIM_CLOCKFILTER(sClockSourceConfig->ClockFilter));

      TIM_TI1_ConfigInputStage(htim->Instance,
 8005f02:	687b      	ldr	r3, [r7, #4]
 8005f04:	6818      	ldr	r0, [r3, #0]
                               sClockSourceConfig->ClockPolarity,
 8005f06:	683b      	ldr	r3, [r7, #0]
 8005f08:	6859      	ldr	r1, [r3, #4]
                               sClockSourceConfig->ClockFilter);
 8005f0a:	683b      	ldr	r3, [r7, #0]
 8005f0c:	68db      	ldr	r3, [r3, #12]
      TIM_TI1_ConfigInputStage(htim->Instance,
 8005f0e:	461a      	mov	r2, r3
 8005f10:	f000 fac0 	bl	8006494 <TIM_TI1_ConfigInputStage>
      TIM_ITRx_SetConfig(htim->Instance, TIM_CLOCKSOURCE_TI1);
 8005f14:	687b      	ldr	r3, [r7, #4]
 8005f16:	681b      	ldr	r3, [r3, #0]
 8005f18:	2150      	movs	r1, #80	@ 0x50
 8005f1a:	4618      	mov	r0, r3
 8005f1c:	f000 fb19 	bl	8006552 <TIM_ITRx_SetConfig>
      break;
 8005f20:	e02c      	b.n	8005f7c <HAL_TIM_ConfigClockSource+0x174>

      /* Check TI2 input conditioning related parameters */
      assert_param(IS_TIM_CLOCKPOLARITY(sClockSourceConfig->ClockPolarity));
      assert_param(IS_TIM_CLOCKFILTER(sClockSourceConfig->ClockFilter));

      TIM_TI2_ConfigInputStage(htim->Instance,
 8005f22:	687b      	ldr	r3, [r7, #4]
 8005f24:	6818      	ldr	r0, [r3, #0]
                               sClockSourceConfig->ClockPolarity,
 8005f26:	683b      	ldr	r3, [r7, #0]
 8005f28:	6859      	ldr	r1, [r3, #4]
                               sClockSourceConfig->ClockFilter);
 8005f2a:	683b      	ldr	r3, [r7, #0]
 8005f2c:	68db      	ldr	r3, [r3, #12]
      TIM_TI2_ConfigInputStage(htim->Instance,
 8005f2e:	461a      	mov	r2, r3
 8005f30:	f000 fadf 	bl	80064f2 <TIM_TI2_ConfigInputStage>
      TIM_ITRx_SetConfig(htim->Instance, TIM_CLOCKSOURCE_TI2);
 8005f34:	687b      	ldr	r3, [r7, #4]
 8005f36:	681b      	ldr	r3, [r3, #0]
 8005f38:	2160      	movs	r1, #96	@ 0x60
 8005f3a:	4618      	mov	r0, r3
 8005f3c:	f000 fb09 	bl	8006552 <TIM_ITRx_SetConfig>
      break;
 8005f40:	e01c      	b.n	8005f7c <HAL_TIM_ConfigClockSource+0x174>

      /* Check TI1 input conditioning related parameters */
      assert_param(IS_TIM_CLOCKPOLARITY(sClockSourceConfig->ClockPolarity));
      assert_param(IS_TIM_CLOCKFILTER(sClockSourceConfig->ClockFilter));

      TIM_TI1_ConfigInputStage(htim->Instance,
 8005f42:	687b      	ldr	r3, [r7, #4]
 8005f44:	6818      	ldr	r0, [r3, #0]
                               sClockSourceConfig->ClockPolarity,
 8005f46:	683b      	ldr	r3, [r7, #0]
 8005f48:	6859      	ldr	r1, [r3, #4]
                               sClockSourceConfig->ClockFilter);
 8005f4a:	683b      	ldr	r3, [r7, #0]
 8005f4c:	68db      	ldr	r3, [r3, #12]
      TIM_TI1_ConfigInputStage(htim->Instance,
 8005f4e:	461a      	mov	r2, r3
 8005f50:	f000 faa0 	bl	8006494 <TIM_TI1_ConfigInputStage>
      TIM_ITRx_SetConfig(htim->Instance, TIM_CLOCKSOURCE_TI1ED);
 8005f54:	687b      	ldr	r3, [r7, #4]
 8005f56:	681b      	ldr	r3, [r3, #0]
 8005f58:	2140      	movs	r1, #64	@ 0x40
 8005f5a:	4618      	mov	r0, r3
 8005f5c:	f000 faf9 	bl	8006552 <TIM_ITRx_SetConfig>
      break;
 8005f60:	e00c      	b.n	8005f7c <HAL_TIM_ConfigClockSource+0x174>
    case TIM_CLOCKSOURCE_ITR3:
    {
      /* Check whether or not the timer instance supports internal trigger input */
      assert_param(IS_TIM_CLOCKSOURCE_ITRX_INSTANCE(htim->Instance));

      TIM_ITRx_SetConfig(htim->Instance, sClockSourceConfig->ClockSource);
 8005f62:	687b      	ldr	r3, [r7, #4]
 8005f64:	681a      	ldr	r2, [r3, #0]
 8005f66:	683b      	ldr	r3, [r7, #0]
 8005f68:	681b      	ldr	r3, [r3, #0]
 8005f6a:	4619      	mov	r1, r3
 8005f6c:	4610      	mov	r0, r2
 8005f6e:	f000 faf0 	bl	8006552 <TIM_ITRx_SetConfig>
      break;
 8005f72:	e003      	b.n	8005f7c <HAL_TIM_ConfigClockSource+0x174>
    }

    default:
      status = HAL_ERROR;
 8005f74:	2301      	movs	r3, #1
 8005f76:	73fb      	strb	r3, [r7, #15]
      break;
 8005f78:	e000      	b.n	8005f7c <HAL_TIM_ConfigClockSource+0x174>
      break;
 8005f7a:	bf00      	nop
  }
  htim->State = HAL_TIM_STATE_READY;
 8005f7c:	687b      	ldr	r3, [r7, #4]
 8005f7e:	2201      	movs	r2, #1
 8005f80:	f883 203d 	strb.w	r2, [r3, #61]	@ 0x3d

  __HAL_UNLOCK(htim);
 8005f84:	687b      	ldr	r3, [r7, #4]
 8005f86:	2200      	movs	r2, #0
 8005f88:	f883 203c 	strb.w	r2, [r3, #60]	@ 0x3c

  return status;
 8005f8c:	7bfb      	ldrb	r3, [r7, #15]
}
 8005f8e:	4618      	mov	r0, r3
 8005f90:	3710      	adds	r7, #16
 8005f92:	46bd      	mov	sp, r7
 8005f94:	bd80      	pop	{r7, pc}

08005f96 <HAL_TIM_OC_DelayElapsedCallback>:
  * @brief  Output Compare callback in non-blocking mode
  * @param  htim TIM OC handle
  * @retval None
  */
__weak void HAL_TIM_OC_DelayElapsedCallback(TIM_HandleTypeDef *htim)
{
 8005f96:	b480      	push	{r7}
 8005f98:	b083      	sub	sp, #12
 8005f9a:	af00      	add	r7, sp, #0
 8005f9c:	6078      	str	r0, [r7, #4]
  UNUSED(htim);

  /* NOTE : This function should not be modified, when the callback is needed,
            the HAL_TIM_OC_DelayElapsedCallback could be implemented in the user file
   */
}
 8005f9e:	bf00      	nop
 8005fa0:	370c      	adds	r7, #12
 8005fa2:	46bd      	mov	sp, r7
 8005fa4:	f85d 7b04 	ldr.w	r7, [sp], #4
 8005fa8:	4770      	bx	lr

08005faa <HAL_TIM_IC_CaptureCallback>:
  * @brief  Input Capture callback in non-blocking mode
  * @param  htim TIM IC handle
  * @retval None
  */
__weak void HAL_TIM_IC_CaptureCallback(TIM_HandleTypeDef *htim)
{
 8005faa:	b480      	push	{r7}
 8005fac:	b083      	sub	sp, #12
 8005fae:	af00      	add	r7, sp, #0
 8005fb0:	6078      	str	r0, [r7, #4]
  UNUSED(htim);

  /* NOTE : This function should not be modified, when the callback is needed,
            the HAL_TIM_IC_CaptureCallback could be implemented in the user file
   */
}
 8005fb2:	bf00      	nop
 8005fb4:	370c      	adds	r7, #12
 8005fb6:	46bd      	mov	sp, r7
 8005fb8:	f85d 7b04 	ldr.w	r7, [sp], #4
 8005fbc:	4770      	bx	lr

08005fbe <HAL_TIM_PWM_PulseFinishedCallback>:
  * @brief  PWM Pulse finished callback in non-blocking mode
  * @param  htim TIM handle
  * @retval None
  */
__weak void HAL_TIM_PWM_PulseFinishedCallback(TIM_HandleTypeDef *htim)
{
 8005fbe:	b480      	push	{r7}
 8005fc0:	b083      	sub	sp, #12
 8005fc2:	af00      	add	r7, sp, #0
 8005fc4:	6078      	str	r0, [r7, #4]
  UNUSED(htim);

  /* NOTE : This function should not be modified, when the callback is needed,
            the HAL_TIM_PWM_PulseFinishedCallback could be implemented in the user file
   */
}
 8005fc6:	bf00      	nop
 8005fc8:	370c      	adds	r7, #12
 8005fca:	46bd      	mov	sp, r7
 8005fcc:	f85d 7b04 	ldr.w	r7, [sp], #4
 8005fd0:	4770      	bx	lr

08005fd2 <HAL_TIM_TriggerCallback>:
  * @brief  Hall Trigger detection callback in non-blocking mode
  * @param  htim TIM handle
  * @retval None
  */
__weak void HAL_TIM_TriggerCallback(TIM_HandleTypeDef *htim)
{
 8005fd2:	b480      	push	{r7}
 8005fd4:	b083      	sub	sp, #12
 8005fd6:	af00      	add	r7, sp, #0
 8005fd8:	6078      	str	r0, [r7, #4]
  UNUSED(htim);

  /* NOTE : This function should not be modified, when the callback is needed,
            the HAL_TIM_TriggerCallback could be implemented in the user file
   */
}
 8005fda:	bf00      	nop
 8005fdc:	370c      	adds	r7, #12
 8005fde:	46bd      	mov	sp, r7
 8005fe0:	f85d 7b04 	ldr.w	r7, [sp], #4
 8005fe4:	4770      	bx	lr
	...

08005fe8 <TIM_Base_SetConfig>:
  * @param  TIMx TIM peripheral
  * @param  Structure TIM Base configuration structure
  * @retval None
  */
void TIM_Base_SetConfig(TIM_TypeDef *TIMx, const TIM_Base_InitTypeDef *Structure)
{
 8005fe8:	b480      	push	{r7}
 8005fea:	b085      	sub	sp, #20
 8005fec:	af00      	add	r7, sp, #0
 8005fee:	6078      	str	r0, [r7, #4]
 8005ff0:	6039      	str	r1, [r7, #0]
  uint32_t tmpcr1;
  tmpcr1 = TIMx->CR1;
 8005ff2:	687b      	ldr	r3, [r7, #4]
 8005ff4:	681b      	ldr	r3, [r3, #0]
 8005ff6:	60fb      	str	r3, [r7, #12]

  /* Set TIM Time Base Unit parameters ---------------------------------------*/
  if (IS_TIM_COUNTER_MODE_SELECT_INSTANCE(TIMx))
 8005ff8:	687b      	ldr	r3, [r7, #4]
 8005ffa:	4a43      	ldr	r2, [pc, #268]	@ (8006108 <TIM_Base_SetConfig+0x120>)
 8005ffc:	4293      	cmp	r3, r2
 8005ffe:	d013      	beq.n	8006028 <TIM_Base_SetConfig+0x40>
 8006000:	687b      	ldr	r3, [r7, #4]
 8006002:	f1b3 4f80 	cmp.w	r3, #1073741824	@ 0x40000000
 8006006:	d00f      	beq.n	8006028 <TIM_Base_SetConfig+0x40>
 8006008:	687b      	ldr	r3, [r7, #4]
 800600a:	4a40      	ldr	r2, [pc, #256]	@ (800610c <TIM_Base_SetConfig+0x124>)
 800600c:	4293      	cmp	r3, r2
 800600e:	d00b      	beq.n	8006028 <TIM_Base_SetConfig+0x40>
 8006010:	687b      	ldr	r3, [r7, #4]
 8006012:	4a3f      	ldr	r2, [pc, #252]	@ (8006110 <TIM_Base_SetConfig+0x128>)
 8006014:	4293      	cmp	r3, r2
 8006016:	d007      	beq.n	8006028 <TIM_Base_SetConfig+0x40>
 8006018:	687b      	ldr	r3, [r7, #4]
 800601a:	4a3e      	ldr	r2, [pc, #248]	@ (8006114 <TIM_Base_SetConfig+0x12c>)
 800601c:	4293      	cmp	r3, r2
 800601e:	d003      	beq.n	8006028 <TIM_Base_SetConfig+0x40>
 8006020:	687b      	ldr	r3, [r7, #4]
 8006022:	4a3d      	ldr	r2, [pc, #244]	@ (8006118 <TIM_Base_SetConfig+0x130>)
 8006024:	4293      	cmp	r3, r2
 8006026:	d108      	bne.n	800603a <TIM_Base_SetConfig+0x52>
  {
    /* Select the Counter Mode */
    tmpcr1 &= ~(TIM_CR1_DIR | TIM_CR1_CMS);
 8006028:	68fb      	ldr	r3, [r7, #12]
 800602a:	f023 0370 	bic.w	r3, r3, #112	@ 0x70
 800602e:	60fb      	str	r3, [r7, #12]
    tmpcr1 |= Structure->CounterMode;
 8006030:	683b      	ldr	r3, [r7, #0]
 8006032:	685b      	ldr	r3, [r3, #4]
 8006034:	68fa      	ldr	r2, [r7, #12]
 8006036:	4313      	orrs	r3, r2
 8006038:	60fb      	str	r3, [r7, #12]
  }

  if (IS_TIM_CLOCK_DIVISION_INSTANCE(TIMx))
 800603a:	687b      	ldr	r3, [r7, #4]
 800603c:	4a32      	ldr	r2, [pc, #200]	@ (8006108 <TIM_Base_SetConfig+0x120>)
 800603e:	4293      	cmp	r3, r2
 8006040:	d02b      	beq.n	800609a <TIM_Base_SetConfig+0xb2>
 8006042:	687b      	ldr	r3, [r7, #4]
 8006044:	f1b3 4f80 	cmp.w	r3, #1073741824	@ 0x40000000
 8006048:	d027      	beq.n	800609a <TIM_Base_SetConfig+0xb2>
 800604a:	687b      	ldr	r3, [r7, #4]
 800604c:	4a2f      	ldr	r2, [pc, #188]	@ (800610c <TIM_Base_SetConfig+0x124>)
 800604e:	4293      	cmp	r3, r2
 8006050:	d023      	beq.n	800609a <TIM_Base_SetConfig+0xb2>
 8006052:	687b      	ldr	r3, [r7, #4]
 8006054:	4a2e      	ldr	r2, [pc, #184]	@ (8006110 <TIM_Base_SetConfig+0x128>)
 8006056:	4293      	cmp	r3, r2
 8006058:	d01f      	beq.n	800609a <TIM_Base_SetConfig+0xb2>
 800605a:	687b      	ldr	r3, [r7, #4]
 800605c:	4a2d      	ldr	r2, [pc, #180]	@ (8006114 <TIM_Base_SetConfig+0x12c>)
 800605e:	4293      	cmp	r3, r2
 8006060:	d01b      	beq.n	800609a <TIM_Base_SetConfig+0xb2>
 8006062:	687b      	ldr	r3, [r7, #4]
 8006064:	4a2c      	ldr	r2, [pc, #176]	@ (8006118 <TIM_Base_SetConfig+0x130>)
 8006066:	4293      	cmp	r3, r2
 8006068:	d017      	beq.n	800609a <TIM_Base_SetConfig+0xb2>
 800606a:	687b      	ldr	r3, [r7, #4]
 800606c:	4a2b      	ldr	r2, [pc, #172]	@ (800611c <TIM_Base_SetConfig+0x134>)
 800606e:	4293      	cmp	r3, r2
 8006070:	d013      	beq.n	800609a <TIM_Base_SetConfig+0xb2>
 8006072:	687b      	ldr	r3, [r7, #4]
 8006074:	4a2a      	ldr	r2, [pc, #168]	@ (8006120 <TIM_Base_SetConfig+0x138>)
 8006076:	4293      	cmp	r3, r2
 8006078:	d00f      	beq.n	800609a <TIM_Base_SetConfig+0xb2>
 800607a:	687b      	ldr	r3, [r7, #4]
 800607c:	4a29      	ldr	r2, [pc, #164]	@ (8006124 <TIM_Base_SetConfig+0x13c>)
 800607e:	4293      	cmp	r3, r2
 8006080:	d00b      	beq.n	800609a <TIM_Base_SetConfig+0xb2>
 8006082:	687b      	ldr	r3, [r7, #4]
 8006084:	4a28      	ldr	r2, [pc, #160]	@ (8006128 <TIM_Base_SetConfig+0x140>)
 8006086:	4293      	cmp	r3, r2
 8006088:	d007      	beq.n	800609a <TIM_Base_SetConfig+0xb2>
 800608a:	687b      	ldr	r3, [r7, #4]
 800608c:	4a27      	ldr	r2, [pc, #156]	@ (800612c <TIM_Base_SetConfig+0x144>)
 800608e:	4293      	cmp	r3, r2
 8006090:	d003      	beq.n	800609a <TIM_Base_SetConfig+0xb2>
 8006092:	687b      	ldr	r3, [r7, #4]
 8006094:	4a26      	ldr	r2, [pc, #152]	@ (8006130 <TIM_Base_SetConfig+0x148>)
 8006096:	4293      	cmp	r3, r2
 8006098:	d108      	bne.n	80060ac <TIM_Base_SetConfig+0xc4>
  {
    /* Set the clock division */
    tmpcr1 &= ~TIM_CR1_CKD;
 800609a:	68fb      	ldr	r3, [r7, #12]
 800609c:	f423 7340 	bic.w	r3, r3, #768	@ 0x300
 80060a0:	60fb      	str	r3, [r7, #12]
    tmpcr1 |= (uint32_t)Structure->ClockDivision;
 80060a2:	683b      	ldr	r3, [r7, #0]
 80060a4:	68db      	ldr	r3, [r3, #12]
 80060a6:	68fa      	ldr	r2, [r7, #12]
 80060a8:	4313      	orrs	r3, r2
 80060aa:	60fb      	str	r3, [r7, #12]
  }

  /* Set the auto-reload preload */
  MODIFY_REG(tmpcr1, TIM_CR1_ARPE, Structure->AutoReloadPreload);
 80060ac:	68fb      	ldr	r3, [r7, #12]
 80060ae:	f023 0280 	bic.w	r2, r3, #128	@ 0x80
 80060b2:	683b      	ldr	r3, [r7, #0]
 80060b4:	695b      	ldr	r3, [r3, #20]
 80060b6:	4313      	orrs	r3, r2
 80060b8:	60fb      	str	r3, [r7, #12]

  /* Set the Autoreload value */
  TIMx->ARR = (uint32_t)Structure->Period ;
 80060ba:	683b      	ldr	r3, [r7, #0]
 80060bc:	689a      	ldr	r2, [r3, #8]
 80060be:	687b      	ldr	r3, [r7, #4]
 80060c0:	62da      	str	r2, [r3, #44]	@ 0x2c

  /* Set the Prescaler value */
  TIMx->PSC = Structure->Prescaler;
 80060c2:	683b      	ldr	r3, [r7, #0]
 80060c4:	681a      	ldr	r2, [r3, #0]
 80060c6:	687b      	ldr	r3, [r7, #4]
 80060c8:	629a      	str	r2, [r3, #40]	@ 0x28

  if (IS_TIM_REPETITION_COUNTER_INSTANCE(TIMx))
 80060ca:	687b      	ldr	r3, [r7, #4]
 80060cc:	4a0e      	ldr	r2, [pc, #56]	@ (8006108 <TIM_Base_SetConfig+0x120>)
 80060ce:	4293      	cmp	r3, r2
 80060d0:	d003      	beq.n	80060da <TIM_Base_SetConfig+0xf2>
 80060d2:	687b      	ldr	r3, [r7, #4]
 80060d4:	4a10      	ldr	r2, [pc, #64]	@ (8006118 <TIM_Base_SetConfig+0x130>)
 80060d6:	4293      	cmp	r3, r2
 80060d8:	d103      	bne.n	80060e2 <TIM_Base_SetConfig+0xfa>
  {
    /* Set the Repetition Counter value */
    TIMx->RCR = Structure->RepetitionCounter;
 80060da:	683b      	ldr	r3, [r7, #0]
 80060dc:	691a      	ldr	r2, [r3, #16]
 80060de:	687b      	ldr	r3, [r7, #4]
 80060e0:	631a      	str	r2, [r3, #48]	@ 0x30
  }

  /* Disable Update Event (UEV) with Update Generation (UG)
     by changing Update Request Source (URS) to avoid Update flag (UIF) */
  SET_BIT(TIMx->CR1, TIM_CR1_URS);
 80060e2:	687b      	ldr	r3, [r7, #4]
 80060e4:	681b      	ldr	r3, [r3, #0]
 80060e6:	f043 0204 	orr.w	r2, r3, #4
 80060ea:	687b      	ldr	r3, [r7, #4]
 80060ec:	601a      	str	r2, [r3, #0]

  /* Generate an update event to reload the Prescaler
     and the repetition counter (only for advanced timer) value immediately */
  TIMx->EGR = TIM_EGR_UG;
 80060ee:	687b      	ldr	r3, [r7, #4]
 80060f0:	2201      	movs	r2, #1
 80060f2:	615a      	str	r2, [r3, #20]

  TIMx->CR1 = tmpcr1;
 80060f4:	687b      	ldr	r3, [r7, #4]
 80060f6:	68fa      	ldr	r2, [r7, #12]
 80060f8:	601a      	str	r2, [r3, #0]
}
 80060fa:	bf00      	nop
 80060fc:	3714      	adds	r7, #20
 80060fe:	46bd      	mov	sp, r7
 8006100:	f85d 7b04 	ldr.w	r7, [sp], #4
 8006104:	4770      	bx	lr
 8006106:	bf00      	nop
 8006108:	40010000 	.word	0x40010000
 800610c:	40000400 	.word	0x40000400
 8006110:	40000800 	.word	0x40000800
 8006114:	40000c00 	.word	0x40000c00
 8006118:	40010400 	.word	0x40010400
 800611c:	40014000 	.word	0x40014000
 8006120:	40014400 	.word	0x40014400
 8006124:	40014800 	.word	0x40014800
 8006128:	40001800 	.word	0x40001800
 800612c:	40001c00 	.word	0x40001c00
 8006130:	40002000 	.word	0x40002000

08006134 <TIM_OC1_SetConfig>:
  * @param  TIMx to select the TIM peripheral
  * @param  OC_Config The output configuration structure
  * @retval None
  */
static void TIM_OC1_SetConfig(TIM_TypeDef *TIMx, const TIM_OC_InitTypeDef *OC_Config)
{
 8006134:	b480      	push	{r7}
 8006136:	b087      	sub	sp, #28
 8006138:	af00      	add	r7, sp, #0
 800613a:	6078      	str	r0, [r7, #4]
 800613c:	6039      	str	r1, [r7, #0]
  uint32_t tmpccmrx;
  uint32_t tmpccer;
  uint32_t tmpcr2;

  /* Get the TIMx CCER register value */
  tmpccer = TIMx->CCER;
 800613e:	687b      	ldr	r3, [r7, #4]
 8006140:	6a1b      	ldr	r3, [r3, #32]
 8006142:	617b      	str	r3, [r7, #20]

  /* Disable the Channel 1: Reset the CC1E Bit */
  TIMx->CCER &= ~TIM_CCER_CC1E;
 8006144:	687b      	ldr	r3, [r7, #4]
 8006146:	6a1b      	ldr	r3, [r3, #32]
 8006148:	f023 0201 	bic.w	r2, r3, #1
 800614c:	687b      	ldr	r3, [r7, #4]
 800614e:	621a      	str	r2, [r3, #32]

  /* Get the TIMx CR2 register value */
  tmpcr2 =  TIMx->CR2;
 8006150:	687b      	ldr	r3, [r7, #4]
 8006152:	685b      	ldr	r3, [r3, #4]
 8006154:	613b      	str	r3, [r7, #16]

  /* Get the TIMx CCMR1 register value */
  tmpccmrx = TIMx->CCMR1;
 8006156:	687b      	ldr	r3, [r7, #4]
 8006158:	699b      	ldr	r3, [r3, #24]
 800615a:	60fb      	str	r3, [r7, #12]

  /* Reset the Output Compare Mode Bits */
  tmpccmrx &= ~TIM_CCMR1_OC1M;
 800615c:	68fb      	ldr	r3, [r7, #12]
 800615e:	f023 0370 	bic.w	r3, r3, #112	@ 0x70
 8006162:	60fb      	str	r3, [r7, #12]
  tmpccmrx &= ~TIM_CCMR1_CC1S;
 8006164:	68fb      	ldr	r3, [r7, #12]
 8006166:	f023 0303 	bic.w	r3, r3, #3
 800616a:	60fb      	str	r3, [r7, #12]
  /* Select the Output Compare Mode */
  tmpccmrx |= OC_Config->OCMode;
 800616c:	683b      	ldr	r3, [r7, #0]
 800616e:	681b      	ldr	r3, [r3, #0]
 8006170:	68fa      	ldr	r2, [r7, #12]
 8006172:	4313      	orrs	r3, r2
 8006174:	60fb      	str	r3, [r7, #12]

  /* Reset the Output Polarity level */
  tmpccer &= ~TIM_CCER_CC1P;
 8006176:	697b      	ldr	r3, [r7, #20]
 8006178:	f023 0302 	bic.w	r3, r3, #2
 800617c:	617b      	str	r3, [r7, #20]
  /* Set the Output Compare Polarity */
  tmpccer |= OC_Config->OCPolarity;
 800617e:	683b      	ldr	r3, [r7, #0]
 8006180:	689b      	ldr	r3, [r3, #8]
 8006182:	697a      	ldr	r2, [r7, #20]
 8006184:	4313      	orrs	r3, r2
 8006186:	617b      	str	r3, [r7, #20]

  if (IS_TIM_CCXN_INSTANCE(TIMx, TIM_CHANNEL_1))
 8006188:	687b      	ldr	r3, [r7, #4]
 800618a:	4a20      	ldr	r2, [pc, #128]	@ (800620c <TIM_OC1_SetConfig+0xd8>)
 800618c:	4293      	cmp	r3, r2
 800618e:	d003      	beq.n	8006198 <TIM_OC1_SetConfig+0x64>
 8006190:	687b      	ldr	r3, [r7, #4]
 8006192:	4a1f      	ldr	r2, [pc, #124]	@ (8006210 <TIM_OC1_SetConfig+0xdc>)
 8006194:	4293      	cmp	r3, r2
 8006196:	d10c      	bne.n	80061b2 <TIM_OC1_SetConfig+0x7e>
  {
    /* Check parameters */
    assert_param(IS_TIM_OCN_POLARITY(OC_Config->OCNPolarity));

    /* Reset the Output N Polarity level */
    tmpccer &= ~TIM_CCER_CC1NP;
 8006198:	697b      	ldr	r3, [r7, #20]
 800619a:	f023 0308 	bic.w	r3, r3, #8
 800619e:	617b      	str	r3, [r7, #20]
    /* Set the Output N Polarity */
    tmpccer |= OC_Config->OCNPolarity;
 80061a0:	683b      	ldr	r3, [r7, #0]
 80061a2:	68db      	ldr	r3, [r3, #12]
 80061a4:	697a      	ldr	r2, [r7, #20]
 80061a6:	4313      	orrs	r3, r2
 80061a8:	617b      	str	r3, [r7, #20]
    /* Reset the Output N State */
    tmpccer &= ~TIM_CCER_CC1NE;
 80061aa:	697b      	ldr	r3, [r7, #20]
 80061ac:	f023 0304 	bic.w	r3, r3, #4
 80061b0:	617b      	str	r3, [r7, #20]
  }

  if (IS_TIM_BREAK_INSTANCE(TIMx))
 80061b2:	687b      	ldr	r3, [r7, #4]
 80061b4:	4a15      	ldr	r2, [pc, #84]	@ (800620c <TIM_OC1_SetConfig+0xd8>)
 80061b6:	4293      	cmp	r3, r2
 80061b8:	d003      	beq.n	80061c2 <TIM_OC1_SetConfig+0x8e>
 80061ba:	687b      	ldr	r3, [r7, #4]
 80061bc:	4a14      	ldr	r2, [pc, #80]	@ (8006210 <TIM_OC1_SetConfig+0xdc>)
 80061be:	4293      	cmp	r3, r2
 80061c0:	d111      	bne.n	80061e6 <TIM_OC1_SetConfig+0xb2>
    /* Check parameters */
    assert_param(IS_TIM_OCNIDLE_STATE(OC_Config->OCNIdleState));
    assert_param(IS_TIM_OCIDLE_STATE(OC_Config->OCIdleState));

    /* Reset the Output Compare and Output Compare N IDLE State */
    tmpcr2 &= ~TIM_CR2_OIS1;
 80061c2:	693b      	ldr	r3, [r7, #16]
 80061c4:	f423 7380 	bic.w	r3, r3, #256	@ 0x100
 80061c8:	613b      	str	r3, [r7, #16]
    tmpcr2 &= ~TIM_CR2_OIS1N;
 80061ca:	693b      	ldr	r3, [r7, #16]
 80061cc:	f423 7300 	bic.w	r3, r3, #512	@ 0x200
 80061d0:	613b      	str	r3, [r7, #16]
    /* Set the Output Idle state */
    tmpcr2 |= OC_Config->OCIdleState;
 80061d2:	683b      	ldr	r3, [r7, #0]
 80061d4:	695b      	ldr	r3, [r3, #20]
 80061d6:	693a      	ldr	r2, [r7, #16]
 80061d8:	4313      	orrs	r3, r2
 80061da:	613b      	str	r3, [r7, #16]
    /* Set the Output N Idle state */
    tmpcr2 |= OC_Config->OCNIdleState;
 80061dc:	683b      	ldr	r3, [r7, #0]
 80061de:	699b      	ldr	r3, [r3, #24]
 80061e0:	693a      	ldr	r2, [r7, #16]
 80061e2:	4313      	orrs	r3, r2
 80061e4:	613b      	str	r3, [r7, #16]
  }

  /* Write to TIMx CR2 */
  TIMx->CR2 = tmpcr2;
 80061e6:	687b      	ldr	r3, [r7, #4]
 80061e8:	693a      	ldr	r2, [r7, #16]
 80061ea:	605a      	str	r2, [r3, #4]

  /* Write to TIMx CCMR1 */
  TIMx->CCMR1 = tmpccmrx;
 80061ec:	687b      	ldr	r3, [r7, #4]
 80061ee:	68fa      	ldr	r2, [r7, #12]
 80061f0:	619a      	str	r2, [r3, #24]

  /* Set the Capture Compare Register value */
  TIMx->CCR1 = OC_Config->Pulse;
 80061f2:	683b      	ldr	r3, [r7, #0]
 80061f4:	685a      	ldr	r2, [r3, #4]
 80061f6:	687b      	ldr	r3, [r7, #4]
 80061f8:	635a      	str	r2, [r3, #52]	@ 0x34

  /* Write to TIMx CCER */
  TIMx->CCER = tmpccer;
 80061fa:	687b      	ldr	r3, [r7, #4]
 80061fc:	697a      	ldr	r2, [r7, #20]
 80061fe:	621a      	str	r2, [r3, #32]
}
 8006200:	bf00      	nop
 8006202:	371c      	adds	r7, #28
 8006204:	46bd      	mov	sp, r7
 8006206:	f85d 7b04 	ldr.w	r7, [sp], #4
 800620a:	4770      	bx	lr
 800620c:	40010000 	.word	0x40010000
 8006210:	40010400 	.word	0x40010400

08006214 <TIM_OC2_SetConfig>:
  * @param  TIMx to select the TIM peripheral
  * @param  OC_Config The output configuration structure
  * @retval None
  */
void TIM_OC2_SetConfig(TIM_TypeDef *TIMx, const TIM_OC_InitTypeDef *OC_Config)
{
 8006214:	b480      	push	{r7}
 8006216:	b087      	sub	sp, #28
 8006218:	af00      	add	r7, sp, #0
 800621a:	6078      	str	r0, [r7, #4]
 800621c:	6039      	str	r1, [r7, #0]
  uint32_t tmpccmrx;
  uint32_t tmpccer;
  uint32_t tmpcr2;

  /* Get the TIMx CCER register value */
  tmpccer = TIMx->CCER;
 800621e:	687b      	ldr	r3, [r7, #4]
 8006220:	6a1b      	ldr	r3, [r3, #32]
 8006222:	617b      	str	r3, [r7, #20]

  /* Disable the Channel 2: Reset the CC2E Bit */
  TIMx->CCER &= ~TIM_CCER_CC2E;
 8006224:	687b      	ldr	r3, [r7, #4]
 8006226:	6a1b      	ldr	r3, [r3, #32]
 8006228:	f023 0210 	bic.w	r2, r3, #16
 800622c:	687b      	ldr	r3, [r7, #4]
 800622e:	621a      	str	r2, [r3, #32]

  /* Get the TIMx CR2 register value */
  tmpcr2 =  TIMx->CR2;
 8006230:	687b      	ldr	r3, [r7, #4]
 8006232:	685b      	ldr	r3, [r3, #4]
 8006234:	613b      	str	r3, [r7, #16]

  /* Get the TIMx CCMR1 register value */
  tmpccmrx = TIMx->CCMR1;
 8006236:	687b      	ldr	r3, [r7, #4]
 8006238:	699b      	ldr	r3, [r3, #24]
 800623a:	60fb      	str	r3, [r7, #12]

  /* Reset the Output Compare mode and Capture/Compare selection Bits */
  tmpccmrx &= ~TIM_CCMR1_OC2M;
 800623c:	68fb      	ldr	r3, [r7, #12]
 800623e:	f423 43e0 	bic.w	r3, r3, #28672	@ 0x7000
 8006242:	60fb      	str	r3, [r7, #12]
  tmpccmrx &= ~TIM_CCMR1_CC2S;
 8006244:	68fb      	ldr	r3, [r7, #12]
 8006246:	f423 7340 	bic.w	r3, r3, #768	@ 0x300
 800624a:	60fb      	str	r3, [r7, #12]

  /* Select the Output Compare Mode */
  tmpccmrx |= (OC_Config->OCMode << 8U);
 800624c:	683b      	ldr	r3, [r7, #0]
 800624e:	681b      	ldr	r3, [r3, #0]
 8006250:	021b      	lsls	r3, r3, #8
 8006252:	68fa      	ldr	r2, [r7, #12]
 8006254:	4313      	orrs	r3, r2
 8006256:	60fb      	str	r3, [r7, #12]

  /* Reset the Output Polarity level */
  tmpccer &= ~TIM_CCER_CC2P;
 8006258:	697b      	ldr	r3, [r7, #20]
 800625a:	f023 0320 	bic.w	r3, r3, #32
 800625e:	617b      	str	r3, [r7, #20]
  /* Set the Output Compare Polarity */
  tmpccer |= (OC_Config->OCPolarity << 4U);
 8006260:	683b      	ldr	r3, [r7, #0]
 8006262:	689b      	ldr	r3, [r3, #8]
 8006264:	011b      	lsls	r3, r3, #4
 8006266:	697a      	ldr	r2, [r7, #20]
 8006268:	4313      	orrs	r3, r2
 800626a:	617b      	str	r3, [r7, #20]

  if (IS_TIM_CCXN_INSTANCE(TIMx, TIM_CHANNEL_2))
 800626c:	687b      	ldr	r3, [r7, #4]
 800626e:	4a22      	ldr	r2, [pc, #136]	@ (80062f8 <TIM_OC2_SetConfig+0xe4>)
 8006270:	4293      	cmp	r3, r2
 8006272:	d003      	beq.n	800627c <TIM_OC2_SetConfig+0x68>
 8006274:	687b      	ldr	r3, [r7, #4]
 8006276:	4a21      	ldr	r2, [pc, #132]	@ (80062fc <TIM_OC2_SetConfig+0xe8>)
 8006278:	4293      	cmp	r3, r2
 800627a:	d10d      	bne.n	8006298 <TIM_OC2_SetConfig+0x84>
  {
    assert_param(IS_TIM_OCN_POLARITY(OC_Config->OCNPolarity));

    /* Reset the Output N Polarity level */
    tmpccer &= ~TIM_CCER_CC2NP;
 800627c:	697b      	ldr	r3, [r7, #20]
 800627e:	f023 0380 	bic.w	r3, r3, #128	@ 0x80
 8006282:	617b      	str	r3, [r7, #20]
    /* Set the Output N Polarity */
    tmpccer |= (OC_Config->OCNPolarity << 4U);
 8006284:	683b      	ldr	r3, [r7, #0]
 8006286:	68db      	ldr	r3, [r3, #12]
 8006288:	011b      	lsls	r3, r3, #4
 800628a:	697a      	ldr	r2, [r7, #20]
 800628c:	4313      	orrs	r3, r2
 800628e:	617b      	str	r3, [r7, #20]
    /* Reset the Output N State */
    tmpccer &= ~TIM_CCER_CC2NE;
 8006290:	697b      	ldr	r3, [r7, #20]
 8006292:	f023 0340 	bic.w	r3, r3, #64	@ 0x40
 8006296:	617b      	str	r3, [r7, #20]
  }

  if (IS_TIM_BREAK_INSTANCE(TIMx))
 8006298:	687b      	ldr	r3, [r7, #4]
 800629a:	4a17      	ldr	r2, [pc, #92]	@ (80062f8 <TIM_OC2_SetConfig+0xe4>)
 800629c:	4293      	cmp	r3, r2
 800629e:	d003      	beq.n	80062a8 <TIM_OC2_SetConfig+0x94>
 80062a0:	687b      	ldr	r3, [r7, #4]
 80062a2:	4a16      	ldr	r2, [pc, #88]	@ (80062fc <TIM_OC2_SetConfig+0xe8>)
 80062a4:	4293      	cmp	r3, r2
 80062a6:	d113      	bne.n	80062d0 <TIM_OC2_SetConfig+0xbc>
    /* Check parameters */
    assert_param(IS_TIM_OCNIDLE_STATE(OC_Config->OCNIdleState));
    assert_param(IS_TIM_OCIDLE_STATE(OC_Config->OCIdleState));

    /* Reset the Output Compare and Output Compare N IDLE State */
    tmpcr2 &= ~TIM_CR2_OIS2;
 80062a8:	693b      	ldr	r3, [r7, #16]
 80062aa:	f423 6380 	bic.w	r3, r3, #1024	@ 0x400
 80062ae:	613b      	str	r3, [r7, #16]
    tmpcr2 &= ~TIM_CR2_OIS2N;
 80062b0:	693b      	ldr	r3, [r7, #16]
 80062b2:	f423 6300 	bic.w	r3, r3, #2048	@ 0x800
 80062b6:	613b      	str	r3, [r7, #16]
    /* Set the Output Idle state */
    tmpcr2 |= (OC_Config->OCIdleState << 2U);
 80062b8:	683b      	ldr	r3, [r7, #0]
 80062ba:	695b      	ldr	r3, [r3, #20]
 80062bc:	009b      	lsls	r3, r3, #2
 80062be:	693a      	ldr	r2, [r7, #16]
 80062c0:	4313      	orrs	r3, r2
 80062c2:	613b      	str	r3, [r7, #16]
    /* Set the Output N Idle state */
    tmpcr2 |= (OC_Config->OCNIdleState << 2U);
 80062c4:	683b      	ldr	r3, [r7, #0]
 80062c6:	699b      	ldr	r3, [r3, #24]
 80062c8:	009b      	lsls	r3, r3, #2
 80062ca:	693a      	ldr	r2, [r7, #16]
 80062cc:	4313      	orrs	r3, r2
 80062ce:	613b      	str	r3, [r7, #16]
  }

  /* Write to TIMx CR2 */
  TIMx->CR2 = tmpcr2;
 80062d0:	687b      	ldr	r3, [r7, #4]
 80062d2:	693a      	ldr	r2, [r7, #16]
 80062d4:	605a      	str	r2, [r3, #4]

  /* Write to TIMx CCMR1 */
  TIMx->CCMR1 = tmpccmrx;
 80062d6:	687b      	ldr	r3, [r7, #4]
 80062d8:	68fa      	ldr	r2, [r7, #12]
 80062da:	619a      	str	r2, [r3, #24]

  /* Set the Capture Compare Register value */
  TIMx->CCR2 = OC_Config->Pulse;
 80062dc:	683b      	ldr	r3, [r7, #0]
 80062de:	685a      	ldr	r2, [r3, #4]
 80062e0:	687b      	ldr	r3, [r7, #4]
 80062e2:	639a      	str	r2, [r3, #56]	@ 0x38

  /* Write to TIMx CCER */
  TIMx->CCER = tmpccer;
 80062e4:	687b      	ldr	r3, [r7, #4]
 80062e6:	697a      	ldr	r2, [r7, #20]
 80062e8:	621a      	str	r2, [r3, #32]
}
 80062ea:	bf00      	nop
 80062ec:	371c      	adds	r7, #28
 80062ee:	46bd      	mov	sp, r7
 80062f0:	f85d 7b04 	ldr.w	r7, [sp], #4
 80062f4:	4770      	bx	lr
 80062f6:	bf00      	nop
 80062f8:	40010000 	.word	0x40010000
 80062fc:	40010400 	.word	0x40010400

08006300 <TIM_OC3_SetConfig>:
  * @param  TIMx to select the TIM peripheral
  * @param  OC_Config The output configuration structure
  * @retval None
  */
static void TIM_OC3_SetConfig(TIM_TypeDef *TIMx, const TIM_OC_InitTypeDef *OC_Config)
{
 8006300:	b480      	push	{r7}
 8006302:	b087      	sub	sp, #28
 8006304:	af00      	add	r7, sp, #0
 8006306:	6078      	str	r0, [r7, #4]
 8006308:	6039      	str	r1, [r7, #0]
  uint32_t tmpccmrx;
  uint32_t tmpccer;
  uint32_t tmpcr2;

  /* Get the TIMx CCER register value */
  tmpccer = TIMx->CCER;
 800630a:	687b      	ldr	r3, [r7, #4]
 800630c:	6a1b      	ldr	r3, [r3, #32]
 800630e:	617b      	str	r3, [r7, #20]

  /* Disable the Channel 3: Reset the CC2E Bit */
  TIMx->CCER &= ~TIM_CCER_CC3E;
 8006310:	687b      	ldr	r3, [r7, #4]
 8006312:	6a1b      	ldr	r3, [r3, #32]
 8006314:	f423 7280 	bic.w	r2, r3, #256	@ 0x100
 8006318:	687b      	ldr	r3, [r7, #4]
 800631a:	621a      	str	r2, [r3, #32]

  /* Get the TIMx CR2 register value */
  tmpcr2 =  TIMx->CR2;
 800631c:	687b      	ldr	r3, [r7, #4]
 800631e:	685b      	ldr	r3, [r3, #4]
 8006320:	613b      	str	r3, [r7, #16]

  /* Get the TIMx CCMR2 register value */
  tmpccmrx = TIMx->CCMR2;
 8006322:	687b      	ldr	r3, [r7, #4]
 8006324:	69db      	ldr	r3, [r3, #28]
 8006326:	60fb      	str	r3, [r7, #12]

  /* Reset the Output Compare mode and Capture/Compare selection Bits */
  tmpccmrx &= ~TIM_CCMR2_OC3M;
 8006328:	68fb      	ldr	r3, [r7, #12]
 800632a:	f023 0370 	bic.w	r3, r3, #112	@ 0x70
 800632e:	60fb      	str	r3, [r7, #12]
  tmpccmrx &= ~TIM_CCMR2_CC3S;
 8006330:	68fb      	ldr	r3, [r7, #12]
 8006332:	f023 0303 	bic.w	r3, r3, #3
 8006336:	60fb      	str	r3, [r7, #12]
  /* Select the Output Compare Mode */
  tmpccmrx |= OC_Config->OCMode;
 8006338:	683b      	ldr	r3, [r7, #0]
 800633a:	681b      	ldr	r3, [r3, #0]
 800633c:	68fa      	ldr	r2, [r7, #12]
 800633e:	4313      	orrs	r3, r2
 8006340:	60fb      	str	r3, [r7, #12]

  /* Reset the Output Polarity level */
  tmpccer &= ~TIM_CCER_CC3P;
 8006342:	697b      	ldr	r3, [r7, #20]
 8006344:	f423 7300 	bic.w	r3, r3, #512	@ 0x200
 8006348:	617b      	str	r3, [r7, #20]
  /* Set the Output Compare Polarity */
  tmpccer |= (OC_Config->OCPolarity << 8U);
 800634a:	683b      	ldr	r3, [r7, #0]
 800634c:	689b      	ldr	r3, [r3, #8]
 800634e:	021b      	lsls	r3, r3, #8
 8006350:	697a      	ldr	r2, [r7, #20]
 8006352:	4313      	orrs	r3, r2
 8006354:	617b      	str	r3, [r7, #20]

  if (IS_TIM_CCXN_INSTANCE(TIMx, TIM_CHANNEL_3))
 8006356:	687b      	ldr	r3, [r7, #4]
 8006358:	4a21      	ldr	r2, [pc, #132]	@ (80063e0 <TIM_OC3_SetConfig+0xe0>)
 800635a:	4293      	cmp	r3, r2
 800635c:	d003      	beq.n	8006366 <TIM_OC3_SetConfig+0x66>
 800635e:	687b      	ldr	r3, [r7, #4]
 8006360:	4a20      	ldr	r2, [pc, #128]	@ (80063e4 <TIM_OC3_SetConfig+0xe4>)
 8006362:	4293      	cmp	r3, r2
 8006364:	d10d      	bne.n	8006382 <TIM_OC3_SetConfig+0x82>
  {
    assert_param(IS_TIM_OCN_POLARITY(OC_Config->OCNPolarity));

    /* Reset the Output N Polarity level */
    tmpccer &= ~TIM_CCER_CC3NP;
 8006366:	697b      	ldr	r3, [r7, #20]
 8006368:	f423 6300 	bic.w	r3, r3, #2048	@ 0x800
 800636c:	617b      	str	r3, [r7, #20]
    /* Set the Output N Polarity */
    tmpccer |= (OC_Config->OCNPolarity << 8U);
 800636e:	683b      	ldr	r3, [r7, #0]
 8006370:	68db      	ldr	r3, [r3, #12]
 8006372:	021b      	lsls	r3, r3, #8
 8006374:	697a      	ldr	r2, [r7, #20]
 8006376:	4313      	orrs	r3, r2
 8006378:	617b      	str	r3, [r7, #20]
    /* Reset the Output N State */
    tmpccer &= ~TIM_CCER_CC3NE;
 800637a:	697b      	ldr	r3, [r7, #20]
 800637c:	f423 6380 	bic.w	r3, r3, #1024	@ 0x400
 8006380:	617b      	str	r3, [r7, #20]
  }

  if (IS_TIM_BREAK_INSTANCE(TIMx))
 8006382:	687b      	ldr	r3, [r7, #4]
 8006384:	4a16      	ldr	r2, [pc, #88]	@ (80063e0 <TIM_OC3_SetConfig+0xe0>)
 8006386:	4293      	cmp	r3, r2
 8006388:	d003      	beq.n	8006392 <TIM_OC3_SetConfig+0x92>
 800638a:	687b      	ldr	r3, [r7, #4]
 800638c:	4a15      	ldr	r2, [pc, #84]	@ (80063e4 <TIM_OC3_SetConfig+0xe4>)
 800638e:	4293      	cmp	r3, r2
 8006390:	d113      	bne.n	80063ba <TIM_OC3_SetConfig+0xba>
    /* Check parameters */
    assert_param(IS_TIM_OCNIDLE_STATE(OC_Config->OCNIdleState));
    assert_param(IS_TIM_OCIDLE_STATE(OC_Config->OCIdleState));

    /* Reset the Output Compare and Output Compare N IDLE State */
    tmpcr2 &= ~TIM_CR2_OIS3;
 8006392:	693b      	ldr	r3, [r7, #16]
 8006394:	f423 5380 	bic.w	r3, r3, #4096	@ 0x1000
 8006398:	613b      	str	r3, [r7, #16]
    tmpcr2 &= ~TIM_CR2_OIS3N;
 800639a:	693b      	ldr	r3, [r7, #16]
 800639c:	f423 5300 	bic.w	r3, r3, #8192	@ 0x2000
 80063a0:	613b      	str	r3, [r7, #16]
    /* Set the Output Idle state */
    tmpcr2 |= (OC_Config->OCIdleState << 4U);
 80063a2:	683b      	ldr	r3, [r7, #0]
 80063a4:	695b      	ldr	r3, [r3, #20]
 80063a6:	011b      	lsls	r3, r3, #4
 80063a8:	693a      	ldr	r2, [r7, #16]
 80063aa:	4313      	orrs	r3, r2
 80063ac:	613b      	str	r3, [r7, #16]
    /* Set the Output N Idle state */
    tmpcr2 |= (OC_Config->OCNIdleState << 4U);
 80063ae:	683b      	ldr	r3, [r7, #0]
 80063b0:	699b      	ldr	r3, [r3, #24]
 80063b2:	011b      	lsls	r3, r3, #4
 80063b4:	693a      	ldr	r2, [r7, #16]
 80063b6:	4313      	orrs	r3, r2
 80063b8:	613b      	str	r3, [r7, #16]
  }

  /* Write to TIMx CR2 */
  TIMx->CR2 = tmpcr2;
 80063ba:	687b      	ldr	r3, [r7, #4]
 80063bc:	693a      	ldr	r2, [r7, #16]
 80063be:	605a      	str	r2, [r3, #4]

  /* Write to TIMx CCMR2 */
  TIMx->CCMR2 = tmpccmrx;
 80063c0:	687b      	ldr	r3, [r7, #4]
 80063c2:	68fa      	ldr	r2, [r7, #12]
 80063c4:	61da      	str	r2, [r3, #28]

  /* Set the Capture Compare Register value */
  TIMx->CCR3 = OC_Config->Pulse;
 80063c6:	683b      	ldr	r3, [r7, #0]
 80063c8:	685a      	ldr	r2, [r3, #4]
 80063ca:	687b      	ldr	r3, [r7, #4]
 80063cc:	63da      	str	r2, [r3, #60]	@ 0x3c

  /* Write to TIMx CCER */
  TIMx->CCER = tmpccer;
 80063ce:	687b      	ldr	r3, [r7, #4]
 80063d0:	697a      	ldr	r2, [r7, #20]
 80063d2:	621a      	str	r2, [r3, #32]
}
 80063d4:	bf00      	nop
 80063d6:	371c      	adds	r7, #28
 80063d8:	46bd      	mov	sp, r7
 80063da:	f85d 7b04 	ldr.w	r7, [sp], #4
 80063de:	4770      	bx	lr
 80063e0:	40010000 	.word	0x40010000
 80063e4:	40010400 	.word	0x40010400

080063e8 <TIM_OC4_SetConfig>:
  * @param  TIMx to select the TIM peripheral
  * @param  OC_Config The output configuration structure
  * @retval None
  */
static void TIM_OC4_SetConfig(TIM_TypeDef *TIMx, const TIM_OC_InitTypeDef *OC_Config)
{
 80063e8:	b480      	push	{r7}
 80063ea:	b087      	sub	sp, #28
 80063ec:	af00      	add	r7, sp, #0
 80063ee:	6078      	str	r0, [r7, #4]
 80063f0:	6039      	str	r1, [r7, #0]
  uint32_t tmpccmrx;
  uint32_t tmpccer;
  uint32_t tmpcr2;

  /* Get the TIMx CCER register value */
  tmpccer = TIMx->CCER;
 80063f2:	687b      	ldr	r3, [r7, #4]
 80063f4:	6a1b      	ldr	r3, [r3, #32]
 80063f6:	613b      	str	r3, [r7, #16]

  /* Disable the Channel 4: Reset the CC4E Bit */
  TIMx->CCER &= ~TIM_CCER_CC4E;
 80063f8:	687b      	ldr	r3, [r7, #4]
 80063fa:	6a1b      	ldr	r3, [r3, #32]
 80063fc:	f423 5280 	bic.w	r2, r3, #4096	@ 0x1000
 8006400:	687b      	ldr	r3, [r7, #4]
 8006402:	621a      	str	r2, [r3, #32]

  /* Get the TIMx CR2 register value */
  tmpcr2 =  TIMx->CR2;
 8006404:	687b      	ldr	r3, [r7, #4]
 8006406:	685b      	ldr	r3, [r3, #4]
 8006408:	617b      	str	r3, [r7, #20]

  /* Get the TIMx CCMR2 register value */
  tmpccmrx = TIMx->CCMR2;
 800640a:	687b      	ldr	r3, [r7, #4]
 800640c:	69db      	ldr	r3, [r3, #28]
 800640e:	60fb      	str	r3, [r7, #12]

  /* Reset the Output Compare mode and Capture/Compare selection Bits */
  tmpccmrx &= ~TIM_CCMR2_OC4M;
 8006410:	68fb      	ldr	r3, [r7, #12]
 8006412:	f423 43e0 	bic.w	r3, r3, #28672	@ 0x7000
 8006416:	60fb      	str	r3, [r7, #12]
  tmpccmrx &= ~TIM_CCMR2_CC4S;
 8006418:	68fb      	ldr	r3, [r7, #12]
 800641a:	f423 7340 	bic.w	r3, r3, #768	@ 0x300
 800641e:	60fb      	str	r3, [r7, #12]

  /* Select the Output Compare Mode */
  tmpccmrx |= (OC_Config->OCMode << 8U);
 8006420:	683b      	ldr	r3, [r7, #0]
 8006422:	681b      	ldr	r3, [r3, #0]
 8006424:	021b      	lsls	r3, r3, #8
 8006426:	68fa      	ldr	r2, [r7, #12]
 8006428:	4313      	orrs	r3, r2
 800642a:	60fb      	str	r3, [r7, #12]

  /* Reset the Output Polarity level */
  tmpccer &= ~TIM_CCER_CC4P;
 800642c:	693b      	ldr	r3, [r7, #16]
 800642e:	f423 5300 	bic.w	r3, r3, #8192	@ 0x2000
 8006432:	613b      	str	r3, [r7, #16]
  /* Set the Output Compare Polarity */
  tmpccer |= (OC_Config->OCPolarity << 12U);
 8006434:	683b      	ldr	r3, [r7, #0]
 8006436:	689b      	ldr	r3, [r3, #8]
 8006438:	031b      	lsls	r3, r3, #12
 800643a:	693a      	ldr	r2, [r7, #16]
 800643c:	4313      	orrs	r3, r2
 800643e:	613b      	str	r3, [r7, #16]

  if (IS_TIM_BREAK_INSTANCE(TIMx))
 8006440:	687b      	ldr	r3, [r7, #4]
 8006442:	4a12      	ldr	r2, [pc, #72]	@ (800648c <TIM_OC4_SetConfig+0xa4>)
 8006444:	4293      	cmp	r3, r2
 8006446:	d003      	beq.n	8006450 <TIM_OC4_SetConfig+0x68>
 8006448:	687b      	ldr	r3, [r7, #4]
 800644a:	4a11      	ldr	r2, [pc, #68]	@ (8006490 <TIM_OC4_SetConfig+0xa8>)
 800644c:	4293      	cmp	r3, r2
 800644e:	d109      	bne.n	8006464 <TIM_OC4_SetConfig+0x7c>
  {
    /* Check parameters */
    assert_param(IS_TIM_OCIDLE_STATE(OC_Config->OCIdleState));

    /* Reset the Output Compare IDLE State */
    tmpcr2 &= ~TIM_CR2_OIS4;
 8006450:	697b      	ldr	r3, [r7, #20]
 8006452:	f423 4380 	bic.w	r3, r3, #16384	@ 0x4000
 8006456:	617b      	str	r3, [r7, #20]

    /* Set the Output Idle state */
    tmpcr2 |= (OC_Config->OCIdleState << 6U);
 8006458:	683b      	ldr	r3, [r7, #0]
 800645a:	695b      	ldr	r3, [r3, #20]
 800645c:	019b      	lsls	r3, r3, #6
 800645e:	697a      	ldr	r2, [r7, #20]
 8006460:	4313      	orrs	r3, r2
 8006462:	617b      	str	r3, [r7, #20]
  }

  /* Write to TIMx CR2 */
  TIMx->CR2 = tmpcr2;
 8006464:	687b      	ldr	r3, [r7, #4]
 8006466:	697a      	ldr	r2, [r7, #20]
 8006468:	605a      	str	r2, [r3, #4]

  /* Write to TIMx CCMR2 */
  TIMx->CCMR2 = tmpccmrx;
 800646a:	687b      	ldr	r3, [r7, #4]
 800646c:	68fa      	ldr	r2, [r7, #12]
 800646e:	61da      	str	r2, [r3, #28]

  /* Set the Capture Compare Register value */
  TIMx->CCR4 = OC_Config->Pulse;
 8006470:	683b      	ldr	r3, [r7, #0]
 8006472:	685a      	ldr	r2, [r3, #4]
 8006474:	687b      	ldr	r3, [r7, #4]
 8006476:	641a      	str	r2, [r3, #64]	@ 0x40

  /* Write to TIMx CCER */
  TIMx->CCER = tmpccer;
 8006478:	687b      	ldr	r3, [r7, #4]
 800647a:	693a      	ldr	r2, [r7, #16]
 800647c:	621a      	str	r2, [r3, #32]
}
 800647e:	bf00      	nop
 8006480:	371c      	adds	r7, #28
 8006482:	46bd      	mov	sp, r7
 8006484:	f85d 7b04 	ldr.w	r7, [sp], #4
 8006488:	4770      	bx	lr
 800648a:	bf00      	nop
 800648c:	40010000 	.word	0x40010000
 8006490:	40010400 	.word	0x40010400

08006494 <TIM_TI1_ConfigInputStage>:
  * @param  TIM_ICFilter Specifies the Input Capture Filter.
  *          This parameter must be a value between 0x00 and 0x0F.
  * @retval None
  */
static void TIM_TI1_ConfigInputStage(TIM_TypeDef *TIMx, uint32_t TIM_ICPolarity, uint32_t TIM_ICFilter)
{
 8006494:	b480      	push	{r7}
 8006496:	b087      	sub	sp, #28
 8006498:	af00      	add	r7, sp, #0
 800649a:	60f8      	str	r0, [r7, #12]
 800649c:	60b9      	str	r1, [r7, #8]
 800649e:	607a      	str	r2, [r7, #4]
  uint32_t tmpccmr1;
  uint32_t tmpccer;

  /* Disable the Channel 1: Reset the CC1E Bit */
  tmpccer = TIMx->CCER;
 80064a0:	68fb      	ldr	r3, [r7, #12]
 80064a2:	6a1b      	ldr	r3, [r3, #32]
 80064a4:	617b      	str	r3, [r7, #20]
  TIMx->CCER &= ~TIM_CCER_CC1E;
 80064a6:	68fb      	ldr	r3, [r7, #12]
 80064a8:	6a1b      	ldr	r3, [r3, #32]
 80064aa:	f023 0201 	bic.w	r2, r3, #1
 80064ae:	68fb      	ldr	r3, [r7, #12]
 80064b0:	621a      	str	r2, [r3, #32]
  tmpccmr1 = TIMx->CCMR1;
 80064b2:	68fb      	ldr	r3, [r7, #12]
 80064b4:	699b      	ldr	r3, [r3, #24]
 80064b6:	613b      	str	r3, [r7, #16]

  /* Set the filter */
  tmpccmr1 &= ~TIM_CCMR1_IC1F;
 80064b8:	693b      	ldr	r3, [r7, #16]
 80064ba:	f023 03f0 	bic.w	r3, r3, #240	@ 0xf0
 80064be:	613b      	str	r3, [r7, #16]
  tmpccmr1 |= (TIM_ICFilter << 4U);
 80064c0:	687b      	ldr	r3, [r7, #4]
 80064c2:	011b      	lsls	r3, r3, #4
 80064c4:	693a      	ldr	r2, [r7, #16]
 80064c6:	4313      	orrs	r3, r2
 80064c8:	613b      	str	r3, [r7, #16]

  /* Select the Polarity and set the CC1E Bit */
  tmpccer &= ~(TIM_CCER_CC1P | TIM_CCER_CC1NP);
 80064ca:	697b      	ldr	r3, [r7, #20]
 80064cc:	f023 030a 	bic.w	r3, r3, #10
 80064d0:	617b      	str	r3, [r7, #20]
  tmpccer |= TIM_ICPolarity;
 80064d2:	697a      	ldr	r2, [r7, #20]
 80064d4:	68bb      	ldr	r3, [r7, #8]
 80064d6:	4313      	orrs	r3, r2
 80064d8:	617b      	str	r3, [r7, #20]

  /* Write to TIMx CCMR1 and CCER registers */
  TIMx->CCMR1 = tmpccmr1;
 80064da:	68fb      	ldr	r3, [r7, #12]
 80064dc:	693a      	ldr	r2, [r7, #16]
 80064de:	619a      	str	r2, [r3, #24]
  TIMx->CCER = tmpccer;
 80064e0:	68fb      	ldr	r3, [r7, #12]
 80064e2:	697a      	ldr	r2, [r7, #20]
 80064e4:	621a      	str	r2, [r3, #32]
}
 80064e6:	bf00      	nop
 80064e8:	371c      	adds	r7, #28
 80064ea:	46bd      	mov	sp, r7
 80064ec:	f85d 7b04 	ldr.w	r7, [sp], #4
 80064f0:	4770      	bx	lr

080064f2 <TIM_TI2_ConfigInputStage>:
  * @param  TIM_ICFilter Specifies the Input Capture Filter.
  *          This parameter must be a value between 0x00 and 0x0F.
  * @retval None
  */
static void TIM_TI2_ConfigInputStage(TIM_TypeDef *TIMx, uint32_t TIM_ICPolarity, uint32_t TIM_ICFilter)
{
 80064f2:	b480      	push	{r7}
 80064f4:	b087      	sub	sp, #28
 80064f6:	af00      	add	r7, sp, #0
 80064f8:	60f8      	str	r0, [r7, #12]
 80064fa:	60b9      	str	r1, [r7, #8]
 80064fc:	607a      	str	r2, [r7, #4]
  uint32_t tmpccmr1;
  uint32_t tmpccer;

  /* Disable the Channel 2: Reset the CC2E Bit */
  tmpccer = TIMx->CCER;
 80064fe:	68fb      	ldr	r3, [r7, #12]
 8006500:	6a1b      	ldr	r3, [r3, #32]
 8006502:	617b      	str	r3, [r7, #20]
  TIMx->CCER &= ~TIM_CCER_CC2E;
 8006504:	68fb      	ldr	r3, [r7, #12]
 8006506:	6a1b      	ldr	r3, [r3, #32]
 8006508:	f023 0210 	bic.w	r2, r3, #16
 800650c:	68fb      	ldr	r3, [r7, #12]
 800650e:	621a      	str	r2, [r3, #32]
  tmpccmr1 = TIMx->CCMR1;
 8006510:	68fb      	ldr	r3, [r7, #12]
 8006512:	699b      	ldr	r3, [r3, #24]
 8006514:	613b      	str	r3, [r7, #16]

  /* Set the filter */
  tmpccmr1 &= ~TIM_CCMR1_IC2F;
 8006516:	693b      	ldr	r3, [r7, #16]
 8006518:	f423 4370 	bic.w	r3, r3, #61440	@ 0xf000
 800651c:	613b      	str	r3, [r7, #16]
  tmpccmr1 |= (TIM_ICFilter << 12U);
 800651e:	687b      	ldr	r3, [r7, #4]
 8006520:	031b      	lsls	r3, r3, #12
 8006522:	693a      	ldr	r2, [r7, #16]
 8006524:	4313      	orrs	r3, r2
 8006526:	613b      	str	r3, [r7, #16]

  /* Select the Polarity and set the CC2E Bit */
  tmpccer &= ~(TIM_CCER_CC2P | TIM_CCER_CC2NP);
 8006528:	697b      	ldr	r3, [r7, #20]
 800652a:	f023 03a0 	bic.w	r3, r3, #160	@ 0xa0
 800652e:	617b      	str	r3, [r7, #20]
  tmpccer |= (TIM_ICPolarity << 4U);
 8006530:	68bb      	ldr	r3, [r7, #8]
 8006532:	011b      	lsls	r3, r3, #4
 8006534:	697a      	ldr	r2, [r7, #20]
 8006536:	4313      	orrs	r3, r2
 8006538:	617b      	str	r3, [r7, #20]

  /* Write to TIMx CCMR1 and CCER registers */
  TIMx->CCMR1 = tmpccmr1 ;
 800653a:	68fb      	ldr	r3, [r7, #12]
 800653c:	693a      	ldr	r2, [r7, #16]
 800653e:	619a      	str	r2, [r3, #24]
  TIMx->CCER = tmpccer;
 8006540:	68fb      	ldr	r3, [r7, #12]
 8006542:	697a      	ldr	r2, [r7, #20]
 8006544:	621a      	str	r2, [r3, #32]
}
 8006546:	bf00      	nop
 8006548:	371c      	adds	r7, #28
 800654a:	46bd      	mov	sp, r7
 800654c:	f85d 7b04 	ldr.w	r7, [sp], #4
 8006550:	4770      	bx	lr

08006552 <TIM_ITRx_SetConfig>:
  *            @arg TIM_TS_TI2FP2: Filtered Timer Input 2
  *            @arg TIM_TS_ETRF: External Trigger input
  * @retval None
  */
static void TIM_ITRx_SetConfig(TIM_TypeDef *TIMx, uint32_t InputTriggerSource)
{
 8006552:	b480      	push	{r7}
 8006554:	b085      	sub	sp, #20
 8006556:	af00      	add	r7, sp, #0
 8006558:	6078      	str	r0, [r7, #4]
 800655a:	6039      	str	r1, [r7, #0]
  uint32_t tmpsmcr;

  /* Get the TIMx SMCR register value */
  tmpsmcr = TIMx->SMCR;
 800655c:	687b      	ldr	r3, [r7, #4]
 800655e:	689b      	ldr	r3, [r3, #8]
 8006560:	60fb      	str	r3, [r7, #12]
  /* Reset the TS Bits */
  tmpsmcr &= ~TIM_SMCR_TS;
 8006562:	68fb      	ldr	r3, [r7, #12]
 8006564:	f023 0370 	bic.w	r3, r3, #112	@ 0x70
 8006568:	60fb      	str	r3, [r7, #12]
  /* Set the Input Trigger source and the slave mode*/
  tmpsmcr |= (InputTriggerSource | TIM_SLAVEMODE_EXTERNAL1);
 800656a:	683a      	ldr	r2, [r7, #0]
 800656c:	68fb      	ldr	r3, [r7, #12]
 800656e:	4313      	orrs	r3, r2
 8006570:	f043 0307 	orr.w	r3, r3, #7
 8006574:	60fb      	str	r3, [r7, #12]
  /* Write to TIMx SMCR */
  TIMx->SMCR = tmpsmcr;
 8006576:	687b      	ldr	r3, [r7, #4]
 8006578:	68fa      	ldr	r2, [r7, #12]
 800657a:	609a      	str	r2, [r3, #8]
}
 800657c:	bf00      	nop
 800657e:	3714      	adds	r7, #20
 8006580:	46bd      	mov	sp, r7
 8006582:	f85d 7b04 	ldr.w	r7, [sp], #4
 8006586:	4770      	bx	lr

08006588 <TIM_ETR_SetConfig>:
  *          This parameter must be a value between 0x00 and 0x0F
  * @retval None
  */
void TIM_ETR_SetConfig(TIM_TypeDef *TIMx, uint32_t TIM_ExtTRGPrescaler,
                       uint32_t TIM_ExtTRGPolarity, uint32_t ExtTRGFilter)
{
 8006588:	b480      	push	{r7}
 800658a:	b087      	sub	sp, #28
 800658c:	af00      	add	r7, sp, #0
 800658e:	60f8      	str	r0, [r7, #12]
 8006590:	60b9      	str	r1, [r7, #8]
 8006592:	607a      	str	r2, [r7, #4]
 8006594:	603b      	str	r3, [r7, #0]
  uint32_t tmpsmcr;

  tmpsmcr = TIMx->SMCR;
 8006596:	68fb      	ldr	r3, [r7, #12]
 8006598:	689b      	ldr	r3, [r3, #8]
 800659a:	617b      	str	r3, [r7, #20]

  /* Reset the ETR Bits */
  tmpsmcr &= ~(TIM_SMCR_ETF | TIM_SMCR_ETPS | TIM_SMCR_ECE | TIM_SMCR_ETP);
 800659c:	697b      	ldr	r3, [r7, #20]
 800659e:	f423 437f 	bic.w	r3, r3, #65280	@ 0xff00
 80065a2:	617b      	str	r3, [r7, #20]

  /* Set the Prescaler, the Filter value and the Polarity */
  tmpsmcr |= (uint32_t)(TIM_ExtTRGPrescaler | (TIM_ExtTRGPolarity | (ExtTRGFilter << 8U)));
 80065a4:	683b      	ldr	r3, [r7, #0]
 80065a6:	021a      	lsls	r2, r3, #8
 80065a8:	687b      	ldr	r3, [r7, #4]
 80065aa:	431a      	orrs	r2, r3
 80065ac:	68bb      	ldr	r3, [r7, #8]
 80065ae:	4313      	orrs	r3, r2
 80065b0:	697a      	ldr	r2, [r7, #20]
 80065b2:	4313      	orrs	r3, r2
 80065b4:	617b      	str	r3, [r7, #20]

  /* Write to TIMx SMCR */
  TIMx->SMCR = tmpsmcr;
 80065b6:	68fb      	ldr	r3, [r7, #12]
 80065b8:	697a      	ldr	r2, [r7, #20]
 80065ba:	609a      	str	r2, [r3, #8]
}
 80065bc:	bf00      	nop
 80065be:	371c      	adds	r7, #28
 80065c0:	46bd      	mov	sp, r7
 80065c2:	f85d 7b04 	ldr.w	r7, [sp], #4
 80065c6:	4770      	bx	lr

080065c8 <TIM_CCxChannelCmd>:
  * @param  ChannelState specifies the TIM Channel CCxE bit new state.
  *          This parameter can be: TIM_CCx_ENABLE or TIM_CCx_DISABLE.
  * @retval None
  */
void TIM_CCxChannelCmd(TIM_TypeDef *TIMx, uint32_t Channel, uint32_t ChannelState)
{
 80065c8:	b480      	push	{r7}
 80065ca:	b087      	sub	sp, #28
 80065cc:	af00      	add	r7, sp, #0
 80065ce:	60f8      	str	r0, [r7, #12]
 80065d0:	60b9      	str	r1, [r7, #8]
 80065d2:	607a      	str	r2, [r7, #4]

  /* Check the parameters */
  assert_param(IS_TIM_CC1_INSTANCE(TIMx));
  assert_param(IS_TIM_CHANNELS(Channel));

  tmp = TIM_CCER_CC1E << (Channel & 0x1FU); /* 0x1FU = 31 bits max shift */
 80065d4:	68bb      	ldr	r3, [r7, #8]
 80065d6:	f003 031f 	and.w	r3, r3, #31
 80065da:	2201      	movs	r2, #1
 80065dc:	fa02 f303 	lsl.w	r3, r2, r3
 80065e0:	617b      	str	r3, [r7, #20]

  /* Reset the CCxE Bit */
  TIMx->CCER &= ~tmp;
 80065e2:	68fb      	ldr	r3, [r7, #12]
 80065e4:	6a1a      	ldr	r2, [r3, #32]
 80065e6:	697b      	ldr	r3, [r7, #20]
 80065e8:	43db      	mvns	r3, r3
 80065ea:	401a      	ands	r2, r3
 80065ec:	68fb      	ldr	r3, [r7, #12]
 80065ee:	621a      	str	r2, [r3, #32]

  /* Set or reset the CCxE Bit */
  TIMx->CCER |= (uint32_t)(ChannelState << (Channel & 0x1FU)); /* 0x1FU = 31 bits max shift */
 80065f0:	68fb      	ldr	r3, [r7, #12]
 80065f2:	6a1a      	ldr	r2, [r3, #32]
 80065f4:	68bb      	ldr	r3, [r7, #8]
 80065f6:	f003 031f 	and.w	r3, r3, #31
 80065fa:	6879      	ldr	r1, [r7, #4]
 80065fc:	fa01 f303 	lsl.w	r3, r1, r3
 8006600:	431a      	orrs	r2, r3
 8006602:	68fb      	ldr	r3, [r7, #12]
 8006604:	621a      	str	r2, [r3, #32]
}
 8006606:	bf00      	nop
 8006608:	371c      	adds	r7, #28
 800660a:	46bd      	mov	sp, r7
 800660c:	f85d 7b04 	ldr.w	r7, [sp], #4
 8006610:	4770      	bx	lr
	...

08006614 <HAL_TIMEx_MasterConfigSynchronization>:
  *         mode.
  * @retval HAL status
  */
HAL_StatusTypeDef HAL_TIMEx_MasterConfigSynchronization(TIM_HandleTypeDef *htim,
                                                        const TIM_MasterConfigTypeDef *sMasterConfig)
{
 8006614:	b480      	push	{r7}
 8006616:	b085      	sub	sp, #20
 8006618:	af00      	add	r7, sp, #0
 800661a:	6078      	str	r0, [r7, #4]
 800661c:	6039      	str	r1, [r7, #0]
  assert_param(IS_TIM_MASTER_INSTANCE(htim->Instance));
  assert_param(IS_TIM_TRGO_SOURCE(sMasterConfig->MasterOutputTrigger));
  assert_param(IS_TIM_MSM_STATE(sMasterConfig->MasterSlaveMode));

  /* Check input state */
  __HAL_LOCK(htim);
 800661e:	687b      	ldr	r3, [r7, #4]
 8006620:	f893 303c 	ldrb.w	r3, [r3, #60]	@ 0x3c
 8006624:	2b01      	cmp	r3, #1
 8006626:	d101      	bne.n	800662c <HAL_TIMEx_MasterConfigSynchronization+0x18>
 8006628:	2302      	movs	r3, #2
 800662a:	e05a      	b.n	80066e2 <HAL_TIMEx_MasterConfigSynchronization+0xce>
 800662c:	687b      	ldr	r3, [r7, #4]
 800662e:	2201      	movs	r2, #1
 8006630:	f883 203c 	strb.w	r2, [r3, #60]	@ 0x3c

  /* Change the handler state */
  htim->State = HAL_TIM_STATE_BUSY;
 8006634:	687b      	ldr	r3, [r7, #4]
 8006636:	2202      	movs	r2, #2
 8006638:	f883 203d 	strb.w	r2, [r3, #61]	@ 0x3d

  /* Get the TIMx CR2 register value */
  tmpcr2 = htim->Instance->CR2;
 800663c:	687b      	ldr	r3, [r7, #4]
 800663e:	681b      	ldr	r3, [r3, #0]
 8006640:	685b      	ldr	r3, [r3, #4]
 8006642:	60fb      	str	r3, [r7, #12]

  /* Get the TIMx SMCR register value */
  tmpsmcr = htim->Instance->SMCR;
 8006644:	687b      	ldr	r3, [r7, #4]
 8006646:	681b      	ldr	r3, [r3, #0]
 8006648:	689b      	ldr	r3, [r3, #8]
 800664a:	60bb      	str	r3, [r7, #8]

  /* Reset the MMS Bits */
  tmpcr2 &= ~TIM_CR2_MMS;
 800664c:	68fb      	ldr	r3, [r7, #12]
 800664e:	f023 0370 	bic.w	r3, r3, #112	@ 0x70
 8006652:	60fb      	str	r3, [r7, #12]
  /* Select the TRGO source */
  tmpcr2 |=  sMasterConfig->MasterOutputTrigger;
 8006654:	683b      	ldr	r3, [r7, #0]
 8006656:	681b      	ldr	r3, [r3, #0]
 8006658:	68fa      	ldr	r2, [r7, #12]
 800665a:	4313      	orrs	r3, r2
 800665c:	60fb      	str	r3, [r7, #12]

  /* Update TIMx CR2 */
  htim->Instance->CR2 = tmpcr2;
 800665e:	687b      	ldr	r3, [r7, #4]
 8006660:	681b      	ldr	r3, [r3, #0]
 8006662:	68fa      	ldr	r2, [r7, #12]
 8006664:	605a      	str	r2, [r3, #4]

  if (IS_TIM_SLAVE_INSTANCE(htim->Instance))
 8006666:	687b      	ldr	r3, [r7, #4]
 8006668:	681b      	ldr	r3, [r3, #0]
 800666a:	4a21      	ldr	r2, [pc, #132]	@ (80066f0 <HAL_TIMEx_MasterConfigSynchronization+0xdc>)
 800666c:	4293      	cmp	r3, r2
 800666e:	d022      	beq.n	80066b6 <HAL_TIMEx_MasterConfigSynchronization+0xa2>
 8006670:	687b      	ldr	r3, [r7, #4]
 8006672:	681b      	ldr	r3, [r3, #0]
 8006674:	f1b3 4f80 	cmp.w	r3, #1073741824	@ 0x40000000
 8006678:	d01d      	beq.n	80066b6 <HAL_TIMEx_MasterConfigSynchronization+0xa2>
 800667a:	687b      	ldr	r3, [r7, #4]
 800667c:	681b      	ldr	r3, [r3, #0]
 800667e:	4a1d      	ldr	r2, [pc, #116]	@ (80066f4 <HAL_TIMEx_MasterConfigSynchronization+0xe0>)
 8006680:	4293      	cmp	r3, r2
 8006682:	d018      	beq.n	80066b6 <HAL_TIMEx_MasterConfigSynchronization+0xa2>
 8006684:	687b      	ldr	r3, [r7, #4]
 8006686:	681b      	ldr	r3, [r3, #0]
 8006688:	4a1b      	ldr	r2, [pc, #108]	@ (80066f8 <HAL_TIMEx_MasterConfigSynchronization+0xe4>)
 800668a:	4293      	cmp	r3, r2
 800668c:	d013      	beq.n	80066b6 <HAL_TIMEx_MasterConfigSynchronization+0xa2>
 800668e:	687b      	ldr	r3, [r7, #4]
 8006690:	681b      	ldr	r3, [r3, #0]
 8006692:	4a1a      	ldr	r2, [pc, #104]	@ (80066fc <HAL_TIMEx_MasterConfigSynchronization+0xe8>)
 8006694:	4293      	cmp	r3, r2
 8006696:	d00e      	beq.n	80066b6 <HAL_TIMEx_MasterConfigSynchronization+0xa2>
 8006698:	687b      	ldr	r3, [r7, #4]
 800669a:	681b      	ldr	r3, [r3, #0]
 800669c:	4a18      	ldr	r2, [pc, #96]	@ (8006700 <HAL_TIMEx_MasterConfigSynchronization+0xec>)
 800669e:	4293      	cmp	r3, r2
 80066a0:	d009      	beq.n	80066b6 <HAL_TIMEx_MasterConfigSynchronization+0xa2>
 80066a2:	687b      	ldr	r3, [r7, #4]
 80066a4:	681b      	ldr	r3, [r3, #0]
 80066a6:	4a17      	ldr	r2, [pc, #92]	@ (8006704 <HAL_TIMEx_MasterConfigSynchronization+0xf0>)
 80066a8:	4293      	cmp	r3, r2
 80066aa:	d004      	beq.n	80066b6 <HAL_TIMEx_MasterConfigSynchronization+0xa2>
 80066ac:	687b      	ldr	r3, [r7, #4]
 80066ae:	681b      	ldr	r3, [r3, #0]
 80066b0:	4a15      	ldr	r2, [pc, #84]	@ (8006708 <HAL_TIMEx_MasterConfigSynchronization+0xf4>)
 80066b2:	4293      	cmp	r3, r2
 80066b4:	d10c      	bne.n	80066d0 <HAL_TIMEx_MasterConfigSynchronization+0xbc>
  {
    /* Reset the MSM Bit */
    tmpsmcr &= ~TIM_SMCR_MSM;
 80066b6:	68bb      	ldr	r3, [r7, #8]
 80066b8:	f023 0380 	bic.w	r3, r3, #128	@ 0x80
 80066bc:	60bb      	str	r3, [r7, #8]
    /* Set master mode */
    tmpsmcr |= sMasterConfig->MasterSlaveMode;
 80066be:	683b      	ldr	r3, [r7, #0]
 80066c0:	685b      	ldr	r3, [r3, #4]
 80066c2:	68ba      	ldr	r2, [r7, #8]
 80066c4:	4313      	orrs	r3, r2
 80066c6:	60bb      	str	r3, [r7, #8]

    /* Update TIMx SMCR */
    htim->Instance->SMCR = tmpsmcr;
 80066c8:	687b      	ldr	r3, [r7, #4]
 80066ca:	681b      	ldr	r3, [r3, #0]
 80066cc:	68ba      	ldr	r2, [r7, #8]
 80066ce:	609a      	str	r2, [r3, #8]
  }

  /* Change the htim state */
  htim->State = HAL_TIM_STATE_READY;
 80066d0:	687b      	ldr	r3, [r7, #4]
 80066d2:	2201      	movs	r2, #1
 80066d4:	f883 203d 	strb.w	r2, [r3, #61]	@ 0x3d

  __HAL_UNLOCK(htim);
 80066d8:	687b      	ldr	r3, [r7, #4]
 80066da:	2200      	movs	r2, #0
 80066dc:	f883 203c 	strb.w	r2, [r3, #60]	@ 0x3c

  return HAL_OK;
 80066e0:	2300      	movs	r3, #0
}
 80066e2:	4618      	mov	r0, r3
 80066e4:	3714      	adds	r7, #20
 80066e6:	46bd      	mov	sp, r7
 80066e8:	f85d 7b04 	ldr.w	r7, [sp], #4
 80066ec:	4770      	bx	lr
 80066ee:	bf00      	nop
 80066f0:	40010000 	.word	0x40010000
 80066f4:	40000400 	.word	0x40000400
 80066f8:	40000800 	.word	0x40000800
 80066fc:	40000c00 	.word	0x40000c00
 8006700:	40010400 	.word	0x40010400
 8006704:	40014000 	.word	0x40014000
 8006708:	40001800 	.word	0x40001800

0800670c <HAL_TIMEx_ConfigBreakDeadTime>:
  *         interrupt can be enabled by calling the @ref __HAL_TIM_ENABLE_IT macro.
  * @retval HAL status
  */
HAL_StatusTypeDef HAL_TIMEx_ConfigBreakDeadTime(TIM_HandleTypeDef *htim,
                                                const TIM_BreakDeadTimeConfigTypeDef *sBreakDeadTimeConfig)
{
 800670c:	b480      	push	{r7}
 800670e:	b085      	sub	sp, #20
 8006710:	af00      	add	r7, sp, #0
 8006712:	6078      	str	r0, [r7, #4]
 8006714:	6039      	str	r1, [r7, #0]
  /* Keep this variable initialized to 0 as it is used to configure BDTR register */
  uint32_t tmpbdtr = 0U;
 8006716:	2300      	movs	r3, #0
 8006718:	60fb      	str	r3, [r7, #12]
  assert_param(IS_TIM_BREAK_STATE(sBreakDeadTimeConfig->BreakState));
  assert_param(IS_TIM_BREAK_POLARITY(sBreakDeadTimeConfig->BreakPolarity));
  assert_param(IS_TIM_AUTOMATIC_OUTPUT_STATE(sBreakDeadTimeConfig->AutomaticOutput));

  /* Check input state */
  __HAL_LOCK(htim);
 800671a:	687b      	ldr	r3, [r7, #4]
 800671c:	f893 303c 	ldrb.w	r3, [r3, #60]	@ 0x3c
 8006720:	2b01      	cmp	r3, #1
 8006722:	d101      	bne.n	8006728 <HAL_TIMEx_ConfigBreakDeadTime+0x1c>
 8006724:	2302      	movs	r3, #2
 8006726:	e03d      	b.n	80067a4 <HAL_TIMEx_ConfigBreakDeadTime+0x98>
 8006728:	687b      	ldr	r3, [r7, #4]
 800672a:	2201      	movs	r2, #1
 800672c:	f883 203c 	strb.w	r2, [r3, #60]	@ 0x3c

  /* Set the Lock level, the Break enable Bit and the Polarity, the OSSR State,
     the OSSI State, the dead time value and the Automatic Output Enable Bit */

  /* Set the BDTR bits */
  MODIFY_REG(tmpbdtr, TIM_BDTR_DTG, sBreakDeadTimeConfig->DeadTime);
 8006730:	68fb      	ldr	r3, [r7, #12]
 8006732:	f023 02ff 	bic.w	r2, r3, #255	@ 0xff
 8006736:	683b      	ldr	r3, [r7, #0]
 8006738:	68db      	ldr	r3, [r3, #12]
 800673a:	4313      	orrs	r3, r2
 800673c:	60fb      	str	r3, [r7, #12]
  MODIFY_REG(tmpbdtr, TIM_BDTR_LOCK, sBreakDeadTimeConfig->LockLevel);
 800673e:	68fb      	ldr	r3, [r7, #12]
 8006740:	f423 7240 	bic.w	r2, r3, #768	@ 0x300
 8006744:	683b      	ldr	r3, [r7, #0]
 8006746:	689b      	ldr	r3, [r3, #8]
 8006748:	4313      	orrs	r3, r2
 800674a:	60fb      	str	r3, [r7, #12]
  MODIFY_REG(tmpbdtr, TIM_BDTR_OSSI, sBreakDeadTimeConfig->OffStateIDLEMode);
 800674c:	68fb      	ldr	r3, [r7, #12]
 800674e:	f423 6280 	bic.w	r2, r3, #1024	@ 0x400
 8006752:	683b      	ldr	r3, [r7, #0]
 8006754:	685b      	ldr	r3, [r3, #4]
 8006756:	4313      	orrs	r3, r2
 8006758:	60fb      	str	r3, [r7, #12]
  MODIFY_REG(tmpbdtr, TIM_BDTR_OSSR, sBreakDeadTimeConfig->OffStateRunMode);
 800675a:	68fb      	ldr	r3, [r7, #12]
 800675c:	f423 6200 	bic.w	r2, r3, #2048	@ 0x800
 8006760:	683b      	ldr	r3, [r7, #0]
 8006762:	681b      	ldr	r3, [r3, #0]
 8006764:	4313      	orrs	r3, r2
 8006766:	60fb      	str	r3, [r7, #12]
  MODIFY_REG(tmpbdtr, TIM_BDTR_BKE, sBreakDeadTimeConfig->BreakState);
 8006768:	68fb      	ldr	r3, [r7, #12]
 800676a:	f423 5280 	bic.w	r2, r3, #4096	@ 0x1000
 800676e:	683b      	ldr	r3, [r7, #0]
 8006770:	691b      	ldr	r3, [r3, #16]
 8006772:	4313      	orrs	r3, r2
 8006774:	60fb      	str	r3, [r7, #12]
  MODIFY_REG(tmpbdtr, TIM_BDTR_BKP, sBreakDeadTimeConfig->BreakPolarity);
 8006776:	68fb      	ldr	r3, [r7, #12]
 8006778:	f423 5200 	bic.w	r2, r3, #8192	@ 0x2000
 800677c:	683b      	ldr	r3, [r7, #0]
 800677e:	695b      	ldr	r3, [r3, #20]
 8006780:	4313      	orrs	r3, r2
 8006782:	60fb      	str	r3, [r7, #12]
  MODIFY_REG(tmpbdtr, TIM_BDTR_AOE, sBreakDeadTimeConfig->AutomaticOutput);
 8006784:	68fb      	ldr	r3, [r7, #12]
 8006786:	f423 4280 	bic.w	r2, r3, #16384	@ 0x4000
 800678a:	683b      	ldr	r3, [r7, #0]
 800678c:	69db      	ldr	r3, [r3, #28]
 800678e:	4313      	orrs	r3, r2
 8006790:	60fb      	str	r3, [r7, #12]


  /* Set TIMx_BDTR */
  htim->Instance->BDTR = tmpbdtr;
 8006792:	687b      	ldr	r3, [r7, #4]
 8006794:	681b      	ldr	r3, [r3, #0]
 8006796:	68fa      	ldr	r2, [r7, #12]
 8006798:	645a      	str	r2, [r3, #68]	@ 0x44

  __HAL_UNLOCK(htim);
 800679a:	687b      	ldr	r3, [r7, #4]
 800679c:	2200      	movs	r2, #0
 800679e:	f883 203c 	strb.w	r2, [r3, #60]	@ 0x3c

  return HAL_OK;
 80067a2:	2300      	movs	r3, #0
}
 80067a4:	4618      	mov	r0, r3
 80067a6:	3714      	adds	r7, #20
 80067a8:	46bd      	mov	sp, r7
 80067aa:	f85d 7b04 	ldr.w	r7, [sp], #4
 80067ae:	4770      	bx	lr

080067b0 <HAL_TIMEx_CommutCallback>:
  * @brief  Commutation callback in non-blocking mode
  * @param  htim TIM handle
  * @retval None
  */
__weak void HAL_TIMEx_CommutCallback(TIM_HandleTypeDef *htim)
{
 80067b0:	b480      	push	{r7}
 80067b2:	b083      	sub	sp, #12
 80067b4:	af00      	add	r7, sp, #0
 80067b6:	6078      	str	r0, [r7, #4]
  UNUSED(htim);

  /* NOTE : This function should not be modified, when the callback is needed,
            the HAL_TIMEx_CommutCallback could be implemented in the user file
   */
}
 80067b8:	bf00      	nop
 80067ba:	370c      	adds	r7, #12
 80067bc:	46bd      	mov	sp, r7
 80067be:	f85d 7b04 	ldr.w	r7, [sp], #4
 80067c2:	4770      	bx	lr

080067c4 <HAL_TIMEx_BreakCallback>:
  * @brief  Break detection callback in non-blocking mode
  * @param  htim TIM handle
  * @retval None
  */
__weak void HAL_TIMEx_BreakCallback(TIM_HandleTypeDef *htim)
{
 80067c4:	b480      	push	{r7}
 80067c6:	b083      	sub	sp, #12
 80067c8:	af00      	add	r7, sp, #0
 80067ca:	6078      	str	r0, [r7, #4]
  UNUSED(htim);

  /* NOTE : This function should not be modified, when the callback is needed,
            the HAL_TIMEx_BreakCallback could be implemented in the user file
   */
}
 80067cc:	bf00      	nop
 80067ce:	370c      	adds	r7, #12
 80067d0:	46bd      	mov	sp, r7
 80067d2:	f85d 7b04 	ldr.w	r7, [sp], #4
 80067d6:	4770      	bx	lr

080067d8 <HAL_UART_Init>:
  * @param  huart  Pointer to a UART_HandleTypeDef structure that contains
  *                the configuration information for the specified UART module.
  * @retval HAL status
  */
HAL_StatusTypeDef HAL_UART_Init(UART_HandleTypeDef *huart)
{
 80067d8:	b580      	push	{r7, lr}
 80067da:	b082      	sub	sp, #8
 80067dc:	af00      	add	r7, sp, #0
 80067de:	6078      	str	r0, [r7, #4]
  /* Check the UART handle allocation */
  if (huart == NULL)
 80067e0:	687b      	ldr	r3, [r7, #4]
 80067e2:	2b00      	cmp	r3, #0
 80067e4:	d101      	bne.n	80067ea <HAL_UART_Init+0x12>
  {
    return HAL_ERROR;
 80067e6:	2301      	movs	r3, #1
 80067e8:	e042      	b.n	8006870 <HAL_UART_Init+0x98>
    assert_param(IS_UART_INSTANCE(huart->Instance));
  }
  assert_param(IS_UART_WORD_LENGTH(huart->Init.WordLength));
  assert_param(IS_UART_OVERSAMPLING(huart->Init.OverSampling));

  if (huart->gState == HAL_UART_STATE_RESET)
 80067ea:	687b      	ldr	r3, [r7, #4]
 80067ec:	f893 3041 	ldrb.w	r3, [r3, #65]	@ 0x41
 80067f0:	b2db      	uxtb	r3, r3
 80067f2:	2b00      	cmp	r3, #0
 80067f4:	d106      	bne.n	8006804 <HAL_UART_Init+0x2c>
  {
    /* Allocate lock resource and initialize it */
    huart->Lock = HAL_UNLOCKED;
 80067f6:	687b      	ldr	r3, [r7, #4]
 80067f8:	2200      	movs	r2, #0
 80067fa:	f883 2040 	strb.w	r2, [r3, #64]	@ 0x40

    /* Init the low level hardware */
    huart->MspInitCallback(huart);
#else
    /* Init the low level hardware : GPIO, CLOCK */
    HAL_UART_MspInit(huart);
 80067fe:	6878      	ldr	r0, [r7, #4]
 8006800:	f7fb f932 	bl	8001a68 <HAL_UART_MspInit>
#endif /* (USE_HAL_UART_REGISTER_CALLBACKS) */
  }

  huart->gState = HAL_UART_STATE_BUSY;
 8006804:	687b      	ldr	r3, [r7, #4]
 8006806:	2224      	movs	r2, #36	@ 0x24
 8006808:	f883 2041 	strb.w	r2, [r3, #65]	@ 0x41

  /* Disable the peripheral */
  __HAL_UART_DISABLE(huart);
 800680c:	687b      	ldr	r3, [r7, #4]
 800680e:	681b      	ldr	r3, [r3, #0]
 8006810:	68da      	ldr	r2, [r3, #12]
 8006812:	687b      	ldr	r3, [r7, #4]
 8006814:	681b      	ldr	r3, [r3, #0]
 8006816:	f422 5200 	bic.w	r2, r2, #8192	@ 0x2000
 800681a:	60da      	str	r2, [r3, #12]

  /* Set the UART Communication parameters */
  UART_SetConfig(huart);
 800681c:	6878      	ldr	r0, [r7, #4]
 800681e:	f000 f82b 	bl	8006878 <UART_SetConfig>

  /* In asynchronous mode, the following bits must be kept cleared:
     - LINEN and CLKEN bits in the USART_CR2 register,
     - SCEN, HDSEL and IREN  bits in the USART_CR3 register.*/
  CLEAR_BIT(huart->Instance->CR2, (USART_CR2_LINEN | USART_CR2_CLKEN));
 8006822:	687b      	ldr	r3, [r7, #4]
 8006824:	681b      	ldr	r3, [r3, #0]
 8006826:	691a      	ldr	r2, [r3, #16]
 8006828:	687b      	ldr	r3, [r7, #4]
 800682a:	681b      	ldr	r3, [r3, #0]
 800682c:	f422 4290 	bic.w	r2, r2, #18432	@ 0x4800
 8006830:	611a      	str	r2, [r3, #16]
  CLEAR_BIT(huart->Instance->CR3, (USART_CR3_SCEN | USART_CR3_HDSEL | USART_CR3_IREN));
 8006832:	687b      	ldr	r3, [r7, #4]
 8006834:	681b      	ldr	r3, [r3, #0]
 8006836:	695a      	ldr	r2, [r3, #20]
 8006838:	687b      	ldr	r3, [r7, #4]
 800683a:	681b      	ldr	r3, [r3, #0]
 800683c:	f022 022a 	bic.w	r2, r2, #42	@ 0x2a
 8006840:	615a      	str	r2, [r3, #20]

  /* Enable the peripheral */
  __HAL_UART_ENABLE(huart);
 8006842:	687b      	ldr	r3, [r7, #4]
 8006844:	681b      	ldr	r3, [r3, #0]
 8006846:	68da      	ldr	r2, [r3, #12]
 8006848:	687b      	ldr	r3, [r7, #4]
 800684a:	681b      	ldr	r3, [r3, #0]
 800684c:	f442 5200 	orr.w	r2, r2, #8192	@ 0x2000
 8006850:	60da      	str	r2, [r3, #12]

  /* Initialize the UART state */
  huart->ErrorCode = HAL_UART_ERROR_NONE;
 8006852:	687b      	ldr	r3, [r7, #4]
 8006854:	2200      	movs	r2, #0
 8006856:	645a      	str	r2, [r3, #68]	@ 0x44
  huart->gState = HAL_UART_STATE_READY;
 8006858:	687b      	ldr	r3, [r7, #4]
 800685a:	2220      	movs	r2, #32
 800685c:	f883 2041 	strb.w	r2, [r3, #65]	@ 0x41
  huart->RxState = HAL_UART_STATE_READY;
 8006860:	687b      	ldr	r3, [r7, #4]
 8006862:	2220      	movs	r2, #32
 8006864:	f883 2042 	strb.w	r2, [r3, #66]	@ 0x42
  huart->RxEventType = HAL_UART_RXEVENT_TC;
 8006868:	687b      	ldr	r3, [r7, #4]
 800686a:	2200      	movs	r2, #0
 800686c:	635a      	str	r2, [r3, #52]	@ 0x34

  return HAL_OK;
 800686e:	2300      	movs	r3, #0
}
 8006870:	4618      	mov	r0, r3
 8006872:	3708      	adds	r7, #8
 8006874:	46bd      	mov	sp, r7
 8006876:	bd80      	pop	{r7, pc}

08006878 <UART_SetConfig>:
  * @param  huart  Pointer to a UART_HandleTypeDef structure that contains
  *                the configuration information for the specified UART module.
  * @retval None
  */
static void UART_SetConfig(UART_HandleTypeDef *huart)
{
 8006878:	e92d 4fb0 	stmdb	sp!, {r4, r5, r7, r8, r9, sl, fp, lr}
 800687c:	b0c0      	sub	sp, #256	@ 0x100
 800687e:	af00      	add	r7, sp, #0
 8006880:	f8c7 00f4 	str.w	r0, [r7, #244]	@ 0xf4
  assert_param(IS_UART_MODE(huart->Init.Mode));

  /*-------------------------- USART CR2 Configuration -----------------------*/
  /* Configure the UART Stop Bits: Set STOP[13:12] bits
     according to huart->Init.StopBits value */
  MODIFY_REG(huart->Instance->CR2, USART_CR2_STOP, huart->Init.StopBits);
 8006884:	f8d7 30f4 	ldr.w	r3, [r7, #244]	@ 0xf4
 8006888:	681b      	ldr	r3, [r3, #0]
 800688a:	691b      	ldr	r3, [r3, #16]
 800688c:	f423 5040 	bic.w	r0, r3, #12288	@ 0x3000
 8006890:	f8d7 30f4 	ldr.w	r3, [r7, #244]	@ 0xf4
 8006894:	68d9      	ldr	r1, [r3, #12]
 8006896:	f8d7 30f4 	ldr.w	r3, [r7, #244]	@ 0xf4
 800689a:	681a      	ldr	r2, [r3, #0]
 800689c:	ea40 0301 	orr.w	r3, r0, r1
 80068a0:	6113      	str	r3, [r2, #16]
     Set the M bits according to huart->Init.WordLength value
     Set PCE and PS bits according to huart->Init.Parity value
     Set TE and RE bits according to huart->Init.Mode value
     Set OVER8 bit according to huart->Init.OverSampling value */

  tmpreg = (uint32_t)huart->Init.WordLength | huart->Init.Parity | huart->Init.Mode | huart->Init.OverSampling;
 80068a2:	f8d7 30f4 	ldr.w	r3, [r7, #244]	@ 0xf4
 80068a6:	689a      	ldr	r2, [r3, #8]
 80068a8:	f8d7 30f4 	ldr.w	r3, [r7, #244]	@ 0xf4
 80068ac:	691b      	ldr	r3, [r3, #16]
 80068ae:	431a      	orrs	r2, r3
 80068b0:	f8d7 30f4 	ldr.w	r3, [r7, #244]	@ 0xf4
 80068b4:	695b      	ldr	r3, [r3, #20]
 80068b6:	431a      	orrs	r2, r3
 80068b8:	f8d7 30f4 	ldr.w	r3, [r7, #244]	@ 0xf4
 80068bc:	69db      	ldr	r3, [r3, #28]
 80068be:	4313      	orrs	r3, r2
 80068c0:	f8c7 30f8 	str.w	r3, [r7, #248]	@ 0xf8
  MODIFY_REG(huart->Instance->CR1,
 80068c4:	f8d7 30f4 	ldr.w	r3, [r7, #244]	@ 0xf4
 80068c8:	681b      	ldr	r3, [r3, #0]
 80068ca:	68db      	ldr	r3, [r3, #12]
 80068cc:	f423 4116 	bic.w	r1, r3, #38400	@ 0x9600
 80068d0:	f021 010c 	bic.w	r1, r1, #12
 80068d4:	f8d7 30f4 	ldr.w	r3, [r7, #244]	@ 0xf4
 80068d8:	681a      	ldr	r2, [r3, #0]
 80068da:	f8d7 30f8 	ldr.w	r3, [r7, #248]	@ 0xf8
 80068de:	430b      	orrs	r3, r1
 80068e0:	60d3      	str	r3, [r2, #12]
             (uint32_t)(USART_CR1_M | USART_CR1_PCE | USART_CR1_PS | USART_CR1_TE | USART_CR1_RE | USART_CR1_OVER8),
             tmpreg);

  /*-------------------------- USART CR3 Configuration -----------------------*/
  /* Configure the UART HFC: Set CTSE and RTSE bits according to huart->Init.HwFlowCtl value */
  MODIFY_REG(huart->Instance->CR3, (USART_CR3_RTSE | USART_CR3_CTSE), huart->Init.HwFlowCtl);
 80068e2:	f8d7 30f4 	ldr.w	r3, [r7, #244]	@ 0xf4
 80068e6:	681b      	ldr	r3, [r3, #0]
 80068e8:	695b      	ldr	r3, [r3, #20]
 80068ea:	f423 7040 	bic.w	r0, r3, #768	@ 0x300
 80068ee:	f8d7 30f4 	ldr.w	r3, [r7, #244]	@ 0xf4
 80068f2:	6999      	ldr	r1, [r3, #24]
 80068f4:	f8d7 30f4 	ldr.w	r3, [r7, #244]	@ 0xf4
 80068f8:	681a      	ldr	r2, [r3, #0]
 80068fa:	ea40 0301 	orr.w	r3, r0, r1
 80068fe:	6153      	str	r3, [r2, #20]
    if ((huart->Instance == USART1) || (huart->Instance == USART6) || (huart->Instance == UART9) || (huart->Instance == UART10))
    {
      pclk = HAL_RCC_GetPCLK2Freq();
    }
#elif defined(USART6)
    if ((huart->Instance == USART1) || (huart->Instance == USART6))
 8006900:	f8d7 30f4 	ldr.w	r3, [r7, #244]	@ 0xf4
 8006904:	681a      	ldr	r2, [r3, #0]
 8006906:	4b8f      	ldr	r3, [pc, #572]	@ (8006b44 <UART_SetConfig+0x2cc>)
 8006908:	429a      	cmp	r2, r3
 800690a:	d005      	beq.n	8006918 <UART_SetConfig+0xa0>
 800690c:	f8d7 30f4 	ldr.w	r3, [r7, #244]	@ 0xf4
 8006910:	681a      	ldr	r2, [r3, #0]
 8006912:	4b8d      	ldr	r3, [pc, #564]	@ (8006b48 <UART_SetConfig+0x2d0>)
 8006914:	429a      	cmp	r2, r3
 8006916:	d104      	bne.n	8006922 <UART_SetConfig+0xaa>
    {
      pclk = HAL_RCC_GetPCLK2Freq();
 8006918:	f7fe fac6 	bl	8004ea8 <HAL_RCC_GetPCLK2Freq>
 800691c:	f8c7 00fc 	str.w	r0, [r7, #252]	@ 0xfc
 8006920:	e003      	b.n	800692a <UART_SetConfig+0xb2>
      pclk = HAL_RCC_GetPCLK2Freq();
    }
#endif /* USART6 */
    else
    {
      pclk = HAL_RCC_GetPCLK1Freq();
 8006922:	f7fe faad 	bl	8004e80 <HAL_RCC_GetPCLK1Freq>
 8006926:	f8c7 00fc 	str.w	r0, [r7, #252]	@ 0xfc
    }
  /*-------------------------- USART BRR Configuration ---------------------*/
  if (huart->Init.OverSampling == UART_OVERSAMPLING_8)
 800692a:	f8d7 30f4 	ldr.w	r3, [r7, #244]	@ 0xf4
 800692e:	69db      	ldr	r3, [r3, #28]
 8006930:	f5b3 4f00 	cmp.w	r3, #32768	@ 0x8000
 8006934:	f040 810c 	bne.w	8006b50 <UART_SetConfig+0x2d8>
  {
    huart->Instance->BRR = UART_BRR_SAMPLING8(pclk, huart->Init.BaudRate);
 8006938:	f8d7 30fc 	ldr.w	r3, [r7, #252]	@ 0xfc
 800693c:	2200      	movs	r2, #0
 800693e:	f8c7 30e8 	str.w	r3, [r7, #232]	@ 0xe8
 8006942:	f8c7 20ec 	str.w	r2, [r7, #236]	@ 0xec
 8006946:	e9d7 453a 	ldrd	r4, r5, [r7, #232]	@ 0xe8
 800694a:	4622      	mov	r2, r4
 800694c:	462b      	mov	r3, r5
 800694e:	1891      	adds	r1, r2, r2
 8006950:	65b9      	str	r1, [r7, #88]	@ 0x58
 8006952:	415b      	adcs	r3, r3
 8006954:	65fb      	str	r3, [r7, #92]	@ 0x5c
 8006956:	e9d7 2316 	ldrd	r2, r3, [r7, #88]	@ 0x58
 800695a:	4621      	mov	r1, r4
 800695c:	eb12 0801 	adds.w	r8, r2, r1
 8006960:	4629      	mov	r1, r5
 8006962:	eb43 0901 	adc.w	r9, r3, r1
 8006966:	f04f 0200 	mov.w	r2, #0
 800696a:	f04f 0300 	mov.w	r3, #0
 800696e:	ea4f 03c9 	mov.w	r3, r9, lsl #3
 8006972:	ea43 7358 	orr.w	r3, r3, r8, lsr #29
 8006976:	ea4f 02c8 	mov.w	r2, r8, lsl #3
 800697a:	4690      	mov	r8, r2
 800697c:	4699      	mov	r9, r3
 800697e:	4623      	mov	r3, r4
 8006980:	eb18 0303 	adds.w	r3, r8, r3
 8006984:	f8c7 30e0 	str.w	r3, [r7, #224]	@ 0xe0
 8006988:	462b      	mov	r3, r5
 800698a:	eb49 0303 	adc.w	r3, r9, r3
 800698e:	f8c7 30e4 	str.w	r3, [r7, #228]	@ 0xe4
 8006992:	f8d7 30f4 	ldr.w	r3, [r7, #244]	@ 0xf4
 8006996:	685b      	ldr	r3, [r3, #4]
 8006998:	2200      	movs	r2, #0
 800699a:	f8c7 30d8 	str.w	r3, [r7, #216]	@ 0xd8
 800699e:	f8c7 20dc 	str.w	r2, [r7, #220]	@ 0xdc
 80069a2:	e9d7 1236 	ldrd	r1, r2, [r7, #216]	@ 0xd8
 80069a6:	460b      	mov	r3, r1
 80069a8:	18db      	adds	r3, r3, r3
 80069aa:	653b      	str	r3, [r7, #80]	@ 0x50
 80069ac:	4613      	mov	r3, r2
 80069ae:	eb42 0303 	adc.w	r3, r2, r3
 80069b2:	657b      	str	r3, [r7, #84]	@ 0x54
 80069b4:	e9d7 2314 	ldrd	r2, r3, [r7, #80]	@ 0x50
 80069b8:	e9d7 0138 	ldrd	r0, r1, [r7, #224]	@ 0xe0
 80069bc:	f7f9 fc04 	bl	80001c8 <__aeabi_uldivmod>
 80069c0:	4602      	mov	r2, r0
 80069c2:	460b      	mov	r3, r1
 80069c4:	4b61      	ldr	r3, [pc, #388]	@ (8006b4c <UART_SetConfig+0x2d4>)
 80069c6:	fba3 2302 	umull	r2, r3, r3, r2
 80069ca:	095b      	lsrs	r3, r3, #5
 80069cc:	011c      	lsls	r4, r3, #4
 80069ce:	f8d7 30fc 	ldr.w	r3, [r7, #252]	@ 0xfc
 80069d2:	2200      	movs	r2, #0
 80069d4:	f8c7 30d0 	str.w	r3, [r7, #208]	@ 0xd0
 80069d8:	f8c7 20d4 	str.w	r2, [r7, #212]	@ 0xd4
 80069dc:	e9d7 8934 	ldrd	r8, r9, [r7, #208]	@ 0xd0
 80069e0:	4642      	mov	r2, r8
 80069e2:	464b      	mov	r3, r9
 80069e4:	1891      	adds	r1, r2, r2
 80069e6:	64b9      	str	r1, [r7, #72]	@ 0x48
 80069e8:	415b      	adcs	r3, r3
 80069ea:	64fb      	str	r3, [r7, #76]	@ 0x4c
 80069ec:	e9d7 2312 	ldrd	r2, r3, [r7, #72]	@ 0x48
 80069f0:	4641      	mov	r1, r8
 80069f2:	eb12 0a01 	adds.w	sl, r2, r1
 80069f6:	4649      	mov	r1, r9
 80069f8:	eb43 0b01 	adc.w	fp, r3, r1
 80069fc:	f04f 0200 	mov.w	r2, #0
 8006a00:	f04f 0300 	mov.w	r3, #0
 8006a04:	ea4f 03cb 	mov.w	r3, fp, lsl #3
 8006a08:	ea43 735a 	orr.w	r3, r3, sl, lsr #29
 8006a0c:	ea4f 02ca 	mov.w	r2, sl, lsl #3
 8006a10:	4692      	mov	sl, r2
 8006a12:	469b      	mov	fp, r3
 8006a14:	4643      	mov	r3, r8
 8006a16:	eb1a 0303 	adds.w	r3, sl, r3
 8006a1a:	f8c7 30c8 	str.w	r3, [r7, #200]	@ 0xc8
 8006a1e:	464b      	mov	r3, r9
 8006a20:	eb4b 0303 	adc.w	r3, fp, r3
 8006a24:	f8c7 30cc 	str.w	r3, [r7, #204]	@ 0xcc
 8006a28:	f8d7 30f4 	ldr.w	r3, [r7, #244]	@ 0xf4
 8006a2c:	685b      	ldr	r3, [r3, #4]
 8006a2e:	2200      	movs	r2, #0
 8006a30:	f8c7 30c0 	str.w	r3, [r7, #192]	@ 0xc0
 8006a34:	f8c7 20c4 	str.w	r2, [r7, #196]	@ 0xc4
 8006a38:	e9d7 1230 	ldrd	r1, r2, [r7, #192]	@ 0xc0
 8006a3c:	460b      	mov	r3, r1
 8006a3e:	18db      	adds	r3, r3, r3
 8006a40:	643b      	str	r3, [r7, #64]	@ 0x40
 8006a42:	4613      	mov	r3, r2
 8006a44:	eb42 0303 	adc.w	r3, r2, r3
 8006a48:	647b      	str	r3, [r7, #68]	@ 0x44
 8006a4a:	e9d7 2310 	ldrd	r2, r3, [r7, #64]	@ 0x40
 8006a4e:	e9d7 0132 	ldrd	r0, r1, [r7, #200]	@ 0xc8
 8006a52:	f7f9 fbb9 	bl	80001c8 <__aeabi_uldivmod>
 8006a56:	4602      	mov	r2, r0
 8006a58:	460b      	mov	r3, r1
 8006a5a:	4611      	mov	r1, r2
 8006a5c:	4b3b      	ldr	r3, [pc, #236]	@ (8006b4c <UART_SetConfig+0x2d4>)
 8006a5e:	fba3 2301 	umull	r2, r3, r3, r1
 8006a62:	095b      	lsrs	r3, r3, #5
 8006a64:	2264      	movs	r2, #100	@ 0x64
 8006a66:	fb02 f303 	mul.w	r3, r2, r3
 8006a6a:	1acb      	subs	r3, r1, r3
 8006a6c:	00db      	lsls	r3, r3, #3
 8006a6e:	f103 0232 	add.w	r2, r3, #50	@ 0x32
 8006a72:	4b36      	ldr	r3, [pc, #216]	@ (8006b4c <UART_SetConfig+0x2d4>)
 8006a74:	fba3 2302 	umull	r2, r3, r3, r2
 8006a78:	095b      	lsrs	r3, r3, #5
 8006a7a:	005b      	lsls	r3, r3, #1
 8006a7c:	f403 73f8 	and.w	r3, r3, #496	@ 0x1f0
 8006a80:	441c      	add	r4, r3
 8006a82:	f8d7 30fc 	ldr.w	r3, [r7, #252]	@ 0xfc
 8006a86:	2200      	movs	r2, #0
 8006a88:	f8c7 30b8 	str.w	r3, [r7, #184]	@ 0xb8
 8006a8c:	f8c7 20bc 	str.w	r2, [r7, #188]	@ 0xbc
 8006a90:	e9d7 892e 	ldrd	r8, r9, [r7, #184]	@ 0xb8
 8006a94:	4642      	mov	r2, r8
 8006a96:	464b      	mov	r3, r9
 8006a98:	1891      	adds	r1, r2, r2
 8006a9a:	63b9      	str	r1, [r7, #56]	@ 0x38
 8006a9c:	415b      	adcs	r3, r3
 8006a9e:	63fb      	str	r3, [r7, #60]	@ 0x3c
 8006aa0:	e9d7 230e 	ldrd	r2, r3, [r7, #56]	@ 0x38
 8006aa4:	4641      	mov	r1, r8
 8006aa6:	1851      	adds	r1, r2, r1
 8006aa8:	6339      	str	r1, [r7, #48]	@ 0x30
 8006aaa:	4649      	mov	r1, r9
 8006aac:	414b      	adcs	r3, r1
 8006aae:	637b      	str	r3, [r7, #52]	@ 0x34
 8006ab0:	f04f 0200 	mov.w	r2, #0
 8006ab4:	f04f 0300 	mov.w	r3, #0
 8006ab8:	e9d7 ab0c 	ldrd	sl, fp, [r7, #48]	@ 0x30
 8006abc:	4659      	mov	r1, fp
 8006abe:	00cb      	lsls	r3, r1, #3
 8006ac0:	4651      	mov	r1, sl
 8006ac2:	ea43 7351 	orr.w	r3, r3, r1, lsr #29
 8006ac6:	4651      	mov	r1, sl
 8006ac8:	00ca      	lsls	r2, r1, #3
 8006aca:	4610      	mov	r0, r2
 8006acc:	4619      	mov	r1, r3
 8006ace:	4603      	mov	r3, r0
 8006ad0:	4642      	mov	r2, r8
 8006ad2:	189b      	adds	r3, r3, r2
 8006ad4:	f8c7 30b0 	str.w	r3, [r7, #176]	@ 0xb0
 8006ad8:	464b      	mov	r3, r9
 8006ada:	460a      	mov	r2, r1
 8006adc:	eb42 0303 	adc.w	r3, r2, r3
 8006ae0:	f8c7 30b4 	str.w	r3, [r7, #180]	@ 0xb4
 8006ae4:	f8d7 30f4 	ldr.w	r3, [r7, #244]	@ 0xf4
 8006ae8:	685b      	ldr	r3, [r3, #4]
 8006aea:	2200      	movs	r2, #0
 8006aec:	f8c7 30a8 	str.w	r3, [r7, #168]	@ 0xa8
 8006af0:	f8c7 20ac 	str.w	r2, [r7, #172]	@ 0xac
 8006af4:	e9d7 122a 	ldrd	r1, r2, [r7, #168]	@ 0xa8
 8006af8:	460b      	mov	r3, r1
 8006afa:	18db      	adds	r3, r3, r3
 8006afc:	62bb      	str	r3, [r7, #40]	@ 0x28
 8006afe:	4613      	mov	r3, r2
 8006b00:	eb42 0303 	adc.w	r3, r2, r3
 8006b04:	62fb      	str	r3, [r7, #44]	@ 0x2c
 8006b06:	e9d7 230a 	ldrd	r2, r3, [r7, #40]	@ 0x28
 8006b0a:	e9d7 012c 	ldrd	r0, r1, [r7, #176]	@ 0xb0
 8006b0e:	f7f9 fb5b 	bl	80001c8 <__aeabi_uldivmod>
 8006b12:	4602      	mov	r2, r0
 8006b14:	460b      	mov	r3, r1
 8006b16:	4b0d      	ldr	r3, [pc, #52]	@ (8006b4c <UART_SetConfig+0x2d4>)
 8006b18:	fba3 1302 	umull	r1, r3, r3, r2
 8006b1c:	095b      	lsrs	r3, r3, #5
 8006b1e:	2164      	movs	r1, #100	@ 0x64
 8006b20:	fb01 f303 	mul.w	r3, r1, r3
 8006b24:	1ad3      	subs	r3, r2, r3
 8006b26:	00db      	lsls	r3, r3, #3
 8006b28:	3332      	adds	r3, #50	@ 0x32
 8006b2a:	4a08      	ldr	r2, [pc, #32]	@ (8006b4c <UART_SetConfig+0x2d4>)
 8006b2c:	fba2 2303 	umull	r2, r3, r2, r3
 8006b30:	095b      	lsrs	r3, r3, #5
 8006b32:	f003 0207 	and.w	r2, r3, #7
 8006b36:	f8d7 30f4 	ldr.w	r3, [r7, #244]	@ 0xf4
 8006b3a:	681b      	ldr	r3, [r3, #0]
 8006b3c:	4422      	add	r2, r4
 8006b3e:	609a      	str	r2, [r3, #8]
  }
  else
  {
    huart->Instance->BRR = UART_BRR_SAMPLING16(pclk, huart->Init.BaudRate);
  }
}
 8006b40:	e106      	b.n	8006d50 <UART_SetConfig+0x4d8>
 8006b42:	bf00      	nop
 8006b44:	40011000 	.word	0x40011000
 8006b48:	40011400 	.word	0x40011400
 8006b4c:	51eb851f 	.word	0x51eb851f
    huart->Instance->BRR = UART_BRR_SAMPLING16(pclk, huart->Init.BaudRate);
 8006b50:	f8d7 30fc 	ldr.w	r3, [r7, #252]	@ 0xfc
 8006b54:	2200      	movs	r2, #0
 8006b56:	f8c7 30a0 	str.w	r3, [r7, #160]	@ 0xa0
 8006b5a:	f8c7 20a4 	str.w	r2, [r7, #164]	@ 0xa4
 8006b5e:	e9d7 8928 	ldrd	r8, r9, [r7, #160]	@ 0xa0
 8006b62:	4642      	mov	r2, r8
 8006b64:	464b      	mov	r3, r9
 8006b66:	1891      	adds	r1, r2, r2
 8006b68:	6239      	str	r1, [r7, #32]
 8006b6a:	415b      	adcs	r3, r3
 8006b6c:	627b      	str	r3, [r7, #36]	@ 0x24
 8006b6e:	e9d7 2308 	ldrd	r2, r3, [r7, #32]
 8006b72:	4641      	mov	r1, r8
 8006b74:	1854      	adds	r4, r2, r1
 8006b76:	4649      	mov	r1, r9
 8006b78:	eb43 0501 	adc.w	r5, r3, r1
 8006b7c:	f04f 0200 	mov.w	r2, #0
 8006b80:	f04f 0300 	mov.w	r3, #0
 8006b84:	00eb      	lsls	r3, r5, #3
 8006b86:	ea43 7354 	orr.w	r3, r3, r4, lsr #29
 8006b8a:	00e2      	lsls	r2, r4, #3
 8006b8c:	4614      	mov	r4, r2
 8006b8e:	461d      	mov	r5, r3
 8006b90:	4643      	mov	r3, r8
 8006b92:	18e3      	adds	r3, r4, r3
 8006b94:	f8c7 3098 	str.w	r3, [r7, #152]	@ 0x98
 8006b98:	464b      	mov	r3, r9
 8006b9a:	eb45 0303 	adc.w	r3, r5, r3
 8006b9e:	f8c7 309c 	str.w	r3, [r7, #156]	@ 0x9c
 8006ba2:	f8d7 30f4 	ldr.w	r3, [r7, #244]	@ 0xf4
 8006ba6:	685b      	ldr	r3, [r3, #4]
 8006ba8:	2200      	movs	r2, #0
 8006baa:	f8c7 3090 	str.w	r3, [r7, #144]	@ 0x90
 8006bae:	f8c7 2094 	str.w	r2, [r7, #148]	@ 0x94
 8006bb2:	f04f 0200 	mov.w	r2, #0
 8006bb6:	f04f 0300 	mov.w	r3, #0
 8006bba:	e9d7 4524 	ldrd	r4, r5, [r7, #144]	@ 0x90
 8006bbe:	4629      	mov	r1, r5
 8006bc0:	008b      	lsls	r3, r1, #2
 8006bc2:	4621      	mov	r1, r4
 8006bc4:	ea43 7391 	orr.w	r3, r3, r1, lsr #30
 8006bc8:	4621      	mov	r1, r4
 8006bca:	008a      	lsls	r2, r1, #2
 8006bcc:	e9d7 0126 	ldrd	r0, r1, [r7, #152]	@ 0x98
 8006bd0:	f7f9 fafa 	bl	80001c8 <__aeabi_uldivmod>
 8006bd4:	4602      	mov	r2, r0
 8006bd6:	460b      	mov	r3, r1
 8006bd8:	4b60      	ldr	r3, [pc, #384]	@ (8006d5c <UART_SetConfig+0x4e4>)
 8006bda:	fba3 2302 	umull	r2, r3, r3, r2
 8006bde:	095b      	lsrs	r3, r3, #5
 8006be0:	011c      	lsls	r4, r3, #4
 8006be2:	f8d7 30fc 	ldr.w	r3, [r7, #252]	@ 0xfc
 8006be6:	2200      	movs	r2, #0
 8006be8:	f8c7 3088 	str.w	r3, [r7, #136]	@ 0x88
 8006bec:	f8c7 208c 	str.w	r2, [r7, #140]	@ 0x8c
 8006bf0:	e9d7 8922 	ldrd	r8, r9, [r7, #136]	@ 0x88
 8006bf4:	4642      	mov	r2, r8
 8006bf6:	464b      	mov	r3, r9
 8006bf8:	1891      	adds	r1, r2, r2
 8006bfa:	61b9      	str	r1, [r7, #24]
 8006bfc:	415b      	adcs	r3, r3
 8006bfe:	61fb      	str	r3, [r7, #28]
 8006c00:	e9d7 2306 	ldrd	r2, r3, [r7, #24]
 8006c04:	4641      	mov	r1, r8
 8006c06:	1851      	adds	r1, r2, r1
 8006c08:	6139      	str	r1, [r7, #16]
 8006c0a:	4649      	mov	r1, r9
 8006c0c:	414b      	adcs	r3, r1
 8006c0e:	617b      	str	r3, [r7, #20]
 8006c10:	f04f 0200 	mov.w	r2, #0
 8006c14:	f04f 0300 	mov.w	r3, #0
 8006c18:	e9d7 ab04 	ldrd	sl, fp, [r7, #16]
 8006c1c:	4659      	mov	r1, fp
 8006c1e:	00cb      	lsls	r3, r1, #3
 8006c20:	4651      	mov	r1, sl
 8006c22:	ea43 7351 	orr.w	r3, r3, r1, lsr #29
 8006c26:	4651      	mov	r1, sl
 8006c28:	00ca      	lsls	r2, r1, #3
 8006c2a:	4610      	mov	r0, r2
 8006c2c:	4619      	mov	r1, r3
 8006c2e:	4603      	mov	r3, r0
 8006c30:	4642      	mov	r2, r8
 8006c32:	189b      	adds	r3, r3, r2
 8006c34:	f8c7 3080 	str.w	r3, [r7, #128]	@ 0x80
 8006c38:	464b      	mov	r3, r9
 8006c3a:	460a      	mov	r2, r1
 8006c3c:	eb42 0303 	adc.w	r3, r2, r3
 8006c40:	f8c7 3084 	str.w	r3, [r7, #132]	@ 0x84
 8006c44:	f8d7 30f4 	ldr.w	r3, [r7, #244]	@ 0xf4
 8006c48:	685b      	ldr	r3, [r3, #4]
 8006c4a:	2200      	movs	r2, #0
 8006c4c:	67bb      	str	r3, [r7, #120]	@ 0x78
 8006c4e:	67fa      	str	r2, [r7, #124]	@ 0x7c
 8006c50:	f04f 0200 	mov.w	r2, #0
 8006c54:	f04f 0300 	mov.w	r3, #0
 8006c58:	e9d7 891e 	ldrd	r8, r9, [r7, #120]	@ 0x78
 8006c5c:	4649      	mov	r1, r9
 8006c5e:	008b      	lsls	r3, r1, #2
 8006c60:	4641      	mov	r1, r8
 8006c62:	ea43 7391 	orr.w	r3, r3, r1, lsr #30
 8006c66:	4641      	mov	r1, r8
 8006c68:	008a      	lsls	r2, r1, #2
 8006c6a:	e9d7 0120 	ldrd	r0, r1, [r7, #128]	@ 0x80
 8006c6e:	f7f9 faab 	bl	80001c8 <__aeabi_uldivmod>
 8006c72:	4602      	mov	r2, r0
 8006c74:	460b      	mov	r3, r1
 8006c76:	4611      	mov	r1, r2
 8006c78:	4b38      	ldr	r3, [pc, #224]	@ (8006d5c <UART_SetConfig+0x4e4>)
 8006c7a:	fba3 2301 	umull	r2, r3, r3, r1
 8006c7e:	095b      	lsrs	r3, r3, #5
 8006c80:	2264      	movs	r2, #100	@ 0x64
 8006c82:	fb02 f303 	mul.w	r3, r2, r3
 8006c86:	1acb      	subs	r3, r1, r3
 8006c88:	011b      	lsls	r3, r3, #4
 8006c8a:	3332      	adds	r3, #50	@ 0x32
 8006c8c:	4a33      	ldr	r2, [pc, #204]	@ (8006d5c <UART_SetConfig+0x4e4>)
 8006c8e:	fba2 2303 	umull	r2, r3, r2, r3
 8006c92:	095b      	lsrs	r3, r3, #5
 8006c94:	f003 03f0 	and.w	r3, r3, #240	@ 0xf0
 8006c98:	441c      	add	r4, r3
 8006c9a:	f8d7 30fc 	ldr.w	r3, [r7, #252]	@ 0xfc
 8006c9e:	2200      	movs	r2, #0
 8006ca0:	673b      	str	r3, [r7, #112]	@ 0x70
 8006ca2:	677a      	str	r2, [r7, #116]	@ 0x74
 8006ca4:	e9d7 891c 	ldrd	r8, r9, [r7, #112]	@ 0x70
 8006ca8:	4642      	mov	r2, r8
 8006caa:	464b      	mov	r3, r9
 8006cac:	1891      	adds	r1, r2, r2
 8006cae:	60b9      	str	r1, [r7, #8]
 8006cb0:	415b      	adcs	r3, r3
 8006cb2:	60fb      	str	r3, [r7, #12]
 8006cb4:	e9d7 2302 	ldrd	r2, r3, [r7, #8]
 8006cb8:	4641      	mov	r1, r8
 8006cba:	1851      	adds	r1, r2, r1
 8006cbc:	6039      	str	r1, [r7, #0]
 8006cbe:	4649      	mov	r1, r9
 8006cc0:	414b      	adcs	r3, r1
 8006cc2:	607b      	str	r3, [r7, #4]
 8006cc4:	f04f 0200 	mov.w	r2, #0
 8006cc8:	f04f 0300 	mov.w	r3, #0
 8006ccc:	e9d7 ab00 	ldrd	sl, fp, [r7]
 8006cd0:	4659      	mov	r1, fp
 8006cd2:	00cb      	lsls	r3, r1, #3
 8006cd4:	4651      	mov	r1, sl
 8006cd6:	ea43 7351 	orr.w	r3, r3, r1, lsr #29
 8006cda:	4651      	mov	r1, sl
 8006cdc:	00ca      	lsls	r2, r1, #3
 8006cde:	4610      	mov	r0, r2
 8006ce0:	4619      	mov	r1, r3
 8006ce2:	4603      	mov	r3, r0
 8006ce4:	4642      	mov	r2, r8
 8006ce6:	189b      	adds	r3, r3, r2
 8006ce8:	66bb      	str	r3, [r7, #104]	@ 0x68
 8006cea:	464b      	mov	r3, r9
 8006cec:	460a      	mov	r2, r1
 8006cee:	eb42 0303 	adc.w	r3, r2, r3
 8006cf2:	66fb      	str	r3, [r7, #108]	@ 0x6c
 8006cf4:	f8d7 30f4 	ldr.w	r3, [r7, #244]	@ 0xf4
 8006cf8:	685b      	ldr	r3, [r3, #4]
 8006cfa:	2200      	movs	r2, #0
 8006cfc:	663b      	str	r3, [r7, #96]	@ 0x60
 8006cfe:	667a      	str	r2, [r7, #100]	@ 0x64
 8006d00:	f04f 0200 	mov.w	r2, #0
 8006d04:	f04f 0300 	mov.w	r3, #0
 8006d08:	e9d7 8918 	ldrd	r8, r9, [r7, #96]	@ 0x60
 8006d0c:	4649      	mov	r1, r9
 8006d0e:	008b      	lsls	r3, r1, #2
 8006d10:	4641      	mov	r1, r8
 8006d12:	ea43 7391 	orr.w	r3, r3, r1, lsr #30
 8006d16:	4641      	mov	r1, r8
 8006d18:	008a      	lsls	r2, r1, #2
 8006d1a:	e9d7 011a 	ldrd	r0, r1, [r7, #104]	@ 0x68
 8006d1e:	f7f9 fa53 	bl	80001c8 <__aeabi_uldivmod>
 8006d22:	4602      	mov	r2, r0
 8006d24:	460b      	mov	r3, r1
 8006d26:	4b0d      	ldr	r3, [pc, #52]	@ (8006d5c <UART_SetConfig+0x4e4>)
 8006d28:	fba3 1302 	umull	r1, r3, r3, r2
 8006d2c:	095b      	lsrs	r3, r3, #5
 8006d2e:	2164      	movs	r1, #100	@ 0x64
 8006d30:	fb01 f303 	mul.w	r3, r1, r3
 8006d34:	1ad3      	subs	r3, r2, r3
 8006d36:	011b      	lsls	r3, r3, #4
 8006d38:	3332      	adds	r3, #50	@ 0x32
 8006d3a:	4a08      	ldr	r2, [pc, #32]	@ (8006d5c <UART_SetConfig+0x4e4>)
 8006d3c:	fba2 2303 	umull	r2, r3, r2, r3
 8006d40:	095b      	lsrs	r3, r3, #5
 8006d42:	f003 020f 	and.w	r2, r3, #15
 8006d46:	f8d7 30f4 	ldr.w	r3, [r7, #244]	@ 0xf4
 8006d4a:	681b      	ldr	r3, [r3, #0]
 8006d4c:	4422      	add	r2, r4
 8006d4e:	609a      	str	r2, [r3, #8]
}
 8006d50:	bf00      	nop
 8006d52:	f507 7780 	add.w	r7, r7, #256	@ 0x100
 8006d56:	46bd      	mov	sp, r7
 8006d58:	e8bd 8fb0 	ldmia.w	sp!, {r4, r5, r7, r8, r9, sl, fp, pc}
 8006d5c:	51eb851f 	.word	0x51eb851f

08006d60 <memset>:
 8006d60:	4402      	add	r2, r0
 8006d62:	4603      	mov	r3, r0
 8006d64:	4293      	cmp	r3, r2
 8006d66:	d100      	bne.n	8006d6a <memset+0xa>
 8006d68:	4770      	bx	lr
 8006d6a:	f803 1b01 	strb.w	r1, [r3], #1
 8006d6e:	e7f9      	b.n	8006d64 <memset+0x4>

08006d70 <__libc_init_array>:
 8006d70:	b570      	push	{r4, r5, r6, lr}
 8006d72:	4b0d      	ldr	r3, [pc, #52]	@ (8006da8 <__libc_init_array+0x38>)
 8006d74:	4d0d      	ldr	r5, [pc, #52]	@ (8006dac <__libc_init_array+0x3c>)
 8006d76:	1b5b      	subs	r3, r3, r5
 8006d78:	109c      	asrs	r4, r3, #2
 8006d7a:	2600      	movs	r6, #0
 8006d7c:	42a6      	cmp	r6, r4
 8006d7e:	d109      	bne.n	8006d94 <__libc_init_array+0x24>
 8006d80:	f000 f81a 	bl	8006db8 <_init>
 8006d84:	4d0a      	ldr	r5, [pc, #40]	@ (8006db0 <__libc_init_array+0x40>)
 8006d86:	4b0b      	ldr	r3, [pc, #44]	@ (8006db4 <__libc_init_array+0x44>)
 8006d88:	1b5b      	subs	r3, r3, r5
 8006d8a:	109c      	asrs	r4, r3, #2
 8006d8c:	2600      	movs	r6, #0
 8006d8e:	42a6      	cmp	r6, r4
 8006d90:	d105      	bne.n	8006d9e <__libc_init_array+0x2e>
 8006d92:	bd70      	pop	{r4, r5, r6, pc}
 8006d94:	f855 3b04 	ldr.w	r3, [r5], #4
 8006d98:	4798      	blx	r3
 8006d9a:	3601      	adds	r6, #1
 8006d9c:	e7ee      	b.n	8006d7c <__libc_init_array+0xc>
 8006d9e:	f855 3b04 	ldr.w	r3, [r5], #4
 8006da2:	4798      	blx	r3
 8006da4:	3601      	adds	r6, #1
 8006da6:	e7f2      	b.n	8006d8e <__libc_init_array+0x1e>
 8006da8:	08006df8 	.word	0x08006df8
 8006dac:	08006df8 	.word	0x08006df8
 8006db0:	08006df8 	.word	0x08006df8
 8006db4:	08006dfc 	.word	0x08006dfc

08006db8 <_init>:
 8006db8:	b5f8      	push	{r3, r4, r5, r6, r7, lr}
 8006dba:	bf00      	nop
 8006dbc:	bcf8      	pop	{r3, r4, r5, r6, r7}
 8006dbe:	bc08      	pop	{r3}
 8006dc0:	469e      	mov	lr, r3
 8006dc2:	4770      	bx	lr

08006dc4 <_fini>:
 8006dc4:	b5f8      	push	{r3, r4, r5, r6, r7, lr}
 8006dc6:	bf00      	nop
 8006dc8:	bcf8      	pop	{r3, r4, r5, r6, r7}
 8006dca:	bc08      	pop	{r3}
 8006dcc:	469e      	mov	lr, r3
 8006dce:	4770      	bx	lr
